; ModuleID = 'example.bc'
source_filename = "example.cpp"
target datalayout = "e-m:o-i64:64-f80:128-n8:16:32:64-S128"
target triple = "x86_64-apple-macosx10.10.0"

%"class.std::__1::mutex" = type { %struct._opaque_pthread_mutex_t }
%struct._opaque_pthread_mutex_t = type { i64, [56 x i8] }
%"class.std::__1::basic_ostream" = type { i32 (...)**, %"class.std::__1::basic_ios.base" }
%"class.std::__1::basic_ios.base" = type <{ %"class.std::__1::ios_base", %"class.std::__1::basic_ostream"*, i32 }>
%"class.std::__1::ios_base" = type { i32 (...)**, i32, i64, i64, i32, i32, i8*, i8*, void (i32, %"class.std::__1::ios_base"*, i32)**, i32*, i64, i64, i64*, i64, i64, i8**, i64, i64 }
%"class.std::__1::locale::id" = type <{ %"struct.std::__1::once_flag", i32, [4 x i8] }>
%"struct.std::__1::once_flag" = type { i64 }
%"class.std::__1::lock_guard" = type { %"class.std::__1::mutex"* }
%"class.std::__1::__thread_id" = type { %struct._opaque_pthread_t* }
%struct._opaque_pthread_t = type { i64, %struct.__darwin_pthread_handler_rec*, [8176 x i8] }
%struct.__darwin_pthread_handler_rec = type { void (i8*)*, i8*, %struct.__darwin_pthread_handler_rec* }
%"class.std::__1::thread" = type { %struct._opaque_pthread_t* }
%"class.std::__1::ctype" = type <{ %"class.std::__1::locale::facet", i32*, i8, [7 x i8] }>
%"class.std::__1::locale::facet" = type { %"class.std::__1::__shared_count" }
%"class.std::__1::__shared_count" = type { i32 (...)**, i64 }
%"class.std::__1::locale" = type { %"class.std::__1::locale::__imp"* }
%"class.std::__1::locale::__imp" = type opaque
%"class.std::__1::basic_ios" = type <{ %"class.std::__1::ios_base", %"class.std::__1::basic_ostream"*, i32, [4 x i8] }>
%"class.std::__1::ostreambuf_iterator" = type { %"class.std::__1::basic_streambuf"* }
%"class.std::__1::basic_streambuf" = type { i32 (...)**, %"class.std::__1::locale", i8*, i8*, i8*, i8*, i8*, i8* }
%"class.std::__1::basic_ostream<char, std::__1::char_traits<char> >::sentry" = type { i8, %"class.std::__1::basic_ostream"* }
%"struct.std::__1::iterator" = type { i8 }
%"class.std::__1::__compressed_pair" = type { %"struct.std::__1::__compressed_pair_elem" }
%"struct.std::__1::__compressed_pair_elem" = type { %"struct.std::__1::basic_string<char, std::__1::char_traits<char>, std::__1::allocator<char> >::__rep" }
%"struct.std::__1::basic_string<char, std::__1::char_traits<char>, std::__1::allocator<char> >::__rep" = type { %union.anon }
%union.anon = type { %"struct.std::__1::basic_string<char, std::__1::char_traits<char>, std::__1::allocator<char> >::__long" }
%"struct.std::__1::basic_string<char, std::__1::char_traits<char>, std::__1::allocator<char> >::__long" = type { i64, i64, i8* }
%"class.std::__1::basic_string" = type { %"class.std::__1::__compressed_pair" }
%"class.std::__1::__basic_string_common" = type { i8 }
%"struct.std::__1::__compressed_pair_elem.1" = type { i8 }
%"struct.std::__1::basic_string<char, std::__1::char_traits<char>, std::__1::allocator<char> >::__short" = type { %union.anon.0, [23 x i8] }
%union.anon.0 = type { i8 }
%"class.std::__1::allocator" = type { i8 }
%"struct.std::__1::default_delete" = type { i8 }
%"class.std::__1::__thread_struct" = type { %"class.std::__1::__thread_struct_imp"* }
%"class.std::__1::__thread_struct_imp" = type opaque
%"class.std::__1::__compressed_pair.2" = type { %"struct.std::__1::__compressed_pair_elem.3" }
%"struct.std::__1::__compressed_pair_elem.3" = type { %"class.std::__1::__thread_struct"* }
%"class.std::__1::unique_ptr" = type { %"class.std::__1::__compressed_pair.2" }
%"struct.std::__1::default_delete.10" = type { i8 }
%"class.std::__1::tuple" = type { %"struct.std::__1::__tuple_impl" }
%"struct.std::__1::__tuple_impl" = type { %"class.std::__1::__tuple_leaf", %"class.std::__1::__tuple_leaf.8" }
%"class.std::__1::__tuple_leaf" = type { %"class.std::__1::unique_ptr" }
%"class.std::__1::__tuple_leaf.8" = type { void ()* }
%"class.std::__1::__compressed_pair.6" = type { %"struct.std::__1::__compressed_pair_elem.7" }
%"struct.std::__1::__compressed_pair_elem.7" = type { %"class.std::__1::tuple"* }
%"class.std::__1::unique_ptr.5" = type { %"class.std::__1::__compressed_pair.6" }
%"struct.std::__1::__compressed_pair_elem.4" = type { i8 }
%"struct.std::__1::__compressed_pair_elem.9" = type { i8 }
%struct._opaque_pthread_attr_t = type { i64, [56 x i8] }
%"struct.std::__1::__tuple_indices.12" = type { i8 }
%"class.std::__1::__thread_specific_ptr" = type { i64 }

@g_i = global i32 0, align 4, !dbg !0
@g_i_mutex = global %"class.std::__1::mutex" { %struct._opaque_pthread_mutex_t { i64 850045863, [56 x i8] zeroinitializer } }, align 8, !dbg !2300
@__dso_handle = external global i8
@_ZNSt3__14coutE = external global %"class.std::__1::basic_ostream", align 8
@.str = private unnamed_addr constant [3 x i8] c": \00", align 1
@__func__.main = private unnamed_addr constant [5 x i8] c"main\00", align 1
@_ZNSt3__15ctypeIcE2idE = external global %"class.std::__1::locale::id", align 8
@.str.1 = private unnamed_addr constant [26 x i8] c"thread constructor failed\00", align 1
@llvm.global_ctors = appending global [1 x { i32, void ()*, i8* }] [{ i32, void ()*, i8* } { i32 65535, void ()* @_GLOBAL__sub_I_example.cpp, i8* null }]

; Function Attrs: noinline ssp uwtable
define internal void @__cxx_global_var_init() #0 section "__TEXT,__StaticInit,regular,pure_instructions" !dbg !3204 {
entry:
  %0 = call i32 @__cxa_atexit(void (i8*)* bitcast (void (%"class.std::__1::mutex"*)* @_ZNSt3__15mutexD1Ev to void (i8*)*), i8* bitcast (%"class.std::__1::mutex"* @g_i_mutex to i8*), i8* @__dso_handle) #2, !dbg !3205
  ret void, !dbg !3205
}

; Function Attrs: nounwind
declare void @_ZNSt3__15mutexD1Ev(%"class.std::__1::mutex"*) unnamed_addr #1

; Function Attrs: nounwind
declare i32 @__cxa_atexit(void (i8*)*, i8*, i8*) #2

; Function Attrs: noinline ssp uwtable
define void @_Z14safe_incrementv() #0 personality i8* bitcast (i32 (...)* @__gxx_personality_v0 to i8*) !dbg !3206 {
entry:
  %this.addr.i.i20 = alloca %"class.std::__1::lock_guard"*, align 8
  call void @llvm.dbg.declare(metadata %"class.std::__1::lock_guard"** %this.addr.i.i20, metadata !3207, metadata !3234), !dbg !3235
  %this.addr.i21 = alloca %"class.std::__1::lock_guard"*, align 8
  call void @llvm.dbg.declare(metadata %"class.std::__1::lock_guard"** %this.addr.i21, metadata !3240, metadata !3234), !dbg !3241
  %this.addr.i.i14 = alloca %"class.std::__1::lock_guard"*, align 8
  call void @llvm.dbg.declare(metadata %"class.std::__1::lock_guard"** %this.addr.i.i14, metadata !3207, metadata !3234), !dbg !3242
  %this.addr.i15 = alloca %"class.std::__1::lock_guard"*, align 8
  call void @llvm.dbg.declare(metadata %"class.std::__1::lock_guard"** %this.addr.i15, metadata !3240, metadata !3234), !dbg !3245
  %__id.i = alloca %"class.std::__1::__thread_id", align 8
  call void @llvm.dbg.declare(metadata %"class.std::__1::__thread_id"* %__id.i, metadata !3246, metadata !3234), !dbg !3280
  %__os.addr.i = alloca %"class.std::__1::basic_ostream"*, align 8
  call void @llvm.dbg.declare(metadata %"class.std::__1::basic_ostream"** %__os.addr.i, metadata !3282, metadata !3234), !dbg !3283
  %this.addr.i.i.i = alloca %"class.std::__1::__thread_id"*, align 8
  call void @llvm.dbg.declare(metadata %"class.std::__1::__thread_id"** %this.addr.i.i.i, metadata !3284, metadata !3234), !dbg !3287
  %__id.addr.i.i.i = alloca %struct._opaque_pthread_t*, align 8
  call void @llvm.dbg.declare(metadata %struct._opaque_pthread_t** %__id.addr.i.i.i, metadata !3297, metadata !3234), !dbg !3298
  %this.addr.i.i10 = alloca %"class.std::__1::__thread_id"*, align 8
  call void @llvm.dbg.declare(metadata %"class.std::__1::__thread_id"** %this.addr.i.i10, metadata !3299, metadata !3234), !dbg !3300
  %__id.addr.i.i = alloca %struct._opaque_pthread_t*, align 8
  call void @llvm.dbg.declare(metadata %struct._opaque_pthread_t** %__id.addr.i.i, metadata !3301, metadata !3234), !dbg !3302
  %retval.i = alloca %"class.std::__1::__thread_id", align 8
  %this.addr.i.i = alloca %"class.std::__1::lock_guard"*, align 8
  call void @llvm.dbg.declare(metadata %"class.std::__1::lock_guard"** %this.addr.i.i, metadata !3303, metadata !3234), !dbg !3305
  %__m.addr.i.i = alloca %"class.std::__1::mutex"*, align 8
  call void @llvm.dbg.declare(metadata %"class.std::__1::mutex"** %__m.addr.i.i, metadata !3309, metadata !3234), !dbg !3310
  %this.addr.i = alloca %"class.std::__1::lock_guard"*, align 8
  call void @llvm.dbg.declare(metadata %"class.std::__1::lock_guard"** %this.addr.i, metadata !3311, metadata !3234), !dbg !3312
  %__m.addr.i = alloca %"class.std::__1::mutex"*, align 8
  call void @llvm.dbg.declare(metadata %"class.std::__1::mutex"** %__m.addr.i, metadata !3313, metadata !3234), !dbg !3314
  %lock = alloca %"class.std::__1::lock_guard", align 8
  %agg.tmp = alloca %"class.std::__1::__thread_id", align 8
  %exn.slot = alloca i8*
  %ehselector.slot = alloca i32
  call void @llvm.dbg.declare(metadata %"class.std::__1::lock_guard"* %lock, metadata !3315, metadata !3234), !dbg !3316
  store %"class.std::__1::lock_guard"* %lock, %"class.std::__1::lock_guard"** %this.addr.i, align 8
  store %"class.std::__1::mutex"* @g_i_mutex, %"class.std::__1::mutex"** %__m.addr.i, align 8
  %this1.i = load %"class.std::__1::lock_guard"*, %"class.std::__1::lock_guard"** %this.addr.i, align 8
  %0 = load %"class.std::__1::mutex"*, %"class.std::__1::mutex"** %__m.addr.i, align 8, !dbg !3317
  store %"class.std::__1::lock_guard"* %this1.i, %"class.std::__1::lock_guard"** %this.addr.i.i, align 8
  store %"class.std::__1::mutex"* %0, %"class.std::__1::mutex"** %__m.addr.i.i, align 8
  %this1.i.i = load %"class.std::__1::lock_guard"*, %"class.std::__1::lock_guard"** %this.addr.i.i, align 8
  %__m_.i.i = getelementptr inbounds %"class.std::__1::lock_guard", %"class.std::__1::lock_guard"* %this1.i.i, i32 0, i32 0, !dbg !3318
  %1 = load %"class.std::__1::mutex"*, %"class.std::__1::mutex"** %__m.addr.i.i, align 8, !dbg !3319
  store %"class.std::__1::mutex"* %1, %"class.std::__1::mutex"** %__m_.i.i, align 8, !dbg !3318
  %__m_2.i.i = getelementptr inbounds %"class.std::__1::lock_guard", %"class.std::__1::lock_guard"* %this1.i.i, i32 0, i32 0, !dbg !3320
  %ref.i.i = load %"class.std::__1::mutex"*, %"class.std::__1::mutex"** %__m_2.i.i, align 8, !dbg !3320
  call void @_ZNSt3__15mutex4lockEv(%"class.std::__1::mutex"* %ref.i.i), !dbg !3322
  %2 = load i32, i32* @g_i, align 4, !dbg !3323
  %inc = add nsw i32 %2, 1, !dbg !3323
  store i32 %inc, i32* @g_i, align 4, !dbg !3323
  %call.i2.i = invoke %struct._opaque_pthread_t* @pthread_self()
          to label %_ZNSt3__111this_thread6get_idEv.exit unwind label %terminate.lpad.i, !dbg !3324

terminate.lpad.i:                                 ; preds = %entry
  %3 = landingpad { i8*, i32 }
          catch i8* null, !dbg !3329
  %4 = extractvalue { i8*, i32 } %3, 0, !dbg !3329
  call void @__clang_call_terminate(i8* %4) #12, !dbg !3329
  unreachable, !dbg !3329

_ZNSt3__111this_thread6get_idEv.exit:             ; preds = %entry
  store %"class.std::__1::__thread_id"* %retval.i, %"class.std::__1::__thread_id"** %this.addr.i.i10, align 8
  store %struct._opaque_pthread_t* %call.i2.i, %struct._opaque_pthread_t** %__id.addr.i.i, align 8
  %this1.i.i11 = load %"class.std::__1::__thread_id"*, %"class.std::__1::__thread_id"** %this.addr.i.i10, align 8
  %5 = load %struct._opaque_pthread_t*, %struct._opaque_pthread_t** %__id.addr.i.i, align 8, !dbg !3331
  store %"class.std::__1::__thread_id"* %this1.i.i11, %"class.std::__1::__thread_id"** %this.addr.i.i.i, align 8
  store %struct._opaque_pthread_t* %5, %struct._opaque_pthread_t** %__id.addr.i.i.i, align 8
  %this1.i.i.i = load %"class.std::__1::__thread_id"*, %"class.std::__1::__thread_id"** %this.addr.i.i.i, align 8
  %__id_.i.i.i = getelementptr inbounds %"class.std::__1::__thread_id", %"class.std::__1::__thread_id"* %this1.i.i.i, i32 0, i32 0, !dbg !3332
  %6 = load %struct._opaque_pthread_t*, %struct._opaque_pthread_t** %__id.addr.i.i.i, align 8, !dbg !3333
  store %struct._opaque_pthread_t* %6, %struct._opaque_pthread_t** %__id_.i.i.i, align 8, !dbg !3332
  %coerce.dive.i = getelementptr inbounds %"class.std::__1::__thread_id", %"class.std::__1::__thread_id"* %retval.i, i32 0, i32 0, !dbg !3334
  %7 = load %struct._opaque_pthread_t*, %struct._opaque_pthread_t** %coerce.dive.i, align 8, !dbg !3334
  %coerce.dive = getelementptr inbounds %"class.std::__1::__thread_id", %"class.std::__1::__thread_id"* %agg.tmp, i32 0, i32 0, !dbg !3336
  store %struct._opaque_pthread_t* %7, %struct._opaque_pthread_t** %coerce.dive, align 8, !dbg !3336
  %coerce.dive1 = getelementptr inbounds %"class.std::__1::__thread_id", %"class.std::__1::__thread_id"* %agg.tmp, i32 0, i32 0, !dbg !3337
  %8 = load %struct._opaque_pthread_t*, %struct._opaque_pthread_t** %coerce.dive1, align 8, !dbg !3337
  %coerce.dive.i12 = getelementptr inbounds %"class.std::__1::__thread_id", %"class.std::__1::__thread_id"* %__id.i, i32 0, i32 0
  store %struct._opaque_pthread_t* %8, %struct._opaque_pthread_t** %coerce.dive.i12, align 8
  store %"class.std::__1::basic_ostream"* @_ZNSt3__14coutE, %"class.std::__1::basic_ostream"** %__os.addr.i, align 8
  %9 = load %"class.std::__1::basic_ostream"*, %"class.std::__1::basic_ostream"** %__os.addr.i, align 8, !dbg !3338
  %__id_.i = getelementptr inbounds %"class.std::__1::__thread_id", %"class.std::__1::__thread_id"* %__id.i, i32 0, i32 0, !dbg !3339
  %10 = load %struct._opaque_pthread_t*, %struct._opaque_pthread_t** %__id_.i, align 8, !dbg !3339
  %11 = bitcast %struct._opaque_pthread_t* %10 to i8*, !dbg !3340
  %call.i13 = invoke dereferenceable(160) %"class.std::__1::basic_ostream"* @_ZNSt3__113basic_ostreamIcNS_11char_traitsIcEEElsEPKv(%"class.std::__1::basic_ostream"* %9, i8* %11)
          to label %_ZNSt3__1lsIcNS_11char_traitsIcEEEERNS_13basic_ostreamIT_T0_EES7_NS_11__thread_idE.exit unwind label %lpad, !dbg !3341

_ZNSt3__1lsIcNS_11char_traitsIcEEEERNS_13basic_ostreamIT_T0_EES7_NS_11__thread_idE.exit: ; preds = %_ZNSt3__111this_thread6get_idEv.exit
  br label %invoke.cont, !dbg !3342

invoke.cont:                                      ; preds = %_ZNSt3__1lsIcNS_11char_traitsIcEEEERNS_13basic_ostreamIT_T0_EES7_NS_11__thread_idE.exit
  %call4 = invoke dereferenceable(160) %"class.std::__1::basic_ostream"* @_ZNSt3__1lsINS_11char_traitsIcEEEERNS_13basic_ostreamIcT_EES6_PKc(%"class.std::__1::basic_ostream"* dereferenceable(160) %call.i13, i8* getelementptr inbounds ([3 x i8], [3 x i8]* @.str, i32 0, i32 0))
          to label %invoke.cont3 unwind label %lpad, !dbg !3343

invoke.cont3:                                     ; preds = %invoke.cont
  %12 = load i32, i32* @g_i, align 4, !dbg !3344
  %call6 = invoke dereferenceable(160) %"class.std::__1::basic_ostream"* @_ZNSt3__113basic_ostreamIcNS_11char_traitsIcEEElsEi(%"class.std::__1::basic_ostream"* %call4, i32 %12)
          to label %invoke.cont5 unwind label %lpad, !dbg !3346

invoke.cont5:                                     ; preds = %invoke.cont3
  %call8 = invoke dereferenceable(160) %"class.std::__1::basic_ostream"* @_ZNSt3__1lsINS_11char_traitsIcEEEERNS_13basic_ostreamIcT_EES6_c(%"class.std::__1::basic_ostream"* dereferenceable(160) %call6, i8 signext 10)
          to label %invoke.cont7 unwind label %lpad, !dbg !3347

invoke.cont7:                                     ; preds = %invoke.cont5
  store %"class.std::__1::lock_guard"* %lock, %"class.std::__1::lock_guard"** %this.addr.i15, align 8
  %this1.i16 = load %"class.std::__1::lock_guard"*, %"class.std::__1::lock_guard"** %this.addr.i15, align 8
  store %"class.std::__1::lock_guard"* %this1.i16, %"class.std::__1::lock_guard"** %this.addr.i.i14, align 8
  %this1.i.i17 = load %"class.std::__1::lock_guard"*, %"class.std::__1::lock_guard"** %this.addr.i.i14, align 8
  %__m_.i.i18 = getelementptr inbounds %"class.std::__1::lock_guard", %"class.std::__1::lock_guard"* %this1.i.i17, i32 0, i32 0, !dbg !3349
  %ref.i.i19 = load %"class.std::__1::mutex"*, %"class.std::__1::mutex"** %__m_.i.i18, align 8, !dbg !3349
  call void @_ZNSt3__15mutex6unlockEv(%"class.std::__1::mutex"* %ref.i.i19) #2, !dbg !3351
  ret void, !dbg !3352

lpad:                                             ; preds = %_ZNSt3__111this_thread6get_idEv.exit, %invoke.cont5, %invoke.cont3, %invoke.cont
  %13 = landingpad { i8*, i32 }
          cleanup, !dbg !3353
  %14 = extractvalue { i8*, i32 } %13, 0, !dbg !3353
  store i8* %14, i8** %exn.slot, align 8, !dbg !3353
  %15 = extractvalue { i8*, i32 } %13, 1, !dbg !3353
  store i32 %15, i32* %ehselector.slot, align 4, !dbg !3353
  store %"class.std::__1::lock_guard"* %lock, %"class.std::__1::lock_guard"** %this.addr.i21, align 8
  %this1.i22 = load %"class.std::__1::lock_guard"*, %"class.std::__1::lock_guard"** %this.addr.i21, align 8
  store %"class.std::__1::lock_guard"* %this1.i22, %"class.std::__1::lock_guard"** %this.addr.i.i20, align 8
  %this1.i.i23 = load %"class.std::__1::lock_guard"*, %"class.std::__1::lock_guard"** %this.addr.i.i20, align 8
  %__m_.i.i24 = getelementptr inbounds %"class.std::__1::lock_guard", %"class.std::__1::lock_guard"* %this1.i.i23, i32 0, i32 0, !dbg !3354
  %ref.i.i25 = load %"class.std::__1::mutex"*, %"class.std::__1::mutex"** %__m_.i.i24, align 8, !dbg !3354
  call void @_ZNSt3__15mutex6unlockEv(%"class.std::__1::mutex"* %ref.i.i25) #2, !dbg !3355
  br label %eh.resume, !dbg !3353

eh.resume:                                        ; preds = %lpad
  %exn = load i8*, i8** %exn.slot, align 8, !dbg !3356
  %sel = load i32, i32* %ehselector.slot, align 4, !dbg !3356
  %lpad.val = insertvalue { i8*, i32 } undef, i8* %exn, 0, !dbg !3356
  %lpad.val9 = insertvalue { i8*, i32 } %lpad.val, i32 %sel, 1, !dbg !3356
  resume { i8*, i32 } %lpad.val9, !dbg !3356
}

; Function Attrs: nounwind readnone
declare void @llvm.dbg.declare(metadata, metadata, metadata) #3

; Function Attrs: noinline ssp uwtable
define linkonce_odr dereferenceable(160) %"class.std::__1::basic_ostream"* @_ZNSt3__1lsINS_11char_traitsIcEEEERNS_13basic_ostreamIcT_EES6_c(%"class.std::__1::basic_ostream"* dereferenceable(160) %__os, i8 signext %__c) #0 !dbg !3357 {
entry:
  %__os.addr = alloca %"class.std::__1::basic_ostream"*, align 8
  %__c.addr = alloca i8, align 1
  store %"class.std::__1::basic_ostream"* %__os, %"class.std::__1::basic_ostream"** %__os.addr, align 8
  call void @llvm.dbg.declare(metadata %"class.std::__1::basic_ostream"** %__os.addr, metadata !3361, metadata !3234), !dbg !3362
  store i8 %__c, i8* %__c.addr, align 1
  call void @llvm.dbg.declare(metadata i8* %__c.addr, metadata !3363, metadata !3234), !dbg !3364
  %0 = load %"class.std::__1::basic_ostream"*, %"class.std::__1::basic_ostream"** %__os.addr, align 8, !dbg !3365
  %call = call dereferenceable(160) %"class.std::__1::basic_ostream"* @_ZNSt3__124__put_character_sequenceIcNS_11char_traitsIcEEEERNS_13basic_ostreamIT_T0_EES7_PKS4_m(%"class.std::__1::basic_ostream"* dereferenceable(160) %0, i8* %__c.addr, i64 1), !dbg !3366
  ret %"class.std::__1::basic_ostream"* %call, !dbg !3367
}

; Function Attrs: noinline ssp uwtable
define linkonce_odr dereferenceable(160) %"class.std::__1::basic_ostream"* @_ZNSt3__1lsINS_11char_traitsIcEEEERNS_13basic_ostreamIcT_EES6_PKc(%"class.std::__1::basic_ostream"* dereferenceable(160) %__os, i8* %__str) #0 !dbg !3368 {
entry:
  %__os.addr = alloca %"class.std::__1::basic_ostream"*, align 8
  %__str.addr = alloca i8*, align 8
  store %"class.std::__1::basic_ostream"* %__os, %"class.std::__1::basic_ostream"** %__os.addr, align 8
  call void @llvm.dbg.declare(metadata %"class.std::__1::basic_ostream"** %__os.addr, metadata !3371, metadata !3234), !dbg !3372
  store i8* %__str, i8** %__str.addr, align 8
  call void @llvm.dbg.declare(metadata i8** %__str.addr, metadata !3373, metadata !3234), !dbg !3374
  %0 = load %"class.std::__1::basic_ostream"*, %"class.std::__1::basic_ostream"** %__os.addr, align 8, !dbg !3375
  %1 = load i8*, i8** %__str.addr, align 8, !dbg !3376
  %2 = load i8*, i8** %__str.addr, align 8, !dbg !3377
  %call = call i64 @_ZNSt3__111char_traitsIcE6lengthEPKc(i8* %2) #2, !dbg !3378
  %call1 = call dereferenceable(160) %"class.std::__1::basic_ostream"* @_ZNSt3__124__put_character_sequenceIcNS_11char_traitsIcEEEERNS_13basic_ostreamIT_T0_EES7_PKS4_m(%"class.std::__1::basic_ostream"* dereferenceable(160) %0, i8* %1, i64 %call), !dbg !3379
  ret %"class.std::__1::basic_ostream"* %call1, !dbg !3381
}

declare i32 @__gxx_personality_v0(...)

declare dereferenceable(160) %"class.std::__1::basic_ostream"* @_ZNSt3__113basic_ostreamIcNS_11char_traitsIcEEElsEi(%"class.std::__1::basic_ostream"*, i32) #4

; Function Attrs: noinline norecurse ssp uwtable
define i32 @main() #5 personality i8* bitcast (i32 (...)* @__gxx_personality_v0 to i8*) !dbg !3382 {
entry:
  %t1 = alloca %"class.std::__1::thread", align 8
  %t2 = alloca %"class.std::__1::thread", align 8
  %exn.slot = alloca i8*
  %ehselector.slot = alloca i32
  %call = call dereferenceable(160) %"class.std::__1::basic_ostream"* @_ZNSt3__1lsINS_11char_traitsIcEEEERNS_13basic_ostreamIcT_EES6_PKc(%"class.std::__1::basic_ostream"* dereferenceable(160) @_ZNSt3__14coutE, i8* getelementptr inbounds ([5 x i8], [5 x i8]* @__func__.main, i32 0, i32 0)), !dbg !3383
  %call1 = call dereferenceable(160) %"class.std::__1::basic_ostream"* @_ZNSt3__1lsINS_11char_traitsIcEEEERNS_13basic_ostreamIcT_EES6_PKc(%"class.std::__1::basic_ostream"* dereferenceable(160) %call, i8* getelementptr inbounds ([3 x i8], [3 x i8]* @.str, i32 0, i32 0)), !dbg !3384
  %0 = load i32, i32* @g_i, align 4, !dbg !3386
  %call2 = call dereferenceable(160) %"class.std::__1::basic_ostream"* @_ZNSt3__113basic_ostreamIcNS_11char_traitsIcEEElsEi(%"class.std::__1::basic_ostream"* %call1, i32 %0), !dbg !3387
  %call3 = call dereferenceable(160) %"class.std::__1::basic_ostream"* @_ZNSt3__1lsINS_11char_traitsIcEEEERNS_13basic_ostreamIcT_EES6_c(%"class.std::__1::basic_ostream"* dereferenceable(160) %call2, i8 signext 10), !dbg !3389
  call void @llvm.dbg.declare(metadata %"class.std::__1::thread"* %t1, metadata !3391, metadata !3234), !dbg !3437
  call void @_ZNSt3__16threadC1IRFvvEJEvEEOT_DpOT0_(%"class.std::__1::thread"* %t1, void ()* @_Z14safe_incrementv), !dbg !3437
  call void @llvm.dbg.declare(metadata %"class.std::__1::thread"* %t2, metadata !3438, metadata !3234), !dbg !3439
  invoke void @_ZNSt3__16threadC1IRFvvEJEvEEOT_DpOT0_(%"class.std::__1::thread"* %t2, void ()* @_Z14safe_incrementv)
          to label %invoke.cont unwind label %lpad, !dbg !3439

invoke.cont:                                      ; preds = %entry
  invoke void @_ZNSt3__16thread4joinEv(%"class.std::__1::thread"* %t1)
          to label %invoke.cont5 unwind label %lpad4, !dbg !3440

invoke.cont5:                                     ; preds = %invoke.cont
  invoke void @_ZNSt3__16thread4joinEv(%"class.std::__1::thread"* %t2)
          to label %invoke.cont6 unwind label %lpad4, !dbg !3441

invoke.cont6:                                     ; preds = %invoke.cont5
  %call8 = invoke dereferenceable(160) %"class.std::__1::basic_ostream"* @_ZNSt3__1lsINS_11char_traitsIcEEEERNS_13basic_ostreamIcT_EES6_PKc(%"class.std::__1::basic_ostream"* dereferenceable(160) @_ZNSt3__14coutE, i8* getelementptr inbounds ([5 x i8], [5 x i8]* @__func__.main, i32 0, i32 0))
          to label %invoke.cont7 unwind label %lpad4, !dbg !3442

invoke.cont7:                                     ; preds = %invoke.cont6
  %call10 = invoke dereferenceable(160) %"class.std::__1::basic_ostream"* @_ZNSt3__1lsINS_11char_traitsIcEEEERNS_13basic_ostreamIcT_EES6_PKc(%"class.std::__1::basic_ostream"* dereferenceable(160) %call8, i8* getelementptr inbounds ([3 x i8], [3 x i8]* @.str, i32 0, i32 0))
          to label %invoke.cont9 unwind label %lpad4, !dbg !3443

invoke.cont9:                                     ; preds = %invoke.cont7
  %1 = load i32, i32* @g_i, align 4, !dbg !3444
  %call12 = invoke dereferenceable(160) %"class.std::__1::basic_ostream"* @_ZNSt3__113basic_ostreamIcNS_11char_traitsIcEEElsEi(%"class.std::__1::basic_ostream"* %call10, i32 %1)
          to label %invoke.cont11 unwind label %lpad4, !dbg !3445

invoke.cont11:                                    ; preds = %invoke.cont9
  %call14 = invoke dereferenceable(160) %"class.std::__1::basic_ostream"* @_ZNSt3__1lsINS_11char_traitsIcEEEERNS_13basic_ostreamIcT_EES6_c(%"class.std::__1::basic_ostream"* dereferenceable(160) %call12, i8 signext 10)
          to label %invoke.cont13 unwind label %lpad4, !dbg !3446

invoke.cont13:                                    ; preds = %invoke.cont11
  call void @_ZNSt3__16threadD1Ev(%"class.std::__1::thread"* %t2) #2, !dbg !3447
  call void @_ZNSt3__16threadD1Ev(%"class.std::__1::thread"* %t1) #2, !dbg !3448
  ret i32 0, !dbg !3447

lpad:                                             ; preds = %entry
  %2 = landingpad { i8*, i32 }
          cleanup, !dbg !3450
  %3 = extractvalue { i8*, i32 } %2, 0, !dbg !3450
  store i8* %3, i8** %exn.slot, align 8, !dbg !3450
  %4 = extractvalue { i8*, i32 } %2, 1, !dbg !3450
  store i32 %4, i32* %ehselector.slot, align 4, !dbg !3450
  br label %ehcleanup, !dbg !3450

lpad4:                                            ; preds = %invoke.cont11, %invoke.cont9, %invoke.cont7, %invoke.cont6, %invoke.cont5, %invoke.cont
  %5 = landingpad { i8*, i32 }
          cleanup, !dbg !3451
  %6 = extractvalue { i8*, i32 } %5, 0, !dbg !3451
  store i8* %6, i8** %exn.slot, align 8, !dbg !3451
  %7 = extractvalue { i8*, i32 } %5, 1, !dbg !3451
  store i32 %7, i32* %ehselector.slot, align 4, !dbg !3451
  call void @_ZNSt3__16threadD1Ev(%"class.std::__1::thread"* %t2) #2, !dbg !3451
  br label %ehcleanup, !dbg !3451

ehcleanup:                                        ; preds = %lpad4, %lpad
  call void @_ZNSt3__16threadD1Ev(%"class.std::__1::thread"* %t1) #2, !dbg !3452
  br label %eh.resume, !dbg !3452

eh.resume:                                        ; preds = %ehcleanup
  %exn = load i8*, i8** %exn.slot, align 8, !dbg !3453
  %sel = load i32, i32* %ehselector.slot, align 4, !dbg !3453
  %lpad.val = insertvalue { i8*, i32 } undef, i8* %exn, 0, !dbg !3453
  %lpad.val15 = insertvalue { i8*, i32 } %lpad.val, i32 %sel, 1, !dbg !3453
  resume { i8*, i32 } %lpad.val15, !dbg !3453
}

; Function Attrs: noinline ssp uwtable
define linkonce_odr hidden void @_ZNSt3__16threadC1IRFvvEJEvEEOT_DpOT0_(%"class.std::__1::thread"* %this, void ()* %__f) unnamed_addr #0 align 2 !dbg !3455 {
entry:
  %this.addr = alloca %"class.std::__1::thread"*, align 8
  %__f.addr = alloca void ()*, align 8
  store %"class.std::__1::thread"* %this, %"class.std::__1::thread"** %this.addr, align 8
  call void @llvm.dbg.declare(metadata %"class.std::__1::thread"** %this.addr, metadata !3464, metadata !3234), !dbg !3466
  store void ()* %__f, void ()** %__f.addr, align 8
  call void @llvm.dbg.declare(metadata void ()** %__f.addr, metadata !3467, metadata !3234), !dbg !3468
  %this1 = load %"class.std::__1::thread"*, %"class.std::__1::thread"** %this.addr, align 8
  %0 = load void ()*, void ()** %__f.addr, align 8, !dbg !3469
  call void @_ZNSt3__16threadC2IRFvvEJEvEEOT_DpOT0_(%"class.std::__1::thread"* %this1, void ()* %0), !dbg !3469
  ret void, !dbg !3470
}

declare void @_ZNSt3__16thread4joinEv(%"class.std::__1::thread"*) #4

; Function Attrs: nounwind
declare void @_ZNSt3__16threadD1Ev(%"class.std::__1::thread"*) unnamed_addr #1

; Function Attrs: noinline noreturn nounwind
define linkonce_odr hidden void @__clang_call_terminate(i8*) #6 {
  %2 = call i8* @__cxa_begin_catch(i8* %0) #2
  call void @_ZSt9terminatev() #12
  unreachable
}

declare i8* @__cxa_begin_catch(i8*)

declare void @_ZSt9terminatev()

declare %struct._opaque_pthread_t* @pthread_self() #4

declare void @_ZNSt3__15mutex4lockEv(%"class.std::__1::mutex"*) #4

; Function Attrs: nounwind
declare void @_ZNSt3__15mutex6unlockEv(%"class.std::__1::mutex"*) #1

declare dereferenceable(160) %"class.std::__1::basic_ostream"* @_ZNSt3__113basic_ostreamIcNS_11char_traitsIcEEElsEPKv(%"class.std::__1::basic_ostream"*, i8*) #4

; Function Attrs: noinline ssp uwtable
define linkonce_odr dereferenceable(160) %"class.std::__1::basic_ostream"* @_ZNSt3__124__put_character_sequenceIcNS_11char_traitsIcEEEERNS_13basic_ostreamIT_T0_EES7_PKS4_m(%"class.std::__1::basic_ostream"* dereferenceable(160) %__os, i8* %__str, i64 %__len) #0 personality i8* bitcast (i32 (...)* @__gxx_personality_v0 to i8*) !dbg !1245 {
entry:
  %this.addr.i.i.i47 = alloca %"class.std::__1::ctype"*, align 8
  call void @llvm.dbg.declare(metadata %"class.std::__1::ctype"** %this.addr.i.i.i47, metadata !3471, metadata !3234), !dbg !3562
  %__c.addr.i.i.i = alloca i8, align 1
  call void @llvm.dbg.declare(metadata i8* %__c.addr.i.i.i, metadata !3574, metadata !3234), !dbg !3575
  %__l.addr.i.i.i = alloca %"class.std::__1::locale"*, align 8
  call void @llvm.dbg.declare(metadata %"class.std::__1::locale"** %__l.addr.i.i.i, metadata !3576, metadata !3234), !dbg !3583
  %this.addr.i.i48 = alloca %"class.std::__1::basic_ios"*, align 8
  call void @llvm.dbg.declare(metadata %"class.std::__1::basic_ios"** %this.addr.i.i48, metadata !3585, metadata !3234), !dbg !3587
  %__c.addr.i.i = alloca i8, align 1
  call void @llvm.dbg.declare(metadata i8* %__c.addr.i.i, metadata !3588, metadata !3234), !dbg !3589
  %ref.tmp.i.i = alloca %"class.std::__1::locale", align 8
  %exn.slot.i.i = alloca i8*
  %ehselector.slot.i.i = alloca i32
  %this.addr.i49 = alloca %"class.std::__1::basic_ios"*, align 8
  call void @llvm.dbg.declare(metadata %"class.std::__1::basic_ios"** %this.addr.i49, metadata !3590, metadata !3234), !dbg !3591
  %this.addr.i45 = alloca %"class.std::__1::ostreambuf_iterator"*, align 8
  call void @llvm.dbg.declare(metadata %"class.std::__1::ostreambuf_iterator"** %this.addr.i45, metadata !3592, metadata !3234), !dbg !3595
  %this.addr.i43 = alloca %"class.std::__1::ios_base"*, align 8
  call void @llvm.dbg.declare(metadata %"class.std::__1::ios_base"** %this.addr.i43, metadata !3598, metadata !3234), !dbg !3601
  %this.addr.i.i39 = alloca %"class.std::__1::ios_base"*, align 8
  call void @llvm.dbg.declare(metadata %"class.std::__1::ios_base"** %this.addr.i.i39, metadata !3603, metadata !3234), !dbg !3606
  %__state.addr.i.i = alloca i32, align 4
  call void @llvm.dbg.declare(metadata i32* %__state.addr.i.i, metadata !3610, metadata !3234), !dbg !3611
  %this.addr.i40 = alloca %"class.std::__1::basic_ios"*, align 8
  call void @llvm.dbg.declare(metadata %"class.std::__1::basic_ios"** %this.addr.i40, metadata !3612, metadata !3234), !dbg !3614
  %__state.addr.i = alloca i32, align 4
  call void @llvm.dbg.declare(metadata i32* %__state.addr.i, metadata !3615, metadata !3234), !dbg !3616
  %this.addr.i.i.i.i = alloca %"class.std::__1::ios_base"*, align 8
  call void @llvm.dbg.declare(metadata %"class.std::__1::ios_base"** %this.addr.i.i.i.i, metadata !3617, metadata !3234), !dbg !3619
  %this.addr.i.i.i = alloca %"class.std::__1::basic_ios"*, align 8
  call void @llvm.dbg.declare(metadata %"class.std::__1::basic_ios"** %this.addr.i.i.i, metadata !3627, metadata !3234), !dbg !3628
  %this.addr.i.i = alloca %"class.std::__1::ostreambuf_iterator"*, align 8
  call void @llvm.dbg.declare(metadata %"class.std::__1::ostreambuf_iterator"** %this.addr.i.i, metadata !3629, metadata !3234), !dbg !3631
  %__s.addr.i.i = alloca %"class.std::__1::basic_ostream"*, align 8
  call void @llvm.dbg.declare(metadata %"class.std::__1::basic_ostream"** %__s.addr.i.i, metadata !3632, metadata !3234), !dbg !3633
  %this.addr.i37 = alloca %"class.std::__1::ostreambuf_iterator"*, align 8
  call void @llvm.dbg.declare(metadata %"class.std::__1::ostreambuf_iterator"** %this.addr.i37, metadata !3634, metadata !3234), !dbg !3635
  %__s.addr.i = alloca %"class.std::__1::basic_ostream"*, align 8
  call void @llvm.dbg.declare(metadata %"class.std::__1::basic_ostream"** %__s.addr.i, metadata !3636, metadata !3234), !dbg !3637
  %this.addr.i = alloca %"class.std::__1::basic_ostream<char, std::__1::char_traits<char> >::sentry"*, align 8
  call void @llvm.dbg.declare(metadata %"class.std::__1::basic_ostream<char, std::__1::char_traits<char> >::sentry"** %this.addr.i, metadata !3638, metadata !3234), !dbg !3665
  %__os.addr = alloca %"class.std::__1::basic_ostream"*, align 8
  %__str.addr = alloca i8*, align 8
  %__len.addr = alloca i64, align 8
  %__s = alloca %"class.std::__1::basic_ostream<char, std::__1::char_traits<char> >::sentry", align 8
  %exn.slot = alloca i8*
  %ehselector.slot = alloca i32
  %ref.tmp = alloca %"class.std::__1::ostreambuf_iterator", align 8
  %agg.tmp = alloca %"class.std::__1::ostreambuf_iterator", align 8
  store %"class.std::__1::basic_ostream"* %__os, %"class.std::__1::basic_ostream"** %__os.addr, align 8
  call void @llvm.dbg.declare(metadata %"class.std::__1::basic_ostream"** %__os.addr, metadata !3667, metadata !3234), !dbg !3668
  store i8* %__str, i8** %__str.addr, align 8
  call void @llvm.dbg.declare(metadata i8** %__str.addr, metadata !3669, metadata !3234), !dbg !3670
  store i64 %__len, i64* %__len.addr, align 8
  call void @llvm.dbg.declare(metadata i64* %__len.addr, metadata !3671, metadata !3234), !dbg !3672
  call void @llvm.dbg.declare(metadata %"class.std::__1::basic_ostream<char, std::__1::char_traits<char> >::sentry"* %__s, metadata !3673, metadata !3234), !dbg !3674
  %0 = load %"class.std::__1::basic_ostream"*, %"class.std::__1::basic_ostream"** %__os.addr, align 8, !dbg !3675
  invoke void @_ZNSt3__113basic_ostreamIcNS_11char_traitsIcEEE6sentryC1ERS3_(%"class.std::__1::basic_ostream<char, std::__1::char_traits<char> >::sentry"* %__s, %"class.std::__1::basic_ostream"* dereferenceable(160) %0)
          to label %invoke.cont unwind label %lpad, !dbg !3674

invoke.cont:                                      ; preds = %entry
  store %"class.std::__1::basic_ostream<char, std::__1::char_traits<char> >::sentry"* %__s, %"class.std::__1::basic_ostream<char, std::__1::char_traits<char> >::sentry"** %this.addr.i, align 8
  %this1.i = load %"class.std::__1::basic_ostream<char, std::__1::char_traits<char> >::sentry"*, %"class.std::__1::basic_ostream<char, std::__1::char_traits<char> >::sentry"** %this.addr.i, align 8
  %__ok_.i = getelementptr inbounds %"class.std::__1::basic_ostream<char, std::__1::char_traits<char> >::sentry", %"class.std::__1::basic_ostream<char, std::__1::char_traits<char> >::sentry"* %this1.i, i32 0, i32 0, !dbg !3676
  %1 = load i8, i8* %__ok_.i, align 8, !dbg !3676
  %tobool.i = trunc i8 %1 to i1, !dbg !3676
  br label %invoke.cont2, !dbg !3677

invoke.cont2:                                     ; preds = %invoke.cont
  br i1 %tobool.i, label %if.then, label %if.end27, !dbg !3678

if.then:                                          ; preds = %invoke.cont2
  %2 = load %"class.std::__1::basic_ostream"*, %"class.std::__1::basic_ostream"** %__os.addr, align 8, !dbg !3680
  store %"class.std::__1::ostreambuf_iterator"* %agg.tmp, %"class.std::__1::ostreambuf_iterator"** %this.addr.i37, align 8
  store %"class.std::__1::basic_ostream"* %2, %"class.std::__1::basic_ostream"** %__s.addr.i, align 8
  %this1.i38 = load %"class.std::__1::ostreambuf_iterator"*, %"class.std::__1::ostreambuf_iterator"** %this.addr.i37, align 8
  %3 = load %"class.std::__1::basic_ostream"*, %"class.std::__1::basic_ostream"** %__s.addr.i, align 8, !dbg !3681
  store %"class.std::__1::ostreambuf_iterator"* %this1.i38, %"class.std::__1::ostreambuf_iterator"** %this.addr.i.i, align 8
  store %"class.std::__1::basic_ostream"* %3, %"class.std::__1::basic_ostream"** %__s.addr.i.i, align 8
  %this1.i.i = load %"class.std::__1::ostreambuf_iterator"*, %"class.std::__1::ostreambuf_iterator"** %this.addr.i.i, align 8
  %4 = bitcast %"class.std::__1::ostreambuf_iterator"* %this1.i.i to %"struct.std::__1::iterator"*, !dbg !3682
  %__sbuf_.i.i = getelementptr inbounds %"class.std::__1::ostreambuf_iterator", %"class.std::__1::ostreambuf_iterator"* %this1.i.i, i32 0, i32 0, !dbg !3683
  %5 = load %"class.std::__1::basic_ostream"*, %"class.std::__1::basic_ostream"** %__s.addr.i.i, align 8, !dbg !3684
  %6 = bitcast %"class.std::__1::basic_ostream"* %5 to i8**, !dbg !3684
  %vtable.i.i = load i8*, i8** %6, align 8, !dbg !3684
  %vbase.offset.ptr.i.i = getelementptr i8, i8* %vtable.i.i, i64 -24, !dbg !3684
  %7 = bitcast i8* %vbase.offset.ptr.i.i to i64*, !dbg !3684
  %vbase.offset.i.i = load i64, i64* %7, align 8, !dbg !3684
  %8 = bitcast %"class.std::__1::basic_ostream"* %5 to i8*, !dbg !3684
  %add.ptr.i.i = getelementptr inbounds i8, i8* %8, i64 %vbase.offset.i.i, !dbg !3684
  %9 = bitcast i8* %add.ptr.i.i to %"class.std::__1::basic_ios"*, !dbg !3684
  store %"class.std::__1::basic_ios"* %9, %"class.std::__1::basic_ios"** %this.addr.i.i.i, align 8
  %this1.i.i.i = load %"class.std::__1::basic_ios"*, %"class.std::__1::basic_ios"** %this.addr.i.i.i, align 8
  %10 = bitcast %"class.std::__1::basic_ios"* %this1.i.i.i to %"class.std::__1::ios_base"*, !dbg !3685
  store %"class.std::__1::ios_base"* %10, %"class.std::__1::ios_base"** %this.addr.i.i.i.i, align 8
  %this1.i.i.i.i = load %"class.std::__1::ios_base"*, %"class.std::__1::ios_base"** %this.addr.i.i.i.i, align 8
  %__rdbuf_.i.i.i.i = getelementptr inbounds %"class.std::__1::ios_base", %"class.std::__1::ios_base"* %this1.i.i.i.i, i32 0, i32 6, !dbg !3686
  %11 = load i8*, i8** %__rdbuf_.i.i.i.i, align 8, !dbg !3686
  %12 = bitcast i8* %11 to %"class.std::__1::basic_streambuf"*, !dbg !3687
  store %"class.std::__1::basic_streambuf"* %12, %"class.std::__1::basic_streambuf"** %__sbuf_.i.i, align 8, !dbg !3688
  %13 = load i8*, i8** %__str.addr, align 8, !dbg !3690
  %14 = load %"class.std::__1::basic_ostream"*, %"class.std::__1::basic_ostream"** %__os.addr, align 8, !dbg !3691
  %15 = bitcast %"class.std::__1::basic_ostream"* %14 to i8**, !dbg !3691
  %vtable = load i8*, i8** %15, align 8, !dbg !3691
  %vbase.offset.ptr = getelementptr i8, i8* %vtable, i64 -24, !dbg !3691
  %16 = bitcast i8* %vbase.offset.ptr to i64*, !dbg !3691
  %vbase.offset = load i64, i64* %16, align 8, !dbg !3691
  %17 = bitcast %"class.std::__1::basic_ostream"* %14 to i8*, !dbg !3691
  %add.ptr = getelementptr inbounds i8, i8* %17, i64 %vbase.offset, !dbg !3691
  %18 = bitcast i8* %add.ptr to %"class.std::__1::ios_base"*, !dbg !3691
  store %"class.std::__1::ios_base"* %18, %"class.std::__1::ios_base"** %this.addr.i43, align 8
  %this1.i44 = load %"class.std::__1::ios_base"*, %"class.std::__1::ios_base"** %this.addr.i43, align 8
  %__fmtflags_.i = getelementptr inbounds %"class.std::__1::ios_base", %"class.std::__1::ios_base"* %this1.i44, i32 0, i32 1, !dbg !3692
  %19 = load i32, i32* %__fmtflags_.i, align 8, !dbg !3692
  br label %invoke.cont3, !dbg !3693

invoke.cont3:                                     ; preds = %if.then
  %and = and i32 %19, 176, !dbg !3694
  %cmp = icmp eq i32 %and, 32, !dbg !3695
  br i1 %cmp, label %cond.true, label %cond.false, !dbg !3696

cond.true:                                        ; preds = %invoke.cont3
  %20 = load i8*, i8** %__str.addr, align 8, !dbg !3697
  %21 = load i64, i64* %__len.addr, align 8, !dbg !3698
  %add.ptr5 = getelementptr inbounds i8, i8* %20, i64 %21, !dbg !3699
  br label %cond.end, !dbg !3700

cond.false:                                       ; preds = %invoke.cont3
  %22 = load i8*, i8** %__str.addr, align 8, !dbg !3702
  br label %cond.end, !dbg !3703

cond.end:                                         ; preds = %cond.false, %cond.true
  %cond = phi i8* [ %add.ptr5, %cond.true ], [ %22, %cond.false ], !dbg !3705
  %23 = load i8*, i8** %__str.addr, align 8, !dbg !3707
  %24 = load i64, i64* %__len.addr, align 8, !dbg !3708
  %add.ptr6 = getelementptr inbounds i8, i8* %23, i64 %24, !dbg !3709
  %25 = load %"class.std::__1::basic_ostream"*, %"class.std::__1::basic_ostream"** %__os.addr, align 8, !dbg !3710
  %26 = bitcast %"class.std::__1::basic_ostream"* %25 to i8**, !dbg !3710
  %vtable7 = load i8*, i8** %26, align 8, !dbg !3710
  %vbase.offset.ptr8 = getelementptr i8, i8* %vtable7, i64 -24, !dbg !3710
  %27 = bitcast i8* %vbase.offset.ptr8 to i64*, !dbg !3710
  %vbase.offset9 = load i64, i64* %27, align 8, !dbg !3710
  %28 = bitcast %"class.std::__1::basic_ostream"* %25 to i8*, !dbg !3710
  %add.ptr10 = getelementptr inbounds i8, i8* %28, i64 %vbase.offset9, !dbg !3710
  %29 = bitcast i8* %add.ptr10 to %"class.std::__1::ios_base"*, !dbg !3710
  %30 = load %"class.std::__1::basic_ostream"*, %"class.std::__1::basic_ostream"** %__os.addr, align 8, !dbg !3711
  %31 = bitcast %"class.std::__1::basic_ostream"* %30 to i8**, !dbg !3711
  %vtable11 = load i8*, i8** %31, align 8, !dbg !3711
  %vbase.offset.ptr12 = getelementptr i8, i8* %vtable11, i64 -24, !dbg !3711
  %32 = bitcast i8* %vbase.offset.ptr12 to i64*, !dbg !3711
  %vbase.offset13 = load i64, i64* %32, align 8, !dbg !3711
  %33 = bitcast %"class.std::__1::basic_ostream"* %30 to i8*, !dbg !3711
  %add.ptr14 = getelementptr inbounds i8, i8* %33, i64 %vbase.offset13, !dbg !3711
  %34 = bitcast i8* %add.ptr14 to %"class.std::__1::basic_ios"*, !dbg !3711
  store %"class.std::__1::basic_ios"* %34, %"class.std::__1::basic_ios"** %this.addr.i49, align 8
  %this1.i50 = load %"class.std::__1::basic_ios"*, %"class.std::__1::basic_ios"** %this.addr.i49, align 8
  %call.i = call i32 @_ZNSt3__111char_traitsIcE3eofEv() #2, !dbg !3712
  %__fill_.i = getelementptr inbounds %"class.std::__1::basic_ios", %"class.std::__1::basic_ios"* %this1.i50, i32 0, i32 2, !dbg !3713
  %35 = load i32, i32* %__fill_.i, align 8, !dbg !3713
  %call2.i = call zeroext i1 @_ZNSt3__111char_traitsIcE11eq_int_typeEii(i32 %call.i, i32 %35) #2, !dbg !3714
  br i1 %call2.i, label %if.then.i, label %_ZNKSt3__19basic_iosIcNS_11char_traitsIcEEE4fillEv.exit, !dbg !3716

if.then.i:                                        ; preds = %cond.end
  store %"class.std::__1::basic_ios"* %this1.i50, %"class.std::__1::basic_ios"** %this.addr.i.i48, align 8
  store i8 32, i8* %__c.addr.i.i, align 1
  %this1.i.i51 = load %"class.std::__1::basic_ios"*, %"class.std::__1::basic_ios"** %this.addr.i.i48, align 8
  %36 = bitcast %"class.std::__1::basic_ios"* %this1.i.i51 to %"class.std::__1::ios_base"*, !dbg !3717
  invoke void @_ZNKSt3__18ios_base6getlocEv(%"class.std::__1::locale"* sret %ref.tmp.i.i, %"class.std::__1::ios_base"* %36)
          to label %.noexc unwind label %lpad1, !dbg !3717

.noexc:                                           ; preds = %if.then.i
  store %"class.std::__1::locale"* %ref.tmp.i.i, %"class.std::__1::locale"** %__l.addr.i.i.i, align 8
  %37 = load %"class.std::__1::locale"*, %"class.std::__1::locale"** %__l.addr.i.i.i, align 8, !dbg !3718
  %call.i5.i.i = invoke %"class.std::__1::locale::facet"* @_ZNKSt3__16locale9use_facetERNS0_2idE(%"class.std::__1::locale"* %37, %"class.std::__1::locale::id"* dereferenceable(16) @_ZNSt3__15ctypeIcE2idE)
          to label %_ZNSt3__19use_facetINS_5ctypeIcEEEERKT_RKNS_6localeE.exit.i.i unwind label %lpad.i.i, !dbg !3719

_ZNSt3__19use_facetINS_5ctypeIcEEEERKT_RKNS_6localeE.exit.i.i: ; preds = %.noexc
  %38 = bitcast %"class.std::__1::locale::facet"* %call.i5.i.i to %"class.std::__1::ctype"*, !dbg !3720
  %39 = load i8, i8* %__c.addr.i.i, align 1, !dbg !3721
  store %"class.std::__1::ctype"* %38, %"class.std::__1::ctype"** %this.addr.i.i.i47, align 8
  store i8 %39, i8* %__c.addr.i.i.i, align 1
  %this1.i.i.i52 = load %"class.std::__1::ctype"*, %"class.std::__1::ctype"** %this.addr.i.i.i47, align 8
  %40 = bitcast %"class.std::__1::ctype"* %this1.i.i.i52 to i8 (%"class.std::__1::ctype"*, i8)***, !dbg !3722
  %vtable.i.i.i = load i8 (%"class.std::__1::ctype"*, i8)**, i8 (%"class.std::__1::ctype"*, i8)*** %40, align 8, !dbg !3722
  %vfn.i.i.i = getelementptr inbounds i8 (%"class.std::__1::ctype"*, i8)*, i8 (%"class.std::__1::ctype"*, i8)** %vtable.i.i.i, i64 7, !dbg !3722
  %41 = load i8 (%"class.std::__1::ctype"*, i8)*, i8 (%"class.std::__1::ctype"*, i8)** %vfn.i.i.i, align 8, !dbg !3722
  %42 = load i8, i8* %__c.addr.i.i.i, align 1, !dbg !3723
  %call.i6.i.i = invoke signext i8 %41(%"class.std::__1::ctype"* %this1.i.i.i52, i8 signext %42)
          to label %_ZNKSt3__19basic_iosIcNS_11char_traitsIcEEE5widenEc.exit.i unwind label %lpad.i.i, !dbg !3722

lpad.i.i:                                         ; preds = %_ZNSt3__19use_facetINS_5ctypeIcEEEERKT_RKNS_6localeE.exit.i.i, %.noexc
  %43 = landingpad { i8*, i32 }
          cleanup
          catch i8* null, !dbg !3724
  %44 = extractvalue { i8*, i32 } %43, 0, !dbg !3724
  store i8* %44, i8** %exn.slot.i.i, align 8, !dbg !3724
  %45 = extractvalue { i8*, i32 } %43, 1, !dbg !3724
  store i32 %45, i32* %ehselector.slot.i.i, align 4, !dbg !3724
  call void @_ZNSt3__16localeD1Ev(%"class.std::__1::locale"* %ref.tmp.i.i) #2, !dbg !3725
  %exn.i.i = load i8*, i8** %exn.slot.i.i, align 8, !dbg !3727
  %sel.i.i = load i32, i32* %ehselector.slot.i.i, align 4, !dbg !3727
  %lpad.val.i.i = insertvalue { i8*, i32 } undef, i8* %exn.i.i, 0, !dbg !3727
  %lpad.val4.i.i = insertvalue { i8*, i32 } %lpad.val.i.i, i32 %sel.i.i, 1, !dbg !3727
  br label %lpad1.body

_ZNKSt3__19basic_iosIcNS_11char_traitsIcEEE5widenEc.exit.i: ; preds = %_ZNSt3__19use_facetINS_5ctypeIcEEEERKT_RKNS_6localeE.exit.i.i
  call void @_ZNSt3__16localeD1Ev(%"class.std::__1::locale"* %ref.tmp.i.i) #2, !dbg !3729
  %conv.i = sext i8 %call.i6.i.i to i32, !dbg !3731
  %__fill_4.i = getelementptr inbounds %"class.std::__1::basic_ios", %"class.std::__1::basic_ios"* %this1.i50, i32 0, i32 2, !dbg !3732
  store i32 %conv.i, i32* %__fill_4.i, align 8, !dbg !3733
  br label %_ZNKSt3__19basic_iosIcNS_11char_traitsIcEEE4fillEv.exit, !dbg !3732

_ZNKSt3__19basic_iosIcNS_11char_traitsIcEEE4fillEv.exit: ; preds = %cond.end, %_ZNKSt3__19basic_iosIcNS_11char_traitsIcEEE5widenEc.exit.i
  %__fill_5.i = getelementptr inbounds %"class.std::__1::basic_ios", %"class.std::__1::basic_ios"* %this1.i50, i32 0, i32 2, !dbg !3734
  %46 = load i32, i32* %__fill_5.i, align 8, !dbg !3734
  %conv6.i = trunc i32 %46 to i8, !dbg !3734
  br label %invoke.cont15, !dbg !3735

invoke.cont15:                                    ; preds = %_ZNKSt3__19basic_iosIcNS_11char_traitsIcEEE4fillEv.exit
  %coerce.dive = getelementptr inbounds %"class.std::__1::ostreambuf_iterator", %"class.std::__1::ostreambuf_iterator"* %agg.tmp, i32 0, i32 0, !dbg !3736
  %47 = load %"class.std::__1::basic_streambuf"*, %"class.std::__1::basic_streambuf"** %coerce.dive, align 8, !dbg !3736
  %call18 = invoke %"class.std::__1::basic_streambuf"* @_ZNSt3__116__pad_and_outputIcNS_11char_traitsIcEEEENS_19ostreambuf_iteratorIT_T0_EES6_PKS4_S8_S8_RNS_8ios_baseES4_(%"class.std::__1::basic_streambuf"* %47, i8* %13, i8* %cond, i8* %add.ptr6, %"class.std::__1::ios_base"* dereferenceable(136) %29, i8 signext %conv6.i)
          to label %invoke.cont17 unwind label %lpad1, !dbg !3736

invoke.cont17:                                    ; preds = %invoke.cont15
  %coerce.dive19 = getelementptr inbounds %"class.std::__1::ostreambuf_iterator", %"class.std::__1::ostreambuf_iterator"* %ref.tmp, i32 0, i32 0, !dbg !3737
  store %"class.std::__1::basic_streambuf"* %call18, %"class.std::__1::basic_streambuf"** %coerce.dive19, align 8, !dbg !3737
  store %"class.std::__1::ostreambuf_iterator"* %ref.tmp, %"class.std::__1::ostreambuf_iterator"** %this.addr.i45, align 8
  %this1.i46 = load %"class.std::__1::ostreambuf_iterator"*, %"class.std::__1::ostreambuf_iterator"** %this.addr.i45, align 8
  %__sbuf_.i = getelementptr inbounds %"class.std::__1::ostreambuf_iterator", %"class.std::__1::ostreambuf_iterator"* %this1.i46, i32 0, i32 0, !dbg !3738
  %48 = load %"class.std::__1::basic_streambuf"*, %"class.std::__1::basic_streambuf"** %__sbuf_.i, align 8, !dbg !3738
  %cmp.i = icmp eq %"class.std::__1::basic_streambuf"* %48, null, !dbg !3739
  br i1 %cmp.i, label %if.then21, label %if.end, !dbg !3740

if.then21:                                        ; preds = %invoke.cont17
  %49 = load %"class.std::__1::basic_ostream"*, %"class.std::__1::basic_ostream"** %__os.addr, align 8, !dbg !3742
  %50 = bitcast %"class.std::__1::basic_ostream"* %49 to i8**, !dbg !3742
  %vtable22 = load i8*, i8** %50, align 8, !dbg !3742
  %vbase.offset.ptr23 = getelementptr i8, i8* %vtable22, i64 -24, !dbg !3742
  %51 = bitcast i8* %vbase.offset.ptr23 to i64*, !dbg !3742
  %vbase.offset24 = load i64, i64* %51, align 8, !dbg !3742
  %52 = bitcast %"class.std::__1::basic_ostream"* %49 to i8*, !dbg !3742
  %add.ptr25 = getelementptr inbounds i8, i8* %52, i64 %vbase.offset24, !dbg !3742
  %53 = bitcast i8* %add.ptr25 to %"class.std::__1::basic_ios"*, !dbg !3742
  store %"class.std::__1::basic_ios"* %53, %"class.std::__1::basic_ios"** %this.addr.i40, align 8
  store i32 5, i32* %__state.addr.i, align 4
  %this1.i41 = load %"class.std::__1::basic_ios"*, %"class.std::__1::basic_ios"** %this.addr.i40, align 8
  %54 = bitcast %"class.std::__1::basic_ios"* %this1.i41 to %"class.std::__1::ios_base"*, !dbg !3743
  %55 = load i32, i32* %__state.addr.i, align 4, !dbg !3744
  store %"class.std::__1::ios_base"* %54, %"class.std::__1::ios_base"** %this.addr.i.i39, align 8
  store i32 %55, i32* %__state.addr.i.i, align 4
  %this1.i.i42 = load %"class.std::__1::ios_base"*, %"class.std::__1::ios_base"** %this.addr.i.i39, align 8
  %__rdstate_.i.i = getelementptr inbounds %"class.std::__1::ios_base", %"class.std::__1::ios_base"* %this1.i.i42, i32 0, i32 4, !dbg !3745
  %56 = load i32, i32* %__rdstate_.i.i, align 8, !dbg !3745
  %57 = load i32, i32* %__state.addr.i.i, align 4, !dbg !3746
  %or.i.i = or i32 %56, %57, !dbg !3747
  invoke void @_ZNSt3__18ios_base5clearEj(%"class.std::__1::ios_base"* %this1.i.i42, i32 %or.i.i)
          to label %_ZNSt3__19basic_iosIcNS_11char_traitsIcEEE8setstateEj.exit unwind label %lpad1, !dbg !3748

_ZNSt3__19basic_iosIcNS_11char_traitsIcEEE8setstateEj.exit: ; preds = %if.then21
  br label %invoke.cont26, !dbg !3749

invoke.cont26:                                    ; preds = %_ZNSt3__19basic_iosIcNS_11char_traitsIcEEE8setstateEj.exit
  br label %if.end, !dbg !3750

lpad:                                             ; preds = %entry
  %58 = landingpad { i8*, i32 }
          catch i8* null, !dbg !3751
  %59 = extractvalue { i8*, i32 } %58, 0, !dbg !3751
  store i8* %59, i8** %exn.slot, align 8, !dbg !3751
  %60 = extractvalue { i8*, i32 } %58, 1, !dbg !3751
  store i32 %60, i32* %ehselector.slot, align 4, !dbg !3751
  br label %catch, !dbg !3751

lpad1:                                            ; preds = %if.then.i, %if.then21, %invoke.cont15
  %61 = landingpad { i8*, i32 }
          catch i8* null, !dbg !3752
  br label %lpad1.body, !dbg !3752

lpad1.body:                                       ; preds = %lpad.i.i, %lpad1
  %eh.lpad-body = phi { i8*, i32 } [ %61, %lpad1 ], [ %lpad.val4.i.i, %lpad.i.i ]
  %62 = extractvalue { i8*, i32 } %eh.lpad-body, 0, !dbg !3752
  store i8* %62, i8** %exn.slot, align 8, !dbg !3752
  %63 = extractvalue { i8*, i32 } %eh.lpad-body, 1, !dbg !3752
  store i32 %63, i32* %ehselector.slot, align 4, !dbg !3752
  call void @_ZNSt3__113basic_ostreamIcNS_11char_traitsIcEEE6sentryD1Ev(%"class.std::__1::basic_ostream<char, std::__1::char_traits<char> >::sentry"* %__s) #2, !dbg !3754
  br label %catch, !dbg !3754

catch:                                            ; preds = %lpad1.body, %lpad
  %exn = load i8*, i8** %exn.slot, align 8, !dbg !3755
  %64 = call i8* @__cxa_begin_catch(i8* %exn) #2, !dbg !3755
  %65 = load %"class.std::__1::basic_ostream"*, %"class.std::__1::basic_ostream"** %__os.addr, align 8, !dbg !3756
  %66 = bitcast %"class.std::__1::basic_ostream"* %65 to i8**, !dbg !3756
  %vtable28 = load i8*, i8** %66, align 8, !dbg !3756
  %vbase.offset.ptr29 = getelementptr i8, i8* %vtable28, i64 -24, !dbg !3756
  %67 = bitcast i8* %vbase.offset.ptr29 to i64*, !dbg !3756
  %vbase.offset30 = load i64, i64* %67, align 8, !dbg !3756
  %68 = bitcast %"class.std::__1::basic_ostream"* %65 to i8*, !dbg !3756
  %add.ptr31 = getelementptr inbounds i8, i8* %68, i64 %vbase.offset30, !dbg !3756
  %69 = bitcast i8* %add.ptr31 to %"class.std::__1::ios_base"*, !dbg !3756
  invoke void @_ZNSt3__18ios_base33__set_badbit_and_consider_rethrowEv(%"class.std::__1::ios_base"* %69)
          to label %invoke.cont33 unwind label %lpad32, !dbg !3758

invoke.cont33:                                    ; preds = %catch
  call void @__cxa_end_catch(), !dbg !3759
  br label %try.cont, !dbg !3759

try.cont:                                         ; preds = %invoke.cont33, %if.end27
  %70 = load %"class.std::__1::basic_ostream"*, %"class.std::__1::basic_ostream"** %__os.addr, align 8, !dbg !3760
  ret %"class.std::__1::basic_ostream"* %70, !dbg !3761

if.end:                                           ; preds = %invoke.cont26, %invoke.cont17
  br label %if.end27, !dbg !3762

if.end27:                                         ; preds = %if.end, %invoke.cont2
  call void @_ZNSt3__113basic_ostreamIcNS_11char_traitsIcEEE6sentryD1Ev(%"class.std::__1::basic_ostream<char, std::__1::char_traits<char> >::sentry"* %__s) #2, !dbg !3763
  br label %try.cont, !dbg !3765

lpad32:                                           ; preds = %catch
  %71 = landingpad { i8*, i32 }
          cleanup, !dbg !3767
  %72 = extractvalue { i8*, i32 } %71, 0, !dbg !3767
  store i8* %72, i8** %exn.slot, align 8, !dbg !3767
  %73 = extractvalue { i8*, i32 } %71, 1, !dbg !3767
  store i32 %73, i32* %ehselector.slot, align 4, !dbg !3767
  invoke void @__cxa_end_catch()
          to label %invoke.cont34 unwind label %terminate.lpad, !dbg !3769

invoke.cont34:                                    ; preds = %lpad32
  br label %eh.resume, !dbg !3771

eh.resume:                                        ; preds = %invoke.cont34
  %exn35 = load i8*, i8** %exn.slot, align 8, !dbg !3772
  %sel = load i32, i32* %ehselector.slot, align 4, !dbg !3772
  %lpad.val = insertvalue { i8*, i32 } undef, i8* %exn35, 0, !dbg !3772
  %lpad.val36 = insertvalue { i8*, i32 } %lpad.val, i32 %sel, 1, !dbg !3772
  resume { i8*, i32 } %lpad.val36, !dbg !3772

terminate.lpad:                                   ; preds = %lpad32
  %74 = landingpad { i8*, i32 }
          catch i8* null, !dbg !3774
  %75 = extractvalue { i8*, i32 } %74, 0, !dbg !3774
  call void @__clang_call_terminate(i8* %75) #12, !dbg !3774
  unreachable, !dbg !3774
}

; Function Attrs: noinline nounwind ssp uwtable
define linkonce_odr i64 @_ZNSt3__111char_traitsIcE6lengthEPKc(i8* %__s) #7 align 2 !dbg !3776 {
entry:
  %__s.addr = alloca i8*, align 8
  store i8* %__s, i8** %__s.addr, align 8
  call void @llvm.dbg.declare(metadata i8** %__s.addr, metadata !3777, metadata !3234), !dbg !3778
  %0 = load i8*, i8** %__s.addr, align 8, !dbg !3779
  %call = call i64 @strlen(i8* %0) #2, !dbg !3780
  ret i64 %call, !dbg !3781
}

declare void @_ZNSt3__113basic_ostreamIcNS_11char_traitsIcEEE6sentryC1ERS3_(%"class.std::__1::basic_ostream<char, std::__1::char_traits<char> >::sentry"*, %"class.std::__1::basic_ostream"* dereferenceable(160)) unnamed_addr #4

; Function Attrs: noinline ssp uwtable
define linkonce_odr hidden %"class.std::__1::basic_streambuf"* @_ZNSt3__116__pad_and_outputIcNS_11char_traitsIcEEEENS_19ostreambuf_iteratorIT_T0_EES6_PKS4_S8_S8_RNS_8ios_baseES4_(%"class.std::__1::basic_streambuf"* %__s.coerce, i8* %__ob, i8* %__op, i8* %__oe, %"class.std::__1::ios_base"* dereferenceable(136) %__iob, i8 signext %__fl) #0 personality i8* bitcast (i32 (...)* @__gxx_personality_v0 to i8*) !dbg !3782 {
entry:
  %this.addr.i64 = alloca %"class.std::__1::basic_streambuf"*, align 8
  call void @llvm.dbg.declare(metadata %"class.std::__1::basic_streambuf"** %this.addr.i64, metadata !3786, metadata !3234), !dbg !3788
  %__s.addr.i65 = alloca i8*, align 8
  call void @llvm.dbg.declare(metadata i8** %__s.addr.i65, metadata !3793, metadata !3234), !dbg !3794
  %__n.addr.i66 = alloca i64, align 8
  call void @llvm.dbg.declare(metadata i64* %__n.addr.i66, metadata !3795, metadata !3234), !dbg !3796
  %__p.addr.i.i = alloca i8*, align 8
  call void @llvm.dbg.declare(metadata i8** %__p.addr.i.i, metadata !3797, metadata !3234), !dbg !3803
  %__x.addr.i.i.i.i.i = alloca i8*, align 8
  call void @llvm.dbg.declare(metadata i8** %__x.addr.i.i.i.i.i, metadata !3808, metadata !3234), !dbg !3812
  %__r.addr.i.i.i.i = alloca i8*, align 8
  call void @llvm.dbg.declare(metadata i8** %__r.addr.i.i.i.i, metadata !3837, metadata !3234), !dbg !3838
  %this.addr.i.i10.i.i = alloca %"class.std::__1::__compressed_pair"*, align 8
  call void @llvm.dbg.declare(metadata %"class.std::__1::__compressed_pair"** %this.addr.i.i10.i.i, metadata !3839, metadata !3234), !dbg !3842
  %this.addr.i11.i.i = alloca %"class.std::__1::basic_string"*, align 8
  call void @llvm.dbg.declare(metadata %"class.std::__1::basic_string"** %this.addr.i11.i.i, metadata !3844, metadata !3234), !dbg !3846
  %this.addr.i.i4.i.i = alloca %"class.std::__1::__compressed_pair"*, align 8
  call void @llvm.dbg.declare(metadata %"class.std::__1::__compressed_pair"** %this.addr.i.i4.i.i, metadata !3839, metadata !3234), !dbg !3847
  %this.addr.i5.i.i = alloca %"class.std::__1::basic_string"*, align 8
  call void @llvm.dbg.declare(metadata %"class.std::__1::basic_string"** %this.addr.i5.i.i, metadata !3852, metadata !3234), !dbg !3853
  %this.addr.i.i.i.i56 = alloca %"class.std::__1::__compressed_pair"*, align 8
  call void @llvm.dbg.declare(metadata %"class.std::__1::__compressed_pair"** %this.addr.i.i.i.i56, metadata !3839, metadata !3234), !dbg !3854
  %this.addr.i.i.i57 = alloca %"class.std::__1::basic_string"*, align 8
  call void @llvm.dbg.declare(metadata %"class.std::__1::basic_string"** %this.addr.i.i.i57, metadata !3858, metadata !3234), !dbg !3859
  %this.addr.i.i58 = alloca %"class.std::__1::basic_string"*, align 8
  call void @llvm.dbg.declare(metadata %"class.std::__1::basic_string"** %this.addr.i.i58, metadata !3860, metadata !3234), !dbg !3861
  %this.addr.i59 = alloca %"class.std::__1::basic_string"*, align 8
  call void @llvm.dbg.declare(metadata %"class.std::__1::basic_string"** %this.addr.i59, metadata !3862, metadata !3234), !dbg !3863
  %this.addr.i.i.i.i = alloca %"class.std::__1::__compressed_pair"*, align 8
  call void @llvm.dbg.declare(metadata %"class.std::__1::__compressed_pair"** %this.addr.i.i.i.i, metadata !3864, metadata !3234), !dbg !3872
  %this.addr.i.i.i = alloca %"class.std::__1::__compressed_pair"*, align 8
  call void @llvm.dbg.declare(metadata %"class.std::__1::__compressed_pair"** %this.addr.i.i.i, metadata !3880, metadata !3234), !dbg !3881
  %this.addr.i.i = alloca %"class.std::__1::basic_string"*, align 8
  call void @llvm.dbg.declare(metadata %"class.std::__1::basic_string"** %this.addr.i.i, metadata !3882, metadata !3234), !dbg !3884
  %__n.addr.i.i = alloca i64, align 8
  call void @llvm.dbg.declare(metadata i64* %__n.addr.i.i, metadata !3885, metadata !3234), !dbg !3886
  %__c.addr.i.i = alloca i8, align 1
  call void @llvm.dbg.declare(metadata i8* %__c.addr.i.i, metadata !3887, metadata !3234), !dbg !3888
  %this.addr.i53 = alloca %"class.std::__1::basic_string"*, align 8
  call void @llvm.dbg.declare(metadata %"class.std::__1::basic_string"** %this.addr.i53, metadata !3889, metadata !3234), !dbg !3890
  %__n.addr.i54 = alloca i64, align 8
  call void @llvm.dbg.declare(metadata i64* %__n.addr.i54, metadata !3891, metadata !3234), !dbg !3892
  %__c.addr.i = alloca i8, align 1
  call void @llvm.dbg.declare(metadata i8* %__c.addr.i, metadata !3893, metadata !3234), !dbg !3894
  %this.addr.i46 = alloca %"class.std::__1::basic_streambuf"*, align 8
  call void @llvm.dbg.declare(metadata %"class.std::__1::basic_streambuf"** %this.addr.i46, metadata !3786, metadata !3234), !dbg !3895
  %__s.addr.i47 = alloca i8*, align 8
  call void @llvm.dbg.declare(metadata i8** %__s.addr.i47, metadata !3793, metadata !3234), !dbg !3900
  %__n.addr.i48 = alloca i64, align 8
  call void @llvm.dbg.declare(metadata i64* %__n.addr.i48, metadata !3795, metadata !3234), !dbg !3901
  %this.addr.i44 = alloca %"class.std::__1::basic_streambuf"*, align 8
  call void @llvm.dbg.declare(metadata %"class.std::__1::basic_streambuf"** %this.addr.i44, metadata !3786, metadata !3234), !dbg !3902
  %__s.addr.i = alloca i8*, align 8
  call void @llvm.dbg.declare(metadata i8** %__s.addr.i, metadata !3793, metadata !3234), !dbg !3907
  %__n.addr.i = alloca i64, align 8
  call void @llvm.dbg.declare(metadata i64* %__n.addr.i, metadata !3795, metadata !3234), !dbg !3908
  %this.addr.i41 = alloca %"class.std::__1::ios_base"*, align 8
  call void @llvm.dbg.declare(metadata %"class.std::__1::ios_base"** %this.addr.i41, metadata !3909, metadata !3234), !dbg !3911
  %__wide.addr.i = alloca i64, align 8
  call void @llvm.dbg.declare(metadata i64* %__wide.addr.i, metadata !3913, metadata !3234), !dbg !3914
  %__r.i = alloca i64, align 8
  call void @llvm.dbg.declare(metadata i64* %__r.i, metadata !3915, metadata !3234), !dbg !3916
  %this.addr.i = alloca %"class.std::__1::ios_base"*, align 8
  call void @llvm.dbg.declare(metadata %"class.std::__1::ios_base"** %this.addr.i, metadata !3917, metadata !3234), !dbg !3919
  %retval = alloca %"class.std::__1::ostreambuf_iterator", align 8
  %__s = alloca %"class.std::__1::ostreambuf_iterator", align 8
  %__ob.addr = alloca i8*, align 8
  %__op.addr = alloca i8*, align 8
  %__oe.addr = alloca i8*, align 8
  %__iob.addr = alloca %"class.std::__1::ios_base"*, align 8
  %__fl.addr = alloca i8, align 1
  %__sz = alloca i64, align 8
  %__ns = alloca i64, align 8
  %__np = alloca i64, align 8
  %__sp = alloca %"class.std::__1::basic_string", align 8
  %exn.slot = alloca i8*
  %ehselector.slot = alloca i32
  %cleanup.dest.slot = alloca i32
  %coerce.dive = getelementptr inbounds %"class.std::__1::ostreambuf_iterator", %"class.std::__1::ostreambuf_iterator"* %__s, i32 0, i32 0
  store %"class.std::__1::basic_streambuf"* %__s.coerce, %"class.std::__1::basic_streambuf"** %coerce.dive, align 8
  call void @llvm.dbg.declare(metadata %"class.std::__1::ostreambuf_iterator"* %__s, metadata !3921, metadata !3234), !dbg !3922
  store i8* %__ob, i8** %__ob.addr, align 8
  call void @llvm.dbg.declare(metadata i8** %__ob.addr, metadata !3923, metadata !3234), !dbg !3924
  store i8* %__op, i8** %__op.addr, align 8
  call void @llvm.dbg.declare(metadata i8** %__op.addr, metadata !3925, metadata !3234), !dbg !3926
  store i8* %__oe, i8** %__oe.addr, align 8
  call void @llvm.dbg.declare(metadata i8** %__oe.addr, metadata !3927, metadata !3234), !dbg !3928
  store %"class.std::__1::ios_base"* %__iob, %"class.std::__1::ios_base"** %__iob.addr, align 8
  call void @llvm.dbg.declare(metadata %"class.std::__1::ios_base"** %__iob.addr, metadata !3929, metadata !3234), !dbg !3930
  store i8 %__fl, i8* %__fl.addr, align 1
  call void @llvm.dbg.declare(metadata i8* %__fl.addr, metadata !3931, metadata !3234), !dbg !3932
  %__sbuf_ = getelementptr inbounds %"class.std::__1::ostreambuf_iterator", %"class.std::__1::ostreambuf_iterator"* %__s, i32 0, i32 0, !dbg !3933
  %0 = load %"class.std::__1::basic_streambuf"*, %"class.std::__1::basic_streambuf"** %__sbuf_, align 8, !dbg !3933
  %cmp = icmp eq %"class.std::__1::basic_streambuf"* %0, null, !dbg !3935
  br i1 %cmp, label %if.then, label %if.end, !dbg !3936

if.then:                                          ; preds = %entry
  %1 = bitcast %"class.std::__1::ostreambuf_iterator"* %retval to i8*, !dbg !3937
  %2 = bitcast %"class.std::__1::ostreambuf_iterator"* %__s to i8*, !dbg !3937
  call void @llvm.memcpy.p0i8.p0i8.i64(i8* %1, i8* %2, i64 8, i32 8, i1 false), !dbg !3937
  br label %return, !dbg !3938

if.end:                                           ; preds = %entry
  call void @llvm.dbg.declare(metadata i64* %__sz, metadata !3939, metadata !3234), !dbg !3940
  %3 = load i8*, i8** %__oe.addr, align 8, !dbg !3941
  %4 = load i8*, i8** %__ob.addr, align 8, !dbg !3942
  %sub.ptr.lhs.cast = ptrtoint i8* %3 to i64, !dbg !3943
  %sub.ptr.rhs.cast = ptrtoint i8* %4 to i64, !dbg !3943
  %sub.ptr.sub = sub i64 %sub.ptr.lhs.cast, %sub.ptr.rhs.cast, !dbg !3943
  store i64 %sub.ptr.sub, i64* %__sz, align 8, !dbg !3940
  call void @llvm.dbg.declare(metadata i64* %__ns, metadata !3944, metadata !3234), !dbg !3945
  %5 = load %"class.std::__1::ios_base"*, %"class.std::__1::ios_base"** %__iob.addr, align 8, !dbg !3946
  store %"class.std::__1::ios_base"* %5, %"class.std::__1::ios_base"** %this.addr.i, align 8
  %this1.i = load %"class.std::__1::ios_base"*, %"class.std::__1::ios_base"** %this.addr.i, align 8
  %__width_.i = getelementptr inbounds %"class.std::__1::ios_base", %"class.std::__1::ios_base"* %this1.i, i32 0, i32 3, !dbg !3947
  %6 = load i64, i64* %__width_.i, align 8, !dbg !3947
  store i64 %6, i64* %__ns, align 8, !dbg !3945
  %7 = load i64, i64* %__ns, align 8, !dbg !3948
  %8 = load i64, i64* %__sz, align 8, !dbg !3950
  %cmp1 = icmp sgt i64 %7, %8, !dbg !3951
  br i1 %cmp1, label %if.then2, label %if.else, !dbg !3952

if.then2:                                         ; preds = %if.end
  %9 = load i64, i64* %__sz, align 8, !dbg !3953
  %10 = load i64, i64* %__ns, align 8, !dbg !3954
  %sub = sub nsw i64 %10, %9, !dbg !3954
  store i64 %sub, i64* %__ns, align 8, !dbg !3954
  br label %if.end3, !dbg !3955

if.else:                                          ; preds = %if.end
  store i64 0, i64* %__ns, align 8, !dbg !3956
  br label %if.end3

if.end3:                                          ; preds = %if.else, %if.then2
  call void @llvm.dbg.declare(metadata i64* %__np, metadata !3957, metadata !3234), !dbg !3958
  %11 = load i8*, i8** %__op.addr, align 8, !dbg !3959
  %12 = load i8*, i8** %__ob.addr, align 8, !dbg !3960
  %sub.ptr.lhs.cast4 = ptrtoint i8* %11 to i64, !dbg !3961
  %sub.ptr.rhs.cast5 = ptrtoint i8* %12 to i64, !dbg !3961
  %sub.ptr.sub6 = sub i64 %sub.ptr.lhs.cast4, %sub.ptr.rhs.cast5, !dbg !3961
  store i64 %sub.ptr.sub6, i64* %__np, align 8, !dbg !3958
  %13 = load i64, i64* %__np, align 8, !dbg !3962
  %cmp7 = icmp sgt i64 %13, 0, !dbg !3963
  br i1 %cmp7, label %if.then8, label %if.end15, !dbg !3964

if.then8:                                         ; preds = %if.end3
  %__sbuf_9 = getelementptr inbounds %"class.std::__1::ostreambuf_iterator", %"class.std::__1::ostreambuf_iterator"* %__s, i32 0, i32 0, !dbg !3965
  %14 = load %"class.std::__1::basic_streambuf"*, %"class.std::__1::basic_streambuf"** %__sbuf_9, align 8, !dbg !3965
  %15 = load i8*, i8** %__ob.addr, align 8, !dbg !3966
  %16 = load i64, i64* %__np, align 8, !dbg !3967
  store %"class.std::__1::basic_streambuf"* %14, %"class.std::__1::basic_streambuf"** %this.addr.i46, align 8
  store i8* %15, i8** %__s.addr.i47, align 8
  store i64 %16, i64* %__n.addr.i48, align 8
  %this1.i49 = load %"class.std::__1::basic_streambuf"*, %"class.std::__1::basic_streambuf"** %this.addr.i46, align 8
  %17 = bitcast %"class.std::__1::basic_streambuf"* %this1.i49 to i64 (%"class.std::__1::basic_streambuf"*, i8*, i64)***, !dbg !3968
  %vtable.i50 = load i64 (%"class.std::__1::basic_streambuf"*, i8*, i64)**, i64 (%"class.std::__1::basic_streambuf"*, i8*, i64)*** %17, align 8, !dbg !3968
  %vfn.i51 = getelementptr inbounds i64 (%"class.std::__1::basic_streambuf"*, i8*, i64)*, i64 (%"class.std::__1::basic_streambuf"*, i8*, i64)** %vtable.i50, i64 12, !dbg !3968
  %18 = load i64 (%"class.std::__1::basic_streambuf"*, i8*, i64)*, i64 (%"class.std::__1::basic_streambuf"*, i8*, i64)** %vfn.i51, align 8, !dbg !3968
  %19 = load i8*, i8** %__s.addr.i47, align 8, !dbg !3969
  %20 = load i64, i64* %__n.addr.i48, align 8, !dbg !3970
  %call.i52 = call i64 %18(%"class.std::__1::basic_streambuf"* %this1.i49, i8* %19, i64 %20), !dbg !3968
  %21 = load i64, i64* %__np, align 8, !dbg !3971
  %cmp11 = icmp ne i64 %call.i52, %21, !dbg !3972
  br i1 %cmp11, label %if.then12, label %if.end14, !dbg !3973

if.then12:                                        ; preds = %if.then8
  %__sbuf_13 = getelementptr inbounds %"class.std::__1::ostreambuf_iterator", %"class.std::__1::ostreambuf_iterator"* %__s, i32 0, i32 0, !dbg !3974
  store %"class.std::__1::basic_streambuf"* null, %"class.std::__1::basic_streambuf"** %__sbuf_13, align 8, !dbg !3976
  %22 = bitcast %"class.std::__1::ostreambuf_iterator"* %retval to i8*, !dbg !3977
  %23 = bitcast %"class.std::__1::ostreambuf_iterator"* %__s to i8*, !dbg !3977
  call void @llvm.memcpy.p0i8.p0i8.i64(i8* %22, i8* %23, i64 8, i32 8, i1 false), !dbg !3977
  br label %return, !dbg !3978

if.end14:                                         ; preds = %if.then8
  br label %if.end15, !dbg !3979

if.end15:                                         ; preds = %if.end14, %if.end3
  %24 = load i64, i64* %__ns, align 8, !dbg !3980
  %cmp16 = icmp sgt i64 %24, 0, !dbg !3981
  br i1 %cmp16, label %if.then17, label %if.end25, !dbg !3982

if.then17:                                        ; preds = %if.end15
  call void @llvm.dbg.declare(metadata %"class.std::__1::basic_string"* %__sp, metadata !3983, metadata !3234), !dbg !3984
  %25 = load i64, i64* %__ns, align 8, !dbg !3985
  %26 = load i8, i8* %__fl.addr, align 1, !dbg !3986
  store %"class.std::__1::basic_string"* %__sp, %"class.std::__1::basic_string"** %this.addr.i53, align 8
  store i64 %25, i64* %__n.addr.i54, align 8
  store i8 %26, i8* %__c.addr.i, align 1
  %this1.i55 = load %"class.std::__1::basic_string"*, %"class.std::__1::basic_string"** %this.addr.i53, align 8
  %27 = load i64, i64* %__n.addr.i54, align 8, !dbg !3987
  %28 = load i8, i8* %__c.addr.i, align 1, !dbg !3987
  store %"class.std::__1::basic_string"* %this1.i55, %"class.std::__1::basic_string"** %this.addr.i.i, align 8
  store i64 %27, i64* %__n.addr.i.i, align 8
  store i8 %28, i8* %__c.addr.i.i, align 1
  %this1.i.i = load %"class.std::__1::basic_string"*, %"class.std::__1::basic_string"** %this.addr.i.i, align 8
  %29 = bitcast %"class.std::__1::basic_string"* %this1.i.i to %"class.std::__1::__basic_string_common"*, !dbg !3988
  %__r_.i.i = getelementptr inbounds %"class.std::__1::basic_string", %"class.std::__1::basic_string"* %this1.i.i, i32 0, i32 0, !dbg !3989
  store %"class.std::__1::__compressed_pair"* %__r_.i.i, %"class.std::__1::__compressed_pair"** %this.addr.i.i.i, align 8
  %this1.i.i.i = load %"class.std::__1::__compressed_pair"*, %"class.std::__1::__compressed_pair"** %this.addr.i.i.i, align 8
  store %"class.std::__1::__compressed_pair"* %this1.i.i.i, %"class.std::__1::__compressed_pair"** %this.addr.i.i.i.i, align 8
  %this1.i.i.i.i = load %"class.std::__1::__compressed_pair"*, %"class.std::__1::__compressed_pair"** %this.addr.i.i.i.i, align 8
  %30 = bitcast %"class.std::__1::__compressed_pair"* %this1.i.i.i.i to %"struct.std::__1::__compressed_pair_elem"*, !dbg !3990
  call void @_ZNSt3__122__compressed_pair_elemINS_12basic_stringIcNS_11char_traitsIcEENS_9allocatorIcEEE5__repELi0ELb0EEC2Ev(%"struct.std::__1::__compressed_pair_elem"* %30), !dbg !3991
  %31 = bitcast %"class.std::__1::__compressed_pair"* %this1.i.i.i.i to %"struct.std::__1::__compressed_pair_elem.1"*, !dbg !3990
  call void @_ZNSt3__122__compressed_pair_elemINS_9allocatorIcEELi1ELb1EEC2Ev(%"struct.std::__1::__compressed_pair_elem.1"* %31) #2, !dbg !3992
  %32 = load i64, i64* %__n.addr.i.i, align 8, !dbg !3994
  %33 = load i8, i8* %__c.addr.i.i, align 1, !dbg !3996
  call void @_ZNSt3__112basic_stringIcNS_11char_traitsIcEENS_9allocatorIcEEE6__initEmc(%"class.std::__1::basic_string"* %this1.i.i, i64 %32, i8 signext %33), !dbg !3997
  %__sbuf_18 = getelementptr inbounds %"class.std::__1::ostreambuf_iterator", %"class.std::__1::ostreambuf_iterator"* %__s, i32 0, i32 0, !dbg !3998
  %34 = load %"class.std::__1::basic_streambuf"*, %"class.std::__1::basic_streambuf"** %__sbuf_18, align 8, !dbg !3998
  store %"class.std::__1::basic_string"* %__sp, %"class.std::__1::basic_string"** %this.addr.i59, align 8
  %this1.i60 = load %"class.std::__1::basic_string"*, %"class.std::__1::basic_string"** %this.addr.i59, align 8
  store %"class.std::__1::basic_string"* %this1.i60, %"class.std::__1::basic_string"** %this.addr.i.i58, align 8
  %this1.i.i61 = load %"class.std::__1::basic_string"*, %"class.std::__1::basic_string"** %this.addr.i.i58, align 8
  store %"class.std::__1::basic_string"* %this1.i.i61, %"class.std::__1::basic_string"** %this.addr.i.i.i57, align 8
  %this1.i.i.i62 = load %"class.std::__1::basic_string"*, %"class.std::__1::basic_string"** %this.addr.i.i.i57, align 8
  %__r_.i.i.i = getelementptr inbounds %"class.std::__1::basic_string", %"class.std::__1::basic_string"* %this1.i.i.i62, i32 0, i32 0, !dbg !3999
  store %"class.std::__1::__compressed_pair"* %__r_.i.i.i, %"class.std::__1::__compressed_pair"** %this.addr.i.i.i.i56, align 8
  %this1.i.i.i.i63 = load %"class.std::__1::__compressed_pair"*, %"class.std::__1::__compressed_pair"** %this.addr.i.i.i.i56, align 8
  %35 = bitcast %"class.std::__1::__compressed_pair"* %this1.i.i.i.i63 to %"struct.std::__1::__compressed_pair_elem"*, !dbg !4000
  %call.i.i.i.i = call dereferenceable(24) %"struct.std::__1::basic_string<char, std::__1::char_traits<char>, std::__1::allocator<char> >::__rep"* @_ZNKSt3__122__compressed_pair_elemINS_12basic_stringIcNS_11char_traitsIcEENS_9allocatorIcEEE5__repELi0ELb0EE5__getEv(%"struct.std::__1::__compressed_pair_elem"* %35) #2, !dbg !4001
  %36 = getelementptr inbounds %"struct.std::__1::basic_string<char, std::__1::char_traits<char>, std::__1::allocator<char> >::__rep", %"struct.std::__1::basic_string<char, std::__1::char_traits<char>, std::__1::allocator<char> >::__rep"* %call.i.i.i.i, i32 0, i32 0, !dbg !4002
  %__s.i.i.i = bitcast %union.anon* %36 to %"struct.std::__1::basic_string<char, std::__1::char_traits<char>, std::__1::allocator<char> >::__short"*, !dbg !4002
  %37 = getelementptr inbounds %"struct.std::__1::basic_string<char, std::__1::char_traits<char>, std::__1::allocator<char> >::__short", %"struct.std::__1::basic_string<char, std::__1::char_traits<char>, std::__1::allocator<char> >::__short"* %__s.i.i.i, i32 0, i32 0, !dbg !4003
  %__size_.i.i.i = bitcast %union.anon.0* %37 to i8*, !dbg !4003
  %38 = load i8, i8* %__size_.i.i.i, align 8, !dbg !4003
  %conv.i.i.i = zext i8 %38 to i32, !dbg !3999
  %and.i.i.i = and i32 %conv.i.i.i, 1, !dbg !4004
  %tobool.i.i.i = icmp ne i32 %and.i.i.i, 0, !dbg !3999
  br i1 %tobool.i.i.i, label %cond.true.i.i, label %cond.false.i.i, !dbg !4005

cond.true.i.i:                                    ; preds = %if.then17
  store %"class.std::__1::basic_string"* %this1.i.i61, %"class.std::__1::basic_string"** %this.addr.i5.i.i, align 8
  %this1.i6.i.i = load %"class.std::__1::basic_string"*, %"class.std::__1::basic_string"** %this.addr.i5.i.i, align 8
  %__r_.i7.i.i = getelementptr inbounds %"class.std::__1::basic_string", %"class.std::__1::basic_string"* %this1.i6.i.i, i32 0, i32 0, !dbg !4006
  store %"class.std::__1::__compressed_pair"* %__r_.i7.i.i, %"class.std::__1::__compressed_pair"** %this.addr.i.i4.i.i, align 8
  %this1.i.i8.i.i = load %"class.std::__1::__compressed_pair"*, %"class.std::__1::__compressed_pair"** %this.addr.i.i4.i.i, align 8
  %39 = bitcast %"class.std::__1::__compressed_pair"* %this1.i.i8.i.i to %"struct.std::__1::__compressed_pair_elem"*, !dbg !4007
  %call.i.i9.i.i = call dereferenceable(24) %"struct.std::__1::basic_string<char, std::__1::char_traits<char>, std::__1::allocator<char> >::__rep"* @_ZNKSt3__122__compressed_pair_elemINS_12basic_stringIcNS_11char_traitsIcEENS_9allocatorIcEEE5__repELi0ELb0EE5__getEv(%"struct.std::__1::__compressed_pair_elem"* %39) #2, !dbg !4008
  %40 = getelementptr inbounds %"struct.std::__1::basic_string<char, std::__1::char_traits<char>, std::__1::allocator<char> >::__rep", %"struct.std::__1::basic_string<char, std::__1::char_traits<char>, std::__1::allocator<char> >::__rep"* %call.i.i9.i.i, i32 0, i32 0, !dbg !4009
  %__l.i.i.i = bitcast %union.anon* %40 to %"struct.std::__1::basic_string<char, std::__1::char_traits<char>, std::__1::allocator<char> >::__long"*, !dbg !4009
  %__data_.i.i.i = getelementptr inbounds %"struct.std::__1::basic_string<char, std::__1::char_traits<char>, std::__1::allocator<char> >::__long", %"struct.std::__1::basic_string<char, std::__1::char_traits<char>, std::__1::allocator<char> >::__long"* %__l.i.i.i, i32 0, i32 2, !dbg !4010
  %41 = load i8*, i8** %__data_.i.i.i, align 8, !dbg !4010
  br label %_ZNKSt3__112basic_stringIcNS_11char_traitsIcEENS_9allocatorIcEEE4dataEv.exit, !dbg !4011

cond.false.i.i:                                   ; preds = %if.then17
  store %"class.std::__1::basic_string"* %this1.i.i61, %"class.std::__1::basic_string"** %this.addr.i11.i.i, align 8
  %this1.i12.i.i = load %"class.std::__1::basic_string"*, %"class.std::__1::basic_string"** %this.addr.i11.i.i, align 8
  %__r_.i13.i.i = getelementptr inbounds %"class.std::__1::basic_string", %"class.std::__1::basic_string"* %this1.i12.i.i, i32 0, i32 0, !dbg !4012
  store %"class.std::__1::__compressed_pair"* %__r_.i13.i.i, %"class.std::__1::__compressed_pair"** %this.addr.i.i10.i.i, align 8
  %this1.i.i14.i.i = load %"class.std::__1::__compressed_pair"*, %"class.std::__1::__compressed_pair"** %this.addr.i.i10.i.i, align 8
  %42 = bitcast %"class.std::__1::__compressed_pair"* %this1.i.i14.i.i to %"struct.std::__1::__compressed_pair_elem"*, !dbg !4013
  %call.i.i15.i.i = call dereferenceable(24) %"struct.std::__1::basic_string<char, std::__1::char_traits<char>, std::__1::allocator<char> >::__rep"* @_ZNKSt3__122__compressed_pair_elemINS_12basic_stringIcNS_11char_traitsIcEENS_9allocatorIcEEE5__repELi0ELb0EE5__getEv(%"struct.std::__1::__compressed_pair_elem"* %42) #2, !dbg !4014
  %43 = getelementptr inbounds %"struct.std::__1::basic_string<char, std::__1::char_traits<char>, std::__1::allocator<char> >::__rep", %"struct.std::__1::basic_string<char, std::__1::char_traits<char>, std::__1::allocator<char> >::__rep"* %call.i.i15.i.i, i32 0, i32 0, !dbg !4015
  %__s.i16.i.i = bitcast %union.anon* %43 to %"struct.std::__1::basic_string<char, std::__1::char_traits<char>, std::__1::allocator<char> >::__short"*, !dbg !4015
  %__data_.i17.i.i = getelementptr inbounds %"struct.std::__1::basic_string<char, std::__1::char_traits<char>, std::__1::allocator<char> >::__short", %"struct.std::__1::basic_string<char, std::__1::char_traits<char>, std::__1::allocator<char> >::__short"* %__s.i16.i.i, i32 0, i32 1, !dbg !4016
  %arrayidx.i.i.i = getelementptr inbounds [23 x i8], [23 x i8]* %__data_.i17.i.i, i64 0, i64 0, !dbg !4012
  store i8* %arrayidx.i.i.i, i8** %__r.addr.i.i.i.i, align 8
  %44 = load i8*, i8** %__r.addr.i.i.i.i, align 8, !dbg !4017
  store i8* %44, i8** %__x.addr.i.i.i.i.i, align 8
  %45 = load i8*, i8** %__x.addr.i.i.i.i.i, align 8, !dbg !4018
  br label %_ZNKSt3__112basic_stringIcNS_11char_traitsIcEENS_9allocatorIcEEE4dataEv.exit, !dbg !4019

_ZNKSt3__112basic_stringIcNS_11char_traitsIcEENS_9allocatorIcEEE4dataEv.exit: ; preds = %cond.true.i.i, %cond.false.i.i
  %cond.i.i = phi i8* [ %41, %cond.true.i.i ], [ %45, %cond.false.i.i ], !dbg !4020
  store i8* %cond.i.i, i8** %__p.addr.i.i, align 8
  %46 = load i8*, i8** %__p.addr.i.i, align 8, !dbg !4022
  %47 = load i64, i64* %__ns, align 8, !dbg !4023
  store %"class.std::__1::basic_streambuf"* %34, %"class.std::__1::basic_streambuf"** %this.addr.i64, align 8
  store i8* %46, i8** %__s.addr.i65, align 8
  store i64 %47, i64* %__n.addr.i66, align 8
  %this1.i67 = load %"class.std::__1::basic_streambuf"*, %"class.std::__1::basic_streambuf"** %this.addr.i64, align 8
  %48 = bitcast %"class.std::__1::basic_streambuf"* %this1.i67 to i64 (%"class.std::__1::basic_streambuf"*, i8*, i64)***, !dbg !4024
  %vtable.i68 = load i64 (%"class.std::__1::basic_streambuf"*, i8*, i64)**, i64 (%"class.std::__1::basic_streambuf"*, i8*, i64)*** %48, align 8, !dbg !4024
  %vfn.i69 = getelementptr inbounds i64 (%"class.std::__1::basic_streambuf"*, i8*, i64)*, i64 (%"class.std::__1::basic_streambuf"*, i8*, i64)** %vtable.i68, i64 12, !dbg !4024
  %49 = load i64 (%"class.std::__1::basic_streambuf"*, i8*, i64)*, i64 (%"class.std::__1::basic_streambuf"*, i8*, i64)** %vfn.i69, align 8, !dbg !4024
  %50 = load i8*, i8** %__s.addr.i65, align 8, !dbg !4025
  %51 = load i64, i64* %__n.addr.i66, align 8, !dbg !4026
  %call.i7071 = invoke i64 %49(%"class.std::__1::basic_streambuf"* %this1.i67, i8* %50, i64 %51)
          to label %_ZNSt3__115basic_streambufIcNS_11char_traitsIcEEE5sputnEPKcl.exit unwind label %lpad, !dbg !4024

_ZNSt3__115basic_streambufIcNS_11char_traitsIcEEE5sputnEPKcl.exit: ; preds = %_ZNKSt3__112basic_stringIcNS_11char_traitsIcEENS_9allocatorIcEEE4dataEv.exit
  br label %invoke.cont, !dbg !4027

invoke.cont:                                      ; preds = %_ZNSt3__115basic_streambufIcNS_11char_traitsIcEEE5sputnEPKcl.exit
  %52 = load i64, i64* %__ns, align 8, !dbg !4028
  %cmp21 = icmp ne i64 %call.i7071, %52, !dbg !4030
  br i1 %cmp21, label %if.then22, label %if.end24, !dbg !4031

if.then22:                                        ; preds = %invoke.cont
  %__sbuf_23 = getelementptr inbounds %"class.std::__1::ostreambuf_iterator", %"class.std::__1::ostreambuf_iterator"* %__s, i32 0, i32 0, !dbg !4033
  store %"class.std::__1::basic_streambuf"* null, %"class.std::__1::basic_streambuf"** %__sbuf_23, align 8, !dbg !4035
  %53 = bitcast %"class.std::__1::ostreambuf_iterator"* %retval to i8*, !dbg !4036
  %54 = bitcast %"class.std::__1::ostreambuf_iterator"* %__s to i8*, !dbg !4036
  call void @llvm.memcpy.p0i8.p0i8.i64(i8* %53, i8* %54, i64 8, i32 8, i1 false), !dbg !4036
  store i32 1, i32* %cleanup.dest.slot, align 4
  br label %cleanup, !dbg !4037

lpad:                                             ; preds = %_ZNKSt3__112basic_stringIcNS_11char_traitsIcEENS_9allocatorIcEEE4dataEv.exit
  %55 = landingpad { i8*, i32 }
          cleanup, !dbg !4038
  %56 = extractvalue { i8*, i32 } %55, 0, !dbg !4038
  store i8* %56, i8** %exn.slot, align 8, !dbg !4038
  %57 = extractvalue { i8*, i32 } %55, 1, !dbg !4038
  store i32 %57, i32* %ehselector.slot, align 4, !dbg !4038
  call void @_ZNSt3__112basic_stringIcNS_11char_traitsIcEENS_9allocatorIcEEED1Ev(%"class.std::__1::basic_string"* %__sp) #2, !dbg !4039
  br label %eh.resume, !dbg !4039

if.end24:                                         ; preds = %invoke.cont
  store i32 0, i32* %cleanup.dest.slot, align 4, !dbg !4040
  br label %cleanup, !dbg !4040

cleanup:                                          ; preds = %if.end24, %if.then22
  call void @_ZNSt3__112basic_stringIcNS_11char_traitsIcEENS_9allocatorIcEEED1Ev(%"class.std::__1::basic_string"* %__sp) #2, !dbg !4042
  %cleanup.dest = load i32, i32* %cleanup.dest.slot, align 4
  switch i32 %cleanup.dest, label %unreachable [
    i32 0, label %cleanup.cont
    i32 1, label %return
  ]

cleanup.cont:                                     ; preds = %cleanup
  br label %if.end25, !dbg !4044

if.end25:                                         ; preds = %cleanup.cont, %if.end15
  %58 = load i8*, i8** %__oe.addr, align 8, !dbg !4046
  %59 = load i8*, i8** %__op.addr, align 8, !dbg !4047
  %sub.ptr.lhs.cast26 = ptrtoint i8* %58 to i64, !dbg !4048
  %sub.ptr.rhs.cast27 = ptrtoint i8* %59 to i64, !dbg !4048
  %sub.ptr.sub28 = sub i64 %sub.ptr.lhs.cast26, %sub.ptr.rhs.cast27, !dbg !4048
  store i64 %sub.ptr.sub28, i64* %__np, align 8, !dbg !4049
  %60 = load i64, i64* %__np, align 8, !dbg !4050
  %cmp29 = icmp sgt i64 %60, 0, !dbg !4051
  br i1 %cmp29, label %if.then30, label %if.end37, !dbg !4052

if.then30:                                        ; preds = %if.end25
  %__sbuf_31 = getelementptr inbounds %"class.std::__1::ostreambuf_iterator", %"class.std::__1::ostreambuf_iterator"* %__s, i32 0, i32 0, !dbg !4053
  %61 = load %"class.std::__1::basic_streambuf"*, %"class.std::__1::basic_streambuf"** %__sbuf_31, align 8, !dbg !4053
  %62 = load i8*, i8** %__op.addr, align 8, !dbg !4054
  %63 = load i64, i64* %__np, align 8, !dbg !4055
  store %"class.std::__1::basic_streambuf"* %61, %"class.std::__1::basic_streambuf"** %this.addr.i44, align 8
  store i8* %62, i8** %__s.addr.i, align 8
  store i64 %63, i64* %__n.addr.i, align 8
  %this1.i45 = load %"class.std::__1::basic_streambuf"*, %"class.std::__1::basic_streambuf"** %this.addr.i44, align 8
  %64 = bitcast %"class.std::__1::basic_streambuf"* %this1.i45 to i64 (%"class.std::__1::basic_streambuf"*, i8*, i64)***, !dbg !4056
  %vtable.i = load i64 (%"class.std::__1::basic_streambuf"*, i8*, i64)**, i64 (%"class.std::__1::basic_streambuf"*, i8*, i64)*** %64, align 8, !dbg !4056
  %vfn.i = getelementptr inbounds i64 (%"class.std::__1::basic_streambuf"*, i8*, i64)*, i64 (%"class.std::__1::basic_streambuf"*, i8*, i64)** %vtable.i, i64 12, !dbg !4056
  %65 = load i64 (%"class.std::__1::basic_streambuf"*, i8*, i64)*, i64 (%"class.std::__1::basic_streambuf"*, i8*, i64)** %vfn.i, align 8, !dbg !4056
  %66 = load i8*, i8** %__s.addr.i, align 8, !dbg !4057
  %67 = load i64, i64* %__n.addr.i, align 8, !dbg !4058
  %call.i = call i64 %65(%"class.std::__1::basic_streambuf"* %this1.i45, i8* %66, i64 %67), !dbg !4056
  %68 = load i64, i64* %__np, align 8, !dbg !4059
  %cmp33 = icmp ne i64 %call.i, %68, !dbg !4060
  br i1 %cmp33, label %if.then34, label %if.end36, !dbg !4061

if.then34:                                        ; preds = %if.then30
  %__sbuf_35 = getelementptr inbounds %"class.std::__1::ostreambuf_iterator", %"class.std::__1::ostreambuf_iterator"* %__s, i32 0, i32 0, !dbg !4062
  store %"class.std::__1::basic_streambuf"* null, %"class.std::__1::basic_streambuf"** %__sbuf_35, align 8, !dbg !4064
  %69 = bitcast %"class.std::__1::ostreambuf_iterator"* %retval to i8*, !dbg !4065
  %70 = bitcast %"class.std::__1::ostreambuf_iterator"* %__s to i8*, !dbg !4065
  call void @llvm.memcpy.p0i8.p0i8.i64(i8* %69, i8* %70, i64 8, i32 8, i1 false), !dbg !4065
  br label %return, !dbg !4066

if.end36:                                         ; preds = %if.then30
  br label %if.end37, !dbg !4067

if.end37:                                         ; preds = %if.end36, %if.end25
  %71 = load %"class.std::__1::ios_base"*, %"class.std::__1::ios_base"** %__iob.addr, align 8, !dbg !4068
  store %"class.std::__1::ios_base"* %71, %"class.std::__1::ios_base"** %this.addr.i41, align 8
  store i64 0, i64* %__wide.addr.i, align 8
  %this1.i42 = load %"class.std::__1::ios_base"*, %"class.std::__1::ios_base"** %this.addr.i41, align 8
  %__width_.i43 = getelementptr inbounds %"class.std::__1::ios_base", %"class.std::__1::ios_base"* %this1.i42, i32 0, i32 3, !dbg !4069
  %72 = load i64, i64* %__width_.i43, align 8, !dbg !4069
  store i64 %72, i64* %__r.i, align 8, !dbg !3916
  %73 = load i64, i64* %__wide.addr.i, align 8, !dbg !4070
  %__width_2.i = getelementptr inbounds %"class.std::__1::ios_base", %"class.std::__1::ios_base"* %this1.i42, i32 0, i32 3, !dbg !4071
  store i64 %73, i64* %__width_2.i, align 8, !dbg !4072
  %74 = load i64, i64* %__r.i, align 8, !dbg !4073
  %75 = bitcast %"class.std::__1::ostreambuf_iterator"* %retval to i8*, !dbg !4074
  %76 = bitcast %"class.std::__1::ostreambuf_iterator"* %__s to i8*, !dbg !4074
  call void @llvm.memcpy.p0i8.p0i8.i64(i8* %75, i8* %76, i64 8, i32 8, i1 false), !dbg !4074
  br label %return, !dbg !4075

return:                                           ; preds = %if.end37, %if.then34, %cleanup, %if.then12, %if.then
  %coerce.dive39 = getelementptr inbounds %"class.std::__1::ostreambuf_iterator", %"class.std::__1::ostreambuf_iterator"* %retval, i32 0, i32 0, !dbg !4076
  %77 = load %"class.std::__1::basic_streambuf"*, %"class.std::__1::basic_streambuf"** %coerce.dive39, align 8, !dbg !4076
  ret %"class.std::__1::basic_streambuf"* %77, !dbg !4076

eh.resume:                                        ; preds = %lpad
  %exn = load i8*, i8** %exn.slot, align 8, !dbg !4078
  %sel = load i32, i32* %ehselector.slot, align 4, !dbg !4078
  %lpad.val = insertvalue { i8*, i32 } undef, i8* %exn, 0, !dbg !4078
  %lpad.val40 = insertvalue { i8*, i32 } %lpad.val, i32 %sel, 1, !dbg !4078
  resume { i8*, i32 } %lpad.val40, !dbg !4078

unreachable:                                      ; preds = %cleanup
  unreachable
}

; Function Attrs: nounwind
declare void @_ZNSt3__113basic_ostreamIcNS_11char_traitsIcEEE6sentryD1Ev(%"class.std::__1::basic_ostream<char, std::__1::char_traits<char> >::sentry"*) unnamed_addr #1

declare void @_ZNSt3__18ios_base33__set_badbit_and_consider_rethrowEv(%"class.std::__1::ios_base"*) #4

declare void @__cxa_end_catch()

; Function Attrs: argmemonly nounwind
declare void @llvm.memcpy.p0i8.p0i8.i64(i8* nocapture writeonly, i8* nocapture readonly, i64, i32, i1) #8

; Function Attrs: nounwind
declare void @_ZNSt3__112basic_stringIcNS_11char_traitsIcEENS_9allocatorIcEEED1Ev(%"class.std::__1::basic_string"*) unnamed_addr #1

declare void @_ZNSt3__112basic_stringIcNS_11char_traitsIcEENS_9allocatorIcEEE6__initEmc(%"class.std::__1::basic_string"*, i64, i8 signext) #4

; Function Attrs: noinline nounwind ssp uwtable
define linkonce_odr void @_ZNSt3__122__compressed_pair_elemINS_12basic_stringIcNS_11char_traitsIcEENS_9allocatorIcEEE5__repELi0ELb0EEC2Ev(%"struct.std::__1::__compressed_pair_elem"* %this) unnamed_addr #7 align 2 !dbg !4080 {
entry:
  %this.addr = alloca %"struct.std::__1::__compressed_pair_elem"*, align 8
  store %"struct.std::__1::__compressed_pair_elem"* %this, %"struct.std::__1::__compressed_pair_elem"** %this.addr, align 8
  call void @llvm.dbg.declare(metadata %"struct.std::__1::__compressed_pair_elem"** %this.addr, metadata !4081, metadata !3234), !dbg !4083
  %this1 = load %"struct.std::__1::__compressed_pair_elem"*, %"struct.std::__1::__compressed_pair_elem"** %this.addr, align 8
  %__value_ = getelementptr inbounds %"struct.std::__1::__compressed_pair_elem", %"struct.std::__1::__compressed_pair_elem"* %this1, i32 0, i32 0, !dbg !4084
  %0 = bitcast %"struct.std::__1::basic_string<char, std::__1::char_traits<char>, std::__1::allocator<char> >::__rep"* %__value_ to i8*, !dbg !4084
  call void @llvm.memset.p0i8.i64(i8* %0, i8 0, i64 24, i32 8, i1 false), !dbg !4084
  ret void, !dbg !4085
}

; Function Attrs: noinline nounwind ssp uwtable
define linkonce_odr void @_ZNSt3__122__compressed_pair_elemINS_9allocatorIcEELi1ELb1EEC2Ev(%"struct.std::__1::__compressed_pair_elem.1"* %this) unnamed_addr #7 align 2 !dbg !4086 {
entry:
  %this.addr.i = alloca %"class.std::__1::allocator"*, align 8
  call void @llvm.dbg.declare(metadata %"class.std::__1::allocator"** %this.addr.i, metadata !4087, metadata !3234), !dbg !4090
  %this.addr = alloca %"struct.std::__1::__compressed_pair_elem.1"*, align 8
  store %"struct.std::__1::__compressed_pair_elem.1"* %this, %"struct.std::__1::__compressed_pair_elem.1"** %this.addr, align 8
  call void @llvm.dbg.declare(metadata %"struct.std::__1::__compressed_pair_elem.1"** %this.addr, metadata !4092, metadata !3234), !dbg !4094
  %this1 = load %"struct.std::__1::__compressed_pair_elem.1"*, %"struct.std::__1::__compressed_pair_elem.1"** %this.addr, align 8
  %0 = bitcast %"struct.std::__1::__compressed_pair_elem.1"* %this1 to %"class.std::__1::allocator"*, !dbg !4095
  store %"class.std::__1::allocator"* %0, %"class.std::__1::allocator"** %this.addr.i, align 8
  %this1.i = load %"class.std::__1::allocator"*, %"class.std::__1::allocator"** %this.addr.i, align 8
  ret void, !dbg !4095
}

; Function Attrs: argmemonly nounwind
declare void @llvm.memset.p0i8.i64(i8* nocapture writeonly, i8, i64, i32, i1) #8

; Function Attrs: noinline nounwind ssp uwtable
define linkonce_odr dereferenceable(24) %"struct.std::__1::basic_string<char, std::__1::char_traits<char>, std::__1::allocator<char> >::__rep"* @_ZNKSt3__122__compressed_pair_elemINS_12basic_stringIcNS_11char_traitsIcEENS_9allocatorIcEEE5__repELi0ELb0EE5__getEv(%"struct.std::__1::__compressed_pair_elem"* %this) #7 align 2 !dbg !4096 {
entry:
  %this.addr = alloca %"struct.std::__1::__compressed_pair_elem"*, align 8
  store %"struct.std::__1::__compressed_pair_elem"* %this, %"struct.std::__1::__compressed_pair_elem"** %this.addr, align 8
  call void @llvm.dbg.declare(metadata %"struct.std::__1::__compressed_pair_elem"** %this.addr, metadata !4097, metadata !3234), !dbg !4099
  %this1 = load %"struct.std::__1::__compressed_pair_elem"*, %"struct.std::__1::__compressed_pair_elem"** %this.addr, align 8
  %__value_ = getelementptr inbounds %"struct.std::__1::__compressed_pair_elem", %"struct.std::__1::__compressed_pair_elem"* %this1, i32 0, i32 0, !dbg !4100
  ret %"struct.std::__1::basic_string<char, std::__1::char_traits<char>, std::__1::allocator<char> >::__rep"* %__value_, !dbg !4101
}

; Function Attrs: noinline nounwind ssp uwtable
define linkonce_odr zeroext i1 @_ZNSt3__111char_traitsIcE11eq_int_typeEii(i32 %__c1, i32 %__c2) #7 align 2 !dbg !4102 {
entry:
  %__c1.addr = alloca i32, align 4
  %__c2.addr = alloca i32, align 4
  store i32 %__c1, i32* %__c1.addr, align 4
  call void @llvm.dbg.declare(metadata i32* %__c1.addr, metadata !4103, metadata !3234), !dbg !4104
  store i32 %__c2, i32* %__c2.addr, align 4
  call void @llvm.dbg.declare(metadata i32* %__c2.addr, metadata !4105, metadata !3234), !dbg !4106
  %0 = load i32, i32* %__c1.addr, align 4, !dbg !4107
  %1 = load i32, i32* %__c2.addr, align 4, !dbg !4108
  %cmp = icmp eq i32 %0, %1, !dbg !4109
  ret i1 %cmp, !dbg !4110
}

; Function Attrs: noinline nounwind ssp uwtable
define linkonce_odr i32 @_ZNSt3__111char_traitsIcE3eofEv() #7 align 2 !dbg !4111 {
entry:
  ret i32 -1, !dbg !4112
}

declare void @_ZNKSt3__18ios_base6getlocEv(%"class.std::__1::locale"* sret, %"class.std::__1::ios_base"*) #4

; Function Attrs: nounwind
declare void @_ZNSt3__16localeD1Ev(%"class.std::__1::locale"*) unnamed_addr #1

declare %"class.std::__1::locale::facet"* @_ZNKSt3__16locale9use_facetERNS0_2idE(%"class.std::__1::locale"*, %"class.std::__1::locale::id"* dereferenceable(16)) #4

declare void @_ZNSt3__18ios_base5clearEj(%"class.std::__1::ios_base"*, i32) #4

; Function Attrs: nounwind
declare i64 @strlen(i8*) #1

; Function Attrs: noinline ssp uwtable
define linkonce_odr hidden void @_ZNSt3__16threadC2IRFvvEJEvEEOT_DpOT0_(%"class.std::__1::thread"* %this, void ()* %__f) unnamed_addr #0 align 2 personality i8* bitcast (i32 (...)* @__gxx_personality_v0 to i8*) !dbg !4113 {
entry:
  %this.addr.i12.i.i.i115 = alloca %"struct.std::__1::default_delete"*, align 8
  call void @llvm.dbg.declare(metadata %"struct.std::__1::default_delete"** %this.addr.i12.i.i.i115, metadata !4114, metadata !3234), !dbg !4117
  %__ptr.addr.i.i.i.i116 = alloca %"class.std::__1::__thread_struct"*, align 8
  call void @llvm.dbg.declare(metadata %"class.std::__1::__thread_struct"** %__ptr.addr.i.i.i.i116, metadata !4129, metadata !3234), !dbg !4130
  %this.addr.i9.i.i.i117 = alloca %"class.std::__1::__compressed_pair.2"*, align 8
  call void @llvm.dbg.declare(metadata %"class.std::__1::__compressed_pair.2"** %this.addr.i9.i.i.i117, metadata !4131, metadata !3234), !dbg !4134
  %this.addr.i6.i.i.i118 = alloca %"class.std::__1::__compressed_pair.2"*, align 8
  call void @llvm.dbg.declare(metadata %"class.std::__1::__compressed_pair.2"** %this.addr.i6.i.i.i118, metadata !4136, metadata !3234), !dbg !4138
  %this.addr.i.i.i.i119 = alloca %"class.std::__1::__compressed_pair.2"*, align 8
  call void @llvm.dbg.declare(metadata %"class.std::__1::__compressed_pair.2"** %this.addr.i.i.i.i119, metadata !4136, metadata !3234), !dbg !4140
  %this.addr.i.i.i120 = alloca %"class.std::__1::unique_ptr"*, align 8
  call void @llvm.dbg.declare(metadata %"class.std::__1::unique_ptr"** %this.addr.i.i.i120, metadata !4142, metadata !3234), !dbg !4144
  %__p.addr.i.i.i121 = alloca %"class.std::__1::__thread_struct"*, align 8
  call void @llvm.dbg.declare(metadata %"class.std::__1::__thread_struct"** %__p.addr.i.i.i121, metadata !4145, metadata !3234), !dbg !4146
  %__tmp.i.i.i122 = alloca %"class.std::__1::__thread_struct"*, align 8
  call void @llvm.dbg.declare(metadata %"class.std::__1::__thread_struct"** %__tmp.i.i.i122, metadata !4147, metadata !3234), !dbg !4148
  %this.addr.i.i123 = alloca %"class.std::__1::unique_ptr"*, align 8
  call void @llvm.dbg.declare(metadata %"class.std::__1::unique_ptr"** %this.addr.i.i123, metadata !4149, metadata !3234), !dbg !4150
  %this.addr.i124 = alloca %"class.std::__1::unique_ptr"*, align 8
  call void @llvm.dbg.declare(metadata %"class.std::__1::unique_ptr"** %this.addr.i124, metadata !4151, metadata !3234), !dbg !4152
  %this.addr.i12.i.i.i86 = alloca %"struct.std::__1::default_delete.10"*, align 8
  call void @llvm.dbg.declare(metadata %"struct.std::__1::default_delete.10"** %this.addr.i12.i.i.i86, metadata !4153, metadata !3234), !dbg !4169
  %__ptr.addr.i.i.i.i87 = alloca %"class.std::__1::tuple"*, align 8
  call void @llvm.dbg.declare(metadata %"class.std::__1::tuple"** %__ptr.addr.i.i.i.i87, metadata !4312, metadata !3234), !dbg !4313
  %this.addr.i9.i.i.i88 = alloca %"class.std::__1::__compressed_pair.6"*, align 8
  call void @llvm.dbg.declare(metadata %"class.std::__1::__compressed_pair.6"** %this.addr.i9.i.i.i88, metadata !4314, metadata !3234), !dbg !4317
  %this.addr.i6.i.i.i89 = alloca %"class.std::__1::__compressed_pair.6"*, align 8
  call void @llvm.dbg.declare(metadata %"class.std::__1::__compressed_pair.6"** %this.addr.i6.i.i.i89, metadata !4319, metadata !3234), !dbg !4321
  %this.addr.i.i.i.i90 = alloca %"class.std::__1::__compressed_pair.6"*, align 8
  call void @llvm.dbg.declare(metadata %"class.std::__1::__compressed_pair.6"** %this.addr.i.i.i.i90, metadata !4319, metadata !3234), !dbg !4323
  %this.addr.i.i.i91 = alloca %"class.std::__1::unique_ptr.5"*, align 8
  call void @llvm.dbg.declare(metadata %"class.std::__1::unique_ptr.5"** %this.addr.i.i.i91, metadata !4325, metadata !3234), !dbg !4327
  %__p.addr.i.i.i92 = alloca %"class.std::__1::tuple"*, align 8
  call void @llvm.dbg.declare(metadata %"class.std::__1::tuple"** %__p.addr.i.i.i92, metadata !4328, metadata !3234), !dbg !4329
  %__tmp.i.i.i93 = alloca %"class.std::__1::tuple"*, align 8
  call void @llvm.dbg.declare(metadata %"class.std::__1::tuple"** %__tmp.i.i.i93, metadata !4330, metadata !3234), !dbg !4331
  %this.addr.i.i94 = alloca %"class.std::__1::unique_ptr.5"*, align 8
  call void @llvm.dbg.declare(metadata %"class.std::__1::unique_ptr.5"** %this.addr.i.i94, metadata !4332, metadata !3234), !dbg !4333
  %this.addr.i95 = alloca %"class.std::__1::unique_ptr.5"*, align 8
  call void @llvm.dbg.declare(metadata %"class.std::__1::unique_ptr.5"** %this.addr.i95, metadata !4334, metadata !3234), !dbg !4335
  %this.addr.i12.i.i.i59 = alloca %"struct.std::__1::default_delete.10"*, align 8
  call void @llvm.dbg.declare(metadata %"struct.std::__1::default_delete.10"** %this.addr.i12.i.i.i59, metadata !4153, metadata !3234), !dbg !4336
  %__ptr.addr.i.i.i.i60 = alloca %"class.std::__1::tuple"*, align 8
  call void @llvm.dbg.declare(metadata %"class.std::__1::tuple"** %__ptr.addr.i.i.i.i60, metadata !4312, metadata !3234), !dbg !4342
  %this.addr.i9.i.i.i61 = alloca %"class.std::__1::__compressed_pair.6"*, align 8
  call void @llvm.dbg.declare(metadata %"class.std::__1::__compressed_pair.6"** %this.addr.i9.i.i.i61, metadata !4314, metadata !3234), !dbg !4343
  %this.addr.i6.i.i.i62 = alloca %"class.std::__1::__compressed_pair.6"*, align 8
  call void @llvm.dbg.declare(metadata %"class.std::__1::__compressed_pair.6"** %this.addr.i6.i.i.i62, metadata !4319, metadata !3234), !dbg !4345
  %this.addr.i.i.i.i63 = alloca %"class.std::__1::__compressed_pair.6"*, align 8
  call void @llvm.dbg.declare(metadata %"class.std::__1::__compressed_pair.6"** %this.addr.i.i.i.i63, metadata !4319, metadata !3234), !dbg !4347
  %this.addr.i.i.i64 = alloca %"class.std::__1::unique_ptr.5"*, align 8
  call void @llvm.dbg.declare(metadata %"class.std::__1::unique_ptr.5"** %this.addr.i.i.i64, metadata !4325, metadata !3234), !dbg !4349
  %__p.addr.i.i.i65 = alloca %"class.std::__1::tuple"*, align 8
  call void @llvm.dbg.declare(metadata %"class.std::__1::tuple"** %__p.addr.i.i.i65, metadata !4328, metadata !3234), !dbg !4350
  %__tmp.i.i.i66 = alloca %"class.std::__1::tuple"*, align 8
  call void @llvm.dbg.declare(metadata %"class.std::__1::tuple"** %__tmp.i.i.i66, metadata !4330, metadata !3234), !dbg !4351
  %this.addr.i.i67 = alloca %"class.std::__1::unique_ptr.5"*, align 8
  call void @llvm.dbg.declare(metadata %"class.std::__1::unique_ptr.5"** %this.addr.i.i67, metadata !4332, metadata !3234), !dbg !4352
  %this.addr.i68 = alloca %"class.std::__1::unique_ptr.5"*, align 8
  call void @llvm.dbg.declare(metadata %"class.std::__1::unique_ptr.5"** %this.addr.i68, metadata !4334, metadata !3234), !dbg !4353
  %this.addr.i4.i = alloca %"class.std::__1::__compressed_pair.6"*, align 8
  call void @llvm.dbg.declare(metadata %"class.std::__1::__compressed_pair.6"** %this.addr.i4.i, metadata !4319, metadata !3234), !dbg !4354
  %this.addr.i.i53 = alloca %"class.std::__1::__compressed_pair.6"*, align 8
  call void @llvm.dbg.declare(metadata %"class.std::__1::__compressed_pair.6"** %this.addr.i.i53, metadata !4319, metadata !3234), !dbg !4360
  %this.addr.i54 = alloca %"class.std::__1::unique_ptr.5"*, align 8
  call void @llvm.dbg.declare(metadata %"class.std::__1::unique_ptr.5"** %this.addr.i54, metadata !4362, metadata !3234), !dbg !4363
  %__t.i = alloca %"class.std::__1::tuple"*, align 8
  call void @llvm.dbg.declare(metadata %"class.std::__1::tuple"** %__t.i, metadata !4364, metadata !3234), !dbg !4365
  %__t.addr.i51 = alloca %struct._opaque_pthread_t**, align 8
  call void @llvm.dbg.declare(metadata %struct._opaque_pthread_t*** %__t.addr.i51, metadata !4366, metadata !3234), !dbg !4374
  %__func.addr.i = alloca i8* (i8*)*, align 8
  call void @llvm.dbg.declare(metadata i8* (i8*)** %__func.addr.i, metadata !4376, metadata !3234), !dbg !4377
  %__arg.addr.i = alloca i8*, align 8
  call void @llvm.dbg.declare(metadata i8** %__arg.addr.i, metadata !4378, metadata !3234), !dbg !4379
  %this.addr.i.i47 = alloca %"class.std::__1::__compressed_pair.6"*, align 8
  call void @llvm.dbg.declare(metadata %"class.std::__1::__compressed_pair.6"** %this.addr.i.i47, metadata !4380, metadata !3234), !dbg !4383
  %this.addr.i48 = alloca %"class.std::__1::unique_ptr.5"*, align 8
  call void @llvm.dbg.declare(metadata %"class.std::__1::unique_ptr.5"** %this.addr.i48, metadata !4387, metadata !3234), !dbg !4389
  %__t.addr.i.i.i.i.i33 = alloca %"class.std::__1::tuple"**, align 8
  call void @llvm.dbg.declare(metadata %"class.std::__1::tuple"*** %__t.addr.i.i.i.i.i33, metadata !4390, metadata !3234), !dbg !4399
  %this.addr.i.i.i.i34 = alloca %"class.std::__1::__compressed_pair.6"*, align 8
  call void @llvm.dbg.declare(metadata %"class.std::__1::__compressed_pair.6"** %this.addr.i.i.i.i34, metadata !4414, metadata !3234), !dbg !4415
  %__t.addr.i.i.i.i35 = alloca %"class.std::__1::tuple"**, align 8
  call void @llvm.dbg.declare(metadata %"class.std::__1::tuple"*** %__t.addr.i.i.i.i35, metadata !4416, metadata !3234), !dbg !4417
  %this.addr.i.i.i36 = alloca %"class.std::__1::__compressed_pair.6"*, align 8
  call void @llvm.dbg.declare(metadata %"class.std::__1::__compressed_pair.6"** %this.addr.i.i.i36, metadata !4418, metadata !3234), !dbg !4419
  %__t.addr.i.i.i37 = alloca %"class.std::__1::tuple"**, align 8
  call void @llvm.dbg.declare(metadata %"class.std::__1::tuple"*** %__t.addr.i.i.i37, metadata !4420, metadata !3234), !dbg !4421
  %this.addr.i.i38 = alloca %"class.std::__1::unique_ptr.5"*, align 8
  call void @llvm.dbg.declare(metadata %"class.std::__1::unique_ptr.5"** %this.addr.i.i38, metadata !4422, metadata !3234), !dbg !4423
  %__p.addr.i.i39 = alloca %"class.std::__1::tuple"*, align 8
  call void @llvm.dbg.declare(metadata %"class.std::__1::tuple"** %__p.addr.i.i39, metadata !4424, metadata !3234), !dbg !4425
  %this.addr.i40 = alloca %"class.std::__1::unique_ptr.5"*, align 8
  call void @llvm.dbg.declare(metadata %"class.std::__1::unique_ptr.5"** %this.addr.i40, metadata !4426, metadata !3234), !dbg !4427
  %__p.addr.i41 = alloca %"class.std::__1::tuple"*, align 8
  call void @llvm.dbg.declare(metadata %"class.std::__1::tuple"** %__p.addr.i41, metadata !4428, metadata !3234), !dbg !4429
  %__t.addr.i8.i.i = alloca void ()**, align 8
  call void @llvm.dbg.declare(metadata void ()*** %__t.addr.i8.i.i, metadata !4430, metadata !3234), !dbg !4440
  %__t.addr.i3.i.i.i.i.i.i.i.i.i = alloca %"struct.std::__1::default_delete"*, align 8
  call void @llvm.dbg.declare(metadata %"struct.std::__1::default_delete"** %__t.addr.i3.i.i.i.i.i.i.i.i.i, metadata !4454, metadata !3234), !dbg !4463
  %__t.addr.i.i.i.i.i.i.i.i.i.i = alloca %"class.std::__1::__thread_struct"**, align 8
  call void @llvm.dbg.declare(metadata %"class.std::__1::__thread_struct"*** %__t.addr.i.i.i.i.i.i.i.i.i.i, metadata !4509, metadata !3234), !dbg !4517
  %this.addr.i.i10.i.i.i.i.i.i.i = alloca %"class.std::__1::__compressed_pair.2"*, align 8
  call void @llvm.dbg.declare(metadata %"class.std::__1::__compressed_pair.2"** %this.addr.i.i10.i.i.i.i.i.i.i, metadata !4519, metadata !3234), !dbg !4520
  %__t1.addr.i.i.i.i.i.i.i.i.i = alloca %"class.std::__1::__thread_struct"**, align 8
  call void @llvm.dbg.declare(metadata %"class.std::__1::__thread_struct"*** %__t1.addr.i.i.i.i.i.i.i.i.i, metadata !4521, metadata !3234), !dbg !4522
  %__t2.addr.i.i.i.i.i.i.i.i.i = alloca %"struct.std::__1::default_delete"*, align 8
  call void @llvm.dbg.declare(metadata %"struct.std::__1::default_delete"** %__t2.addr.i.i.i.i.i.i.i.i.i, metadata !4523, metadata !3234), !dbg !4524
  %this.addr.i11.i.i.i.i.i.i.i = alloca %"class.std::__1::__compressed_pair.2"*, align 8
  call void @llvm.dbg.declare(metadata %"class.std::__1::__compressed_pair.2"** %this.addr.i11.i.i.i.i.i.i.i, metadata !4525, metadata !3234), !dbg !4526
  %__t1.addr.i.i.i.i.i.i.i.i = alloca %"class.std::__1::__thread_struct"**, align 8
  call void @llvm.dbg.declare(metadata %"class.std::__1::__thread_struct"*** %__t1.addr.i.i.i.i.i.i.i.i, metadata !4527, metadata !3234), !dbg !4528
  %__t2.addr.i.i.i.i.i.i.i.i = alloca %"struct.std::__1::default_delete"*, align 8
  call void @llvm.dbg.declare(metadata %"struct.std::__1::default_delete"** %__t2.addr.i.i.i.i.i.i.i.i, metadata !4529, metadata !3234), !dbg !4530
  %__t.addr.i.i.i.i.i.i.i.i = alloca %"struct.std::__1::default_delete"*, align 8
  call void @llvm.dbg.declare(metadata %"struct.std::__1::default_delete"** %__t.addr.i.i.i.i.i.i.i.i, metadata !4454, metadata !3234), !dbg !4531
  %this.addr.i.i4.i.i.i.i.i.i.i = alloca %"class.std::__1::__compressed_pair.2"*, align 8
  call void @llvm.dbg.declare(metadata %"class.std::__1::__compressed_pair.2"** %this.addr.i.i4.i.i.i.i.i.i.i, metadata !4131, metadata !3234), !dbg !4534
  %this.addr.i5.i.i.i.i.i.i.i = alloca %"class.std::__1::unique_ptr"*, align 8
  call void @llvm.dbg.declare(metadata %"class.std::__1::unique_ptr"** %this.addr.i5.i.i.i.i.i.i.i, metadata !4539, metadata !3234), !dbg !4540
  %this.addr.i4.i.i.i.i.i.i.i.i = alloca %"class.std::__1::__compressed_pair.2"*, align 8
  call void @llvm.dbg.declare(metadata %"class.std::__1::__compressed_pair.2"** %this.addr.i4.i.i.i.i.i.i.i.i, metadata !4136, metadata !3234), !dbg !4541
  %this.addr.i.i.i.i.i.i.i.i.i = alloca %"class.std::__1::__compressed_pair.2"*, align 8
  call void @llvm.dbg.declare(metadata %"class.std::__1::__compressed_pair.2"** %this.addr.i.i.i.i.i.i.i.i.i, metadata !4136, metadata !3234), !dbg !4545
  %this.addr.i.i.i.i.i.i.i.i = alloca %"class.std::__1::unique_ptr"*, align 8
  call void @llvm.dbg.declare(metadata %"class.std::__1::unique_ptr"** %this.addr.i.i.i.i.i.i.i.i, metadata !4547, metadata !3234), !dbg !4548
  %__t.i.i.i.i.i.i.i.i = alloca %"class.std::__1::__thread_struct"*, align 8
  call void @llvm.dbg.declare(metadata %"class.std::__1::__thread_struct"** %__t.i.i.i.i.i.i.i.i, metadata !4549, metadata !3234), !dbg !4550
  %this.addr.i.i.i.i.i.i.i = alloca %"class.std::__1::unique_ptr"*, align 8
  call void @llvm.dbg.declare(metadata %"class.std::__1::unique_ptr"** %this.addr.i.i.i.i.i.i.i, metadata !4551, metadata !3234), !dbg !4552
  %__u.addr.i.i.i.i.i.i.i = alloca %"class.std::__1::unique_ptr"*, align 8
  call void @llvm.dbg.declare(metadata %"class.std::__1::unique_ptr"** %__u.addr.i.i.i.i.i.i.i, metadata !4553, metadata !3234), !dbg !4554
  %ref.tmp.i.i.i.i.i.i.i = alloca %"class.std::__1::__thread_struct"*, align 8
  %this.addr.i.i.i.i.i.i = alloca %"class.std::__1::unique_ptr"*, align 8
  call void @llvm.dbg.declare(metadata %"class.std::__1::unique_ptr"** %this.addr.i.i.i.i.i.i, metadata !4555, metadata !3234), !dbg !4556
  %__u.addr.i.i.i.i.i.i = alloca %"class.std::__1::unique_ptr"*, align 8
  call void @llvm.dbg.declare(metadata %"class.std::__1::unique_ptr"** %__u.addr.i.i.i.i.i.i, metadata !4557, metadata !3234), !dbg !4558
  %__t.addr.i.i10.i.i.i.i = alloca %"class.std::__1::unique_ptr"*, align 8
  call void @llvm.dbg.declare(metadata %"class.std::__1::unique_ptr"** %__t.addr.i.i10.i.i.i.i, metadata !4559, metadata !3234), !dbg !4567
  %this.addr.i11.i.i.i.i = alloca %"class.std::__1::__tuple_leaf"*, align 8
  call void @llvm.dbg.declare(metadata %"class.std::__1::__tuple_leaf"** %this.addr.i11.i.i.i.i, metadata !4569, metadata !3234), !dbg !4571
  %__t.addr.i12.i.i.i.i = alloca %"class.std::__1::unique_ptr"*, align 8
  call void @llvm.dbg.declare(metadata %"class.std::__1::unique_ptr"** %__t.addr.i12.i.i.i.i, metadata !4572, metadata !3234), !dbg !4573
  %__t.addr.i9.i.i.i.i = alloca void ()**, align 8
  call void @llvm.dbg.declare(metadata void ()*** %__t.addr.i9.i.i.i.i, metadata !4430, metadata !3234), !dbg !4574
  %__t.addr.i.i.i.i.i.i = alloca void ()**, align 8
  call void @llvm.dbg.declare(metadata void ()*** %__t.addr.i.i.i.i.i.i, metadata !4430, metadata !3234), !dbg !4577
  %this.addr.i.i.i.i.i = alloca %"class.std::__1::__tuple_leaf.8"*, align 8
  call void @llvm.dbg.declare(metadata %"class.std::__1::__tuple_leaf.8"** %this.addr.i.i.i.i.i, metadata !4586, metadata !3234), !dbg !4588
  %__t.addr.i8.i.i.i.i = alloca void ()**, align 8
  call void @llvm.dbg.declare(metadata void ()*** %__t.addr.i8.i.i.i.i, metadata !4589, metadata !3234), !dbg !4590
  %__t.addr.i.i.i.i.i27 = alloca %"class.std::__1::unique_ptr"*, align 8
  call void @llvm.dbg.declare(metadata %"class.std::__1::unique_ptr"** %__t.addr.i.i.i.i.i27, metadata !4559, metadata !3234), !dbg !4591
  %this.addr.i.i.i.i28 = alloca %"struct.std::__1::__tuple_impl"*, align 8
  call void @llvm.dbg.declare(metadata %"struct.std::__1::__tuple_impl"** %this.addr.i.i.i.i28, metadata !4593, metadata !3234), !dbg !4595
  %__u.addr.i.i.i.i = alloca %"class.std::__1::unique_ptr"*, align 8
  call void @llvm.dbg.declare(metadata %"class.std::__1::unique_ptr"** %__u.addr.i.i.i.i, metadata !4596, metadata !3234), !dbg !4597
  %__u.addr5.i.i.i.i = alloca void ()**, align 8
  call void @llvm.dbg.declare(metadata void ()*** %__u.addr5.i.i.i.i, metadata !4598, metadata !3234), !dbg !4597
  %this.addr.i.i.i29 = alloca %"struct.std::__1::__tuple_impl"*, align 8
  call void @llvm.dbg.declare(metadata %"struct.std::__1::__tuple_impl"** %this.addr.i.i.i29, metadata !4599, metadata !3234), !dbg !4600
  %__u.addr.i.i.i = alloca %"class.std::__1::unique_ptr"*, align 8
  call void @llvm.dbg.declare(metadata %"class.std::__1::unique_ptr"** %__u.addr.i.i.i, metadata !4601, metadata !3234), !dbg !4602
  %__u.addr5.i.i.i = alloca void ()**, align 8
  call void @llvm.dbg.declare(metadata void ()*** %__u.addr5.i.i.i, metadata !4603, metadata !3234), !dbg !4602
  %__t.addr.i.i.i30 = alloca %"class.std::__1::unique_ptr"*, align 8
  call void @llvm.dbg.declare(metadata %"class.std::__1::unique_ptr"** %__t.addr.i.i.i30, metadata !4559, metadata !3234), !dbg !4604
  %this.addr.i.i31 = alloca %"class.std::__1::tuple"*, align 8
  call void @llvm.dbg.declare(metadata %"class.std::__1::tuple"** %this.addr.i.i31, metadata !4606, metadata !3234), !dbg !4607
  %__u.addr.i.i = alloca %"class.std::__1::unique_ptr"*, align 8
  call void @llvm.dbg.declare(metadata %"class.std::__1::unique_ptr"** %__u.addr.i.i, metadata !4608, metadata !3234), !dbg !4609
  %__u.addr2.i.i = alloca void ()**, align 8
  call void @llvm.dbg.declare(metadata void ()*** %__u.addr2.i.i, metadata !4610, metadata !3234), !dbg !4609
  %this.addr.i32 = alloca %"class.std::__1::tuple"*, align 8
  call void @llvm.dbg.declare(metadata %"class.std::__1::tuple"** %this.addr.i32, metadata !4611, metadata !3234), !dbg !4612
  %__u.addr.i = alloca %"class.std::__1::unique_ptr"*, align 8
  call void @llvm.dbg.declare(metadata %"class.std::__1::unique_ptr"** %__u.addr.i, metadata !4613, metadata !3234), !dbg !4614
  %__u.addr2.i = alloca void ()**, align 8
  call void @llvm.dbg.declare(metadata void ()*** %__u.addr2.i, metadata !4615, metadata !3234), !dbg !4614
  %__t.addr.i.i = alloca void ()*, align 8
  call void @llvm.dbg.declare(metadata void ()** %__t.addr.i.i, metadata !4616, metadata !3234), !dbg !4625
  %__t.addr.i26 = alloca void ()*, align 8
  call void @llvm.dbg.declare(metadata void ()** %__t.addr.i26, metadata !4642, metadata !3234), !dbg !4643
  %__t.addr.i25 = alloca void ()*, align 8
  call void @llvm.dbg.declare(metadata void ()** %__t.addr.i25, metadata !4616, metadata !3234), !dbg !4644
  %this.addr.i12.i.i.i = alloca %"struct.std::__1::default_delete"*, align 8
  call void @llvm.dbg.declare(metadata %"struct.std::__1::default_delete"** %this.addr.i12.i.i.i, metadata !4114, metadata !3234), !dbg !4646
  %__ptr.addr.i.i.i.i = alloca %"class.std::__1::__thread_struct"*, align 8
  call void @llvm.dbg.declare(metadata %"class.std::__1::__thread_struct"** %__ptr.addr.i.i.i.i, metadata !4129, metadata !3234), !dbg !4652
  %this.addr.i9.i.i.i = alloca %"class.std::__1::__compressed_pair.2"*, align 8
  call void @llvm.dbg.declare(metadata %"class.std::__1::__compressed_pair.2"** %this.addr.i9.i.i.i, metadata !4131, metadata !3234), !dbg !4653
  %this.addr.i6.i.i.i = alloca %"class.std::__1::__compressed_pair.2"*, align 8
  call void @llvm.dbg.declare(metadata %"class.std::__1::__compressed_pair.2"** %this.addr.i6.i.i.i, metadata !4136, metadata !3234), !dbg !4655
  %this.addr.i.i.i.i17 = alloca %"class.std::__1::__compressed_pair.2"*, align 8
  call void @llvm.dbg.declare(metadata %"class.std::__1::__compressed_pair.2"** %this.addr.i.i.i.i17, metadata !4136, metadata !3234), !dbg !4657
  %this.addr.i.i.i18 = alloca %"class.std::__1::unique_ptr"*, align 8
  call void @llvm.dbg.declare(metadata %"class.std::__1::unique_ptr"** %this.addr.i.i.i18, metadata !4142, metadata !3234), !dbg !4659
  %__p.addr.i.i.i = alloca %"class.std::__1::__thread_struct"*, align 8
  call void @llvm.dbg.declare(metadata %"class.std::__1::__thread_struct"** %__p.addr.i.i.i, metadata !4145, metadata !3234), !dbg !4660
  %__tmp.i.i.i = alloca %"class.std::__1::__thread_struct"*, align 8
  call void @llvm.dbg.declare(metadata %"class.std::__1::__thread_struct"** %__tmp.i.i.i, metadata !4147, metadata !3234), !dbg !4661
  %this.addr.i.i19 = alloca %"class.std::__1::unique_ptr"*, align 8
  call void @llvm.dbg.declare(metadata %"class.std::__1::unique_ptr"** %this.addr.i.i19, metadata !4149, metadata !3234), !dbg !4662
  %this.addr.i20 = alloca %"class.std::__1::unique_ptr"*, align 8
  call void @llvm.dbg.declare(metadata %"class.std::__1::unique_ptr"** %this.addr.i20, metadata !4151, metadata !3234), !dbg !4663
  %__t.addr.i = alloca %"class.std::__1::unique_ptr"*, align 8
  call void @llvm.dbg.declare(metadata %"class.std::__1::unique_ptr"** %__t.addr.i, metadata !4664, metadata !3234), !dbg !4673
  %__t.addr.i.i.i.i.i = alloca %"class.std::__1::__thread_struct"**, align 8
  call void @llvm.dbg.declare(metadata %"class.std::__1::__thread_struct"*** %__t.addr.i.i.i.i.i, metadata !4676, metadata !3234), !dbg !4685
  %this.addr.i.i.i.i = alloca %"class.std::__1::__compressed_pair.2"*, align 8
  call void @llvm.dbg.declare(metadata %"class.std::__1::__compressed_pair.2"** %this.addr.i.i.i.i, metadata !4700, metadata !3234), !dbg !4701
  %__t.addr.i.i.i.i = alloca %"class.std::__1::__thread_struct"**, align 8
  call void @llvm.dbg.declare(metadata %"class.std::__1::__thread_struct"*** %__t.addr.i.i.i.i, metadata !4702, metadata !3234), !dbg !4703
  %this.addr.i.i.i = alloca %"class.std::__1::__compressed_pair.2"*, align 8
  call void @llvm.dbg.declare(metadata %"class.std::__1::__compressed_pair.2"** %this.addr.i.i.i, metadata !4704, metadata !3234), !dbg !4705
  %__t.addr.i.i.i = alloca %"class.std::__1::__thread_struct"**, align 8
  call void @llvm.dbg.declare(metadata %"class.std::__1::__thread_struct"*** %__t.addr.i.i.i, metadata !4706, metadata !3234), !dbg !4707
  %this.addr.i.i = alloca %"class.std::__1::unique_ptr"*, align 8
  call void @llvm.dbg.declare(metadata %"class.std::__1::unique_ptr"** %this.addr.i.i, metadata !4708, metadata !3234), !dbg !4709
  %__p.addr.i.i = alloca %"class.std::__1::__thread_struct"*, align 8
  call void @llvm.dbg.declare(metadata %"class.std::__1::__thread_struct"** %__p.addr.i.i, metadata !4710, metadata !3234), !dbg !4711
  %this.addr.i = alloca %"class.std::__1::unique_ptr"*, align 8
  call void @llvm.dbg.declare(metadata %"class.std::__1::unique_ptr"** %this.addr.i, metadata !4712, metadata !3234), !dbg !4713
  %__p.addr.i = alloca %"class.std::__1::__thread_struct"*, align 8
  call void @llvm.dbg.declare(metadata %"class.std::__1::__thread_struct"** %__p.addr.i, metadata !4714, metadata !3234), !dbg !4715
  %this.addr = alloca %"class.std::__1::thread"*, align 8
  %__f.addr = alloca void ()*, align 8
  %__tsp = alloca %"class.std::__1::unique_ptr", align 8
  %exn.slot = alloca i8*
  %ehselector.slot = alloca i32
  %__p = alloca %"class.std::__1::unique_ptr.5", align 8
  %ref.tmp = alloca void ()*, align 8
  %__ec = alloca i32, align 4
  store %"class.std::__1::thread"* %this, %"class.std::__1::thread"** %this.addr, align 8
  call void @llvm.dbg.declare(metadata %"class.std::__1::thread"** %this.addr, metadata !4716, metadata !3234), !dbg !4717
  store void ()* %__f, void ()** %__f.addr, align 8
  call void @llvm.dbg.declare(metadata void ()** %__f.addr, metadata !4718, metadata !3234), !dbg !4719
  %this1 = load %"class.std::__1::thread"*, %"class.std::__1::thread"** %this.addr, align 8
  call void @llvm.dbg.declare(metadata %"class.std::__1::unique_ptr"* %__tsp, metadata !4720, metadata !3234), !dbg !4722
  %call = call i8* @_Znwm(i64 8) #13, !dbg !4723
  %0 = bitcast i8* %call to %"class.std::__1::__thread_struct"*, !dbg !4723
  invoke void @_ZNSt3__115__thread_structC1Ev(%"class.std::__1::__thread_struct"* %0)
          to label %invoke.cont unwind label %lpad, !dbg !4724

invoke.cont:                                      ; preds = %entry
  store %"class.std::__1::unique_ptr"* %__tsp, %"class.std::__1::unique_ptr"** %this.addr.i, align 8
  store %"class.std::__1::__thread_struct"* %0, %"class.std::__1::__thread_struct"** %__p.addr.i, align 8
  %this1.i = load %"class.std::__1::unique_ptr"*, %"class.std::__1::unique_ptr"** %this.addr.i, align 8
  %1 = load %"class.std::__1::__thread_struct"*, %"class.std::__1::__thread_struct"** %__p.addr.i, align 8, !dbg !4725
  store %"class.std::__1::unique_ptr"* %this1.i, %"class.std::__1::unique_ptr"** %this.addr.i.i, align 8
  store %"class.std::__1::__thread_struct"* %1, %"class.std::__1::__thread_struct"** %__p.addr.i.i, align 8
  %this1.i.i = load %"class.std::__1::unique_ptr"*, %"class.std::__1::unique_ptr"** %this.addr.i.i, align 8
  %__ptr_.i.i = getelementptr inbounds %"class.std::__1::unique_ptr", %"class.std::__1::unique_ptr"* %this1.i.i, i32 0, i32 0, !dbg !4726
  store %"class.std::__1::__compressed_pair.2"* %__ptr_.i.i, %"class.std::__1::__compressed_pair.2"** %this.addr.i.i.i, align 8
  store %"class.std::__1::__thread_struct"** %__p.addr.i.i, %"class.std::__1::__thread_struct"*** %__t.addr.i.i.i, align 8
  %this1.i.i.i = load %"class.std::__1::__compressed_pair.2"*, %"class.std::__1::__compressed_pair.2"** %this.addr.i.i.i, align 8
  %2 = load %"class.std::__1::__thread_struct"**, %"class.std::__1::__thread_struct"*** %__t.addr.i.i.i, align 8, !dbg !4727
  store %"class.std::__1::__compressed_pair.2"* %this1.i.i.i, %"class.std::__1::__compressed_pair.2"** %this.addr.i.i.i.i, align 8
  store %"class.std::__1::__thread_struct"** %2, %"class.std::__1::__thread_struct"*** %__t.addr.i.i.i.i, align 8
  %this1.i.i.i.i = load %"class.std::__1::__compressed_pair.2"*, %"class.std::__1::__compressed_pair.2"** %this.addr.i.i.i.i, align 8
  %3 = bitcast %"class.std::__1::__compressed_pair.2"* %this1.i.i.i.i to %"struct.std::__1::__compressed_pair_elem.3"*, !dbg !4728
  %4 = load %"class.std::__1::__thread_struct"**, %"class.std::__1::__thread_struct"*** %__t.addr.i.i.i.i, align 8, !dbg !4729
  store %"class.std::__1::__thread_struct"** %4, %"class.std::__1::__thread_struct"*** %__t.addr.i.i.i.i.i, align 8
  %5 = load %"class.std::__1::__thread_struct"**, %"class.std::__1::__thread_struct"*** %__t.addr.i.i.i.i.i, align 8, !dbg !4730
  call void @_ZNSt3__122__compressed_pair_elemIPNS_15__thread_structELi0ELb0EEC2IRS2_vEEOT_(%"struct.std::__1::__compressed_pair_elem.3"* %3, %"class.std::__1::__thread_struct"** dereferenceable(8) %5) #2, !dbg !4731
  %6 = bitcast %"class.std::__1::__compressed_pair.2"* %this1.i.i.i.i to %"struct.std::__1::__compressed_pair_elem.4"*, !dbg !4728
  call void @llvm.dbg.declare(metadata %"class.std::__1::unique_ptr.5"* %__p, metadata !4733, metadata !3234), !dbg !4734
  %call4 = invoke i8* @_Znwm(i64 16) #13
          to label %invoke.cont3 unwind label %lpad2, !dbg !4735

invoke.cont3:                                     ; preds = %invoke.cont
  %7 = bitcast i8* %call4 to %"class.std::__1::tuple"*, !dbg !4736
  store %"class.std::__1::unique_ptr"* %__tsp, %"class.std::__1::unique_ptr"** %__t.addr.i, align 8
  %8 = load %"class.std::__1::unique_ptr"*, %"class.std::__1::unique_ptr"** %__t.addr.i, align 8, !dbg !4737
  %9 = load void ()*, void ()** %__f.addr, align 8, !dbg !4738
  store void ()* %9, void ()** %__t.addr.i25, align 8
  %10 = load void ()*, void ()** %__t.addr.i25, align 8, !dbg !4739
  store void ()* %10, void ()** %__t.addr.i26, align 8
  %11 = load void ()*, void ()** %__t.addr.i26, align 8, !dbg !4740
  store void ()* %11, void ()** %__t.addr.i.i, align 8
  %12 = load void ()*, void ()** %__t.addr.i.i, align 8, !dbg !4741
  br label %invoke.cont8, !dbg !4742

invoke.cont8:                                     ; preds = %invoke.cont3
  store void ()* %12, void ()** %ref.tmp, align 8, !dbg !4743
  store %"class.std::__1::tuple"* %7, %"class.std::__1::tuple"** %this.addr.i32, align 8
  store %"class.std::__1::unique_ptr"* %8, %"class.std::__1::unique_ptr"** %__u.addr.i, align 8
  store void ()** %ref.tmp, void ()*** %__u.addr2.i, align 8
  %this3.i = load %"class.std::__1::tuple"*, %"class.std::__1::tuple"** %this.addr.i32, align 8
  %13 = load %"class.std::__1::unique_ptr"*, %"class.std::__1::unique_ptr"** %__u.addr.i, align 8, !dbg !4744
  %14 = load void ()**, void ()*** %__u.addr2.i, align 8, !dbg !4744
  store %"class.std::__1::tuple"* %this3.i, %"class.std::__1::tuple"** %this.addr.i.i31, align 8
  store %"class.std::__1::unique_ptr"* %13, %"class.std::__1::unique_ptr"** %__u.addr.i.i, align 8
  store void ()** %14, void ()*** %__u.addr2.i.i, align 8
  %this3.i.i = load %"class.std::__1::tuple"*, %"class.std::__1::tuple"** %this.addr.i.i31, align 8
  %base_.i.i = getelementptr inbounds %"class.std::__1::tuple", %"class.std::__1::tuple"* %this3.i.i, i32 0, i32 0, !dbg !4745
  %15 = load %"class.std::__1::unique_ptr"*, %"class.std::__1::unique_ptr"** %__u.addr.i.i, align 8, !dbg !4746
  store %"class.std::__1::unique_ptr"* %15, %"class.std::__1::unique_ptr"** %__t.addr.i.i.i30, align 8
  %16 = load %"class.std::__1::unique_ptr"*, %"class.std::__1::unique_ptr"** %__t.addr.i.i.i30, align 8, !dbg !4747
  %17 = load void ()**, void ()*** %__u.addr2.i.i, align 8, !dbg !4746
  store void ()** %17, void ()*** %__t.addr.i8.i.i, align 8
  %18 = load void ()**, void ()*** %__t.addr.i8.i.i, align 8, !dbg !4748
  store %"struct.std::__1::__tuple_impl"* %base_.i.i, %"struct.std::__1::__tuple_impl"** %this.addr.i.i.i29, align 8
  call void @llvm.dbg.declare(metadata !199, metadata !4749, metadata !3234) #2, !dbg !4750
  call void @llvm.dbg.declare(metadata !199, metadata !4751, metadata !3234) #2, !dbg !4752
  call void @llvm.dbg.declare(metadata !199, metadata !4753, metadata !3234) #2, !dbg !4754
  call void @llvm.dbg.declare(metadata !199, metadata !4755, metadata !3234) #2, !dbg !4756
  store %"class.std::__1::unique_ptr"* %16, %"class.std::__1::unique_ptr"** %__u.addr.i.i.i, align 8
  store void ()** %18, void ()*** %__u.addr5.i.i.i, align 8
  %this6.i.i.i = load %"struct.std::__1::__tuple_impl"*, %"struct.std::__1::__tuple_impl"** %this.addr.i.i.i29, align 8
  %19 = load %"class.std::__1::unique_ptr"*, %"class.std::__1::unique_ptr"** %__u.addr.i.i.i, align 8, !dbg !4757
  %20 = load void ()**, void ()*** %__u.addr5.i.i.i, align 8, !dbg !4757
  store %"struct.std::__1::__tuple_impl"* %this6.i.i.i, %"struct.std::__1::__tuple_impl"** %this.addr.i.i.i.i28, align 8
  call void @llvm.dbg.declare(metadata !199, metadata !4758, metadata !3234) #2, !dbg !4759
  call void @llvm.dbg.declare(metadata !199, metadata !4760, metadata !3234) #2, !dbg !4761
  call void @llvm.dbg.declare(metadata !199, metadata !4762, metadata !3234) #2, !dbg !4763
  call void @llvm.dbg.declare(metadata !199, metadata !4764, metadata !3234) #2, !dbg !4765
  store %"class.std::__1::unique_ptr"* %19, %"class.std::__1::unique_ptr"** %__u.addr.i.i.i.i, align 8
  store void ()** %20, void ()*** %__u.addr5.i.i.i.i, align 8
  %this6.i.i.i.i = load %"struct.std::__1::__tuple_impl"*, %"struct.std::__1::__tuple_impl"** %this.addr.i.i.i.i28, align 8
  %21 = bitcast %"struct.std::__1::__tuple_impl"* %this6.i.i.i.i to %"class.std::__1::__tuple_leaf"*, !dbg !4766
  %22 = load %"class.std::__1::unique_ptr"*, %"class.std::__1::unique_ptr"** %__u.addr.i.i.i.i, align 8, !dbg !4767
  store %"class.std::__1::unique_ptr"* %22, %"class.std::__1::unique_ptr"** %__t.addr.i.i.i.i.i27, align 8
  %23 = load %"class.std::__1::unique_ptr"*, %"class.std::__1::unique_ptr"** %__t.addr.i.i.i.i.i27, align 8, !dbg !4768
  store %"class.std::__1::__tuple_leaf"* %21, %"class.std::__1::__tuple_leaf"** %this.addr.i11.i.i.i.i, align 8
  store %"class.std::__1::unique_ptr"* %23, %"class.std::__1::unique_ptr"** %__t.addr.i12.i.i.i.i, align 8
  %this1.i13.i.i.i.i = load %"class.std::__1::__tuple_leaf"*, %"class.std::__1::__tuple_leaf"** %this.addr.i11.i.i.i.i, align 8
  %value.i14.i.i.i.i = getelementptr inbounds %"class.std::__1::__tuple_leaf", %"class.std::__1::__tuple_leaf"* %this1.i13.i.i.i.i, i32 0, i32 0, !dbg !4769
  %24 = load %"class.std::__1::unique_ptr"*, %"class.std::__1::unique_ptr"** %__t.addr.i12.i.i.i.i, align 8, !dbg !4770
  store %"class.std::__1::unique_ptr"* %24, %"class.std::__1::unique_ptr"** %__t.addr.i.i10.i.i.i.i, align 8
  %25 = load %"class.std::__1::unique_ptr"*, %"class.std::__1::unique_ptr"** %__t.addr.i.i10.i.i.i.i, align 8, !dbg !4771
  store %"class.std::__1::unique_ptr"* %value.i14.i.i.i.i, %"class.std::__1::unique_ptr"** %this.addr.i.i.i.i.i.i, align 8
  store %"class.std::__1::unique_ptr"* %25, %"class.std::__1::unique_ptr"** %__u.addr.i.i.i.i.i.i, align 8
  %this1.i.i.i.i.i.i = load %"class.std::__1::unique_ptr"*, %"class.std::__1::unique_ptr"** %this.addr.i.i.i.i.i.i, align 8
  %26 = load %"class.std::__1::unique_ptr"*, %"class.std::__1::unique_ptr"** %__u.addr.i.i.i.i.i.i, align 8, !dbg !4772
  store %"class.std::__1::unique_ptr"* %this1.i.i.i.i.i.i, %"class.std::__1::unique_ptr"** %this.addr.i.i.i.i.i.i.i, align 8
  store %"class.std::__1::unique_ptr"* %26, %"class.std::__1::unique_ptr"** %__u.addr.i.i.i.i.i.i.i, align 8
  %this1.i.i.i.i.i.i.i = load %"class.std::__1::unique_ptr"*, %"class.std::__1::unique_ptr"** %this.addr.i.i.i.i.i.i.i, align 8
  %__ptr_.i.i.i.i.i.i.i = getelementptr inbounds %"class.std::__1::unique_ptr", %"class.std::__1::unique_ptr"* %this1.i.i.i.i.i.i.i, i32 0, i32 0, !dbg !4773
  %27 = load %"class.std::__1::unique_ptr"*, %"class.std::__1::unique_ptr"** %__u.addr.i.i.i.i.i.i.i, align 8, !dbg !4774
  store %"class.std::__1::unique_ptr"* %27, %"class.std::__1::unique_ptr"** %this.addr.i.i.i.i.i.i.i.i, align 8
  %this1.i.i.i.i.i.i.i.i = load %"class.std::__1::unique_ptr"*, %"class.std::__1::unique_ptr"** %this.addr.i.i.i.i.i.i.i.i, align 8
  %__ptr_.i.i.i.i.i.i.i.i = getelementptr inbounds %"class.std::__1::unique_ptr", %"class.std::__1::unique_ptr"* %this1.i.i.i.i.i.i.i.i, i32 0, i32 0, !dbg !4775
  store %"class.std::__1::__compressed_pair.2"* %__ptr_.i.i.i.i.i.i.i.i, %"class.std::__1::__compressed_pair.2"** %this.addr.i.i.i.i.i.i.i.i.i, align 8
  %this1.i.i.i.i.i.i.i.i.i = load %"class.std::__1::__compressed_pair.2"*, %"class.std::__1::__compressed_pair.2"** %this.addr.i.i.i.i.i.i.i.i.i, align 8
  %28 = bitcast %"class.std::__1::__compressed_pair.2"* %this1.i.i.i.i.i.i.i.i.i to %"struct.std::__1::__compressed_pair_elem.3"*, !dbg !4776
  %call.i.i.i.i.i.i.i.i.i = call dereferenceable(8) %"class.std::__1::__thread_struct"** @_ZNSt3__122__compressed_pair_elemIPNS_15__thread_structELi0ELb0EE5__getEv(%"struct.std::__1::__compressed_pair_elem.3"* %28) #2, !dbg !4777
  %29 = load %"class.std::__1::__thread_struct"*, %"class.std::__1::__thread_struct"** %call.i.i.i.i.i.i.i.i.i, align 8, !dbg !4778
  store %"class.std::__1::__thread_struct"* %29, %"class.std::__1::__thread_struct"** %__t.i.i.i.i.i.i.i.i, align 8, !dbg !4550
  %__ptr_2.i.i.i.i.i.i.i.i = getelementptr inbounds %"class.std::__1::unique_ptr", %"class.std::__1::unique_ptr"* %this1.i.i.i.i.i.i.i.i, i32 0, i32 0, !dbg !4779
  store %"class.std::__1::__compressed_pair.2"* %__ptr_2.i.i.i.i.i.i.i.i, %"class.std::__1::__compressed_pair.2"** %this.addr.i4.i.i.i.i.i.i.i.i, align 8
  %this1.i5.i.i.i.i.i.i.i.i = load %"class.std::__1::__compressed_pair.2"*, %"class.std::__1::__compressed_pair.2"** %this.addr.i4.i.i.i.i.i.i.i.i, align 8
  %30 = bitcast %"class.std::__1::__compressed_pair.2"* %this1.i5.i.i.i.i.i.i.i.i to %"struct.std::__1::__compressed_pair_elem.3"*, !dbg !4780
  %call.i6.i.i.i.i.i.i.i.i = call dereferenceable(8) %"class.std::__1::__thread_struct"** @_ZNSt3__122__compressed_pair_elemIPNS_15__thread_structELi0ELb0EE5__getEv(%"struct.std::__1::__compressed_pair_elem.3"* %30) #2, !dbg !4781
  store %"class.std::__1::__thread_struct"* null, %"class.std::__1::__thread_struct"** %call.i6.i.i.i.i.i.i.i.i, align 8, !dbg !4782
  %31 = load %"class.std::__1::__thread_struct"*, %"class.std::__1::__thread_struct"** %__t.i.i.i.i.i.i.i.i, align 8, !dbg !4783
  store %"class.std::__1::__thread_struct"* %31, %"class.std::__1::__thread_struct"** %ref.tmp.i.i.i.i.i.i.i, align 8, !dbg !4774
  %32 = load %"class.std::__1::unique_ptr"*, %"class.std::__1::unique_ptr"** %__u.addr.i.i.i.i.i.i.i, align 8, !dbg !4784
  store %"class.std::__1::unique_ptr"* %32, %"class.std::__1::unique_ptr"** %this.addr.i5.i.i.i.i.i.i.i, align 8
  %this1.i6.i.i.i.i.i.i.i = load %"class.std::__1::unique_ptr"*, %"class.std::__1::unique_ptr"** %this.addr.i5.i.i.i.i.i.i.i, align 8
  %__ptr_.i7.i.i.i.i.i.i.i = getelementptr inbounds %"class.std::__1::unique_ptr", %"class.std::__1::unique_ptr"* %this1.i6.i.i.i.i.i.i.i, i32 0, i32 0, !dbg !4785
  store %"class.std::__1::__compressed_pair.2"* %__ptr_.i7.i.i.i.i.i.i.i, %"class.std::__1::__compressed_pair.2"** %this.addr.i.i4.i.i.i.i.i.i.i, align 8
  %this1.i.i8.i.i.i.i.i.i.i = load %"class.std::__1::__compressed_pair.2"*, %"class.std::__1::__compressed_pair.2"** %this.addr.i.i4.i.i.i.i.i.i.i, align 8
  %33 = bitcast %"class.std::__1::__compressed_pair.2"* %this1.i.i8.i.i.i.i.i.i.i to %"struct.std::__1::__compressed_pair_elem.4"*, !dbg !4786
  %call.i.i9.i.i.i.i.i.i.i = call dereferenceable(1) %"struct.std::__1::default_delete"* @_ZNSt3__122__compressed_pair_elemINS_14default_deleteINS_15__thread_structEEELi1ELb1EE5__getEv(%"struct.std::__1::__compressed_pair_elem.4"* %33) #2, !dbg !4787
  store %"struct.std::__1::default_delete"* %call.i.i9.i.i.i.i.i.i.i, %"struct.std::__1::default_delete"** %__t.addr.i.i.i.i.i.i.i.i, align 8
  %34 = load %"struct.std::__1::default_delete"*, %"struct.std::__1::default_delete"** %__t.addr.i.i.i.i.i.i.i.i, align 8, !dbg !4788
  store %"class.std::__1::__compressed_pair.2"* %__ptr_.i.i.i.i.i.i.i, %"class.std::__1::__compressed_pair.2"** %this.addr.i11.i.i.i.i.i.i.i, align 8
  store %"class.std::__1::__thread_struct"** %ref.tmp.i.i.i.i.i.i.i, %"class.std::__1::__thread_struct"*** %__t1.addr.i.i.i.i.i.i.i.i, align 8
  store %"struct.std::__1::default_delete"* %34, %"struct.std::__1::default_delete"** %__t2.addr.i.i.i.i.i.i.i.i, align 8
  %this1.i12.i.i.i.i.i.i.i = load %"class.std::__1::__compressed_pair.2"*, %"class.std::__1::__compressed_pair.2"** %this.addr.i11.i.i.i.i.i.i.i, align 8
  %35 = load %"class.std::__1::__thread_struct"**, %"class.std::__1::__thread_struct"*** %__t1.addr.i.i.i.i.i.i.i.i, align 8, !dbg !4789
  %36 = load %"struct.std::__1::default_delete"*, %"struct.std::__1::default_delete"** %__t2.addr.i.i.i.i.i.i.i.i, align 8, !dbg !4789
  store %"class.std::__1::__compressed_pair.2"* %this1.i12.i.i.i.i.i.i.i, %"class.std::__1::__compressed_pair.2"** %this.addr.i.i10.i.i.i.i.i.i.i, align 8
  store %"class.std::__1::__thread_struct"** %35, %"class.std::__1::__thread_struct"*** %__t1.addr.i.i.i.i.i.i.i.i.i, align 8
  store %"struct.std::__1::default_delete"* %36, %"struct.std::__1::default_delete"** %__t2.addr.i.i.i.i.i.i.i.i.i, align 8
  %this1.i.i13.i.i.i.i.i.i.i = load %"class.std::__1::__compressed_pair.2"*, %"class.std::__1::__compressed_pair.2"** %this.addr.i.i10.i.i.i.i.i.i.i, align 8
  %37 = bitcast %"class.std::__1::__compressed_pair.2"* %this1.i.i13.i.i.i.i.i.i.i to %"struct.std::__1::__compressed_pair_elem.3"*, !dbg !4790
  %38 = load %"class.std::__1::__thread_struct"**, %"class.std::__1::__thread_struct"*** %__t1.addr.i.i.i.i.i.i.i.i.i, align 8, !dbg !4791
  store %"class.std::__1::__thread_struct"** %38, %"class.std::__1::__thread_struct"*** %__t.addr.i.i.i.i.i.i.i.i.i.i, align 8
  %39 = load %"class.std::__1::__thread_struct"**, %"class.std::__1::__thread_struct"*** %__t.addr.i.i.i.i.i.i.i.i.i.i, align 8, !dbg !4792
  call void @_ZNSt3__122__compressed_pair_elemIPNS_15__thread_structELi0ELb0EEC2IS2_vEEOT_(%"struct.std::__1::__compressed_pair_elem.3"* %37, %"class.std::__1::__thread_struct"** dereferenceable(8) %39) #2, !dbg !4793
  %40 = bitcast %"class.std::__1::__compressed_pair.2"* %this1.i.i13.i.i.i.i.i.i.i to %"struct.std::__1::__compressed_pair_elem.4"*, !dbg !4790
  %41 = load %"struct.std::__1::default_delete"*, %"struct.std::__1::default_delete"** %__t2.addr.i.i.i.i.i.i.i.i.i, align 8, !dbg !4795
  store %"struct.std::__1::default_delete"* %41, %"struct.std::__1::default_delete"** %__t.addr.i3.i.i.i.i.i.i.i.i.i, align 8
  %42 = load %"struct.std::__1::default_delete"*, %"struct.std::__1::default_delete"** %__t.addr.i3.i.i.i.i.i.i.i.i.i, align 8, !dbg !4796
  call void @_ZNSt3__122__compressed_pair_elemINS_14default_deleteINS_15__thread_structEEELi1ELb1EEC2IS3_vEEOT_(%"struct.std::__1::__compressed_pair_elem.4"* %40, %"struct.std::__1::default_delete"* dereferenceable(1) %42) #2, !dbg !4797
  %43 = bitcast %"struct.std::__1::__tuple_impl"* %this6.i.i.i.i to i8*, !dbg !4766
  %44 = getelementptr inbounds i8, i8* %43, i64 8, !dbg !4766
  %45 = bitcast i8* %44 to %"class.std::__1::__tuple_leaf.8"*, !dbg !4766
  %46 = load void ()**, void ()*** %__u.addr5.i.i.i.i, align 8, !dbg !4767
  store void ()** %46, void ()*** %__t.addr.i9.i.i.i.i, align 8
  %47 = load void ()**, void ()*** %__t.addr.i9.i.i.i.i, align 8, !dbg !4799
  store %"class.std::__1::__tuple_leaf.8"* %45, %"class.std::__1::__tuple_leaf.8"** %this.addr.i.i.i.i.i, align 8
  store void ()** %47, void ()*** %__t.addr.i8.i.i.i.i, align 8
  %this1.i.i.i.i.i = load %"class.std::__1::__tuple_leaf.8"*, %"class.std::__1::__tuple_leaf.8"** %this.addr.i.i.i.i.i, align 8
  %value.i.i.i.i.i = getelementptr inbounds %"class.std::__1::__tuple_leaf.8", %"class.std::__1::__tuple_leaf.8"* %this1.i.i.i.i.i, i32 0, i32 0, !dbg !4800
  %48 = load void ()**, void ()*** %__t.addr.i8.i.i.i.i, align 8, !dbg !4801
  store void ()** %48, void ()*** %__t.addr.i.i.i.i.i.i, align 8
  %49 = load void ()**, void ()*** %__t.addr.i.i.i.i.i.i, align 8, !dbg !4802
  %50 = load void ()*, void ()** %49, align 8, !dbg !4803
  store void ()* %50, void ()** %value.i.i.i.i.i, align 8, !dbg !4800
  store %"class.std::__1::unique_ptr.5"* %__p, %"class.std::__1::unique_ptr.5"** %this.addr.i40, align 8
  store %"class.std::__1::tuple"* %7, %"class.std::__1::tuple"** %__p.addr.i41, align 8
  %this1.i42 = load %"class.std::__1::unique_ptr.5"*, %"class.std::__1::unique_ptr.5"** %this.addr.i40, align 8
  %51 = load %"class.std::__1::tuple"*, %"class.std::__1::tuple"** %__p.addr.i41, align 8, !dbg !4804
  store %"class.std::__1::unique_ptr.5"* %this1.i42, %"class.std::__1::unique_ptr.5"** %this.addr.i.i38, align 8
  store %"class.std::__1::tuple"* %51, %"class.std::__1::tuple"** %__p.addr.i.i39, align 8
  %this1.i.i43 = load %"class.std::__1::unique_ptr.5"*, %"class.std::__1::unique_ptr.5"** %this.addr.i.i38, align 8
  %__ptr_.i.i44 = getelementptr inbounds %"class.std::__1::unique_ptr.5", %"class.std::__1::unique_ptr.5"* %this1.i.i43, i32 0, i32 0, !dbg !4805
  store %"class.std::__1::__compressed_pair.6"* %__ptr_.i.i44, %"class.std::__1::__compressed_pair.6"** %this.addr.i.i.i36, align 8
  store %"class.std::__1::tuple"** %__p.addr.i.i39, %"class.std::__1::tuple"*** %__t.addr.i.i.i37, align 8
  %this1.i.i.i45 = load %"class.std::__1::__compressed_pair.6"*, %"class.std::__1::__compressed_pair.6"** %this.addr.i.i.i36, align 8
  %52 = load %"class.std::__1::tuple"**, %"class.std::__1::tuple"*** %__t.addr.i.i.i37, align 8, !dbg !4806
  store %"class.std::__1::__compressed_pair.6"* %this1.i.i.i45, %"class.std::__1::__compressed_pair.6"** %this.addr.i.i.i.i34, align 8
  store %"class.std::__1::tuple"** %52, %"class.std::__1::tuple"*** %__t.addr.i.i.i.i35, align 8
  %this1.i.i.i.i46 = load %"class.std::__1::__compressed_pair.6"*, %"class.std::__1::__compressed_pair.6"** %this.addr.i.i.i.i34, align 8
  %53 = bitcast %"class.std::__1::__compressed_pair.6"* %this1.i.i.i.i46 to %"struct.std::__1::__compressed_pair_elem.7"*, !dbg !4807
  %54 = load %"class.std::__1::tuple"**, %"class.std::__1::tuple"*** %__t.addr.i.i.i.i35, align 8, !dbg !4808
  store %"class.std::__1::tuple"** %54, %"class.std::__1::tuple"*** %__t.addr.i.i.i.i.i33, align 8
  %55 = load %"class.std::__1::tuple"**, %"class.std::__1::tuple"*** %__t.addr.i.i.i.i.i33, align 8, !dbg !4809
  call void @_ZNSt3__122__compressed_pair_elemIPNS_5tupleIJNS_10unique_ptrINS_15__thread_structENS_14default_deleteIS3_EEEEPFvvEEEELi0ELb0EEC2IRSA_vEEOT_(%"struct.std::__1::__compressed_pair_elem.7"* %53, %"class.std::__1::tuple"** dereferenceable(8) %55) #2, !dbg !4810
  %56 = bitcast %"class.std::__1::__compressed_pair.6"* %this1.i.i.i.i46 to %"struct.std::__1::__compressed_pair_elem.9"*, !dbg !4807
  call void @llvm.dbg.declare(metadata i32* %__ec, metadata !4812, metadata !3234), !dbg !4813
  %__t_ = getelementptr inbounds %"class.std::__1::thread", %"class.std::__1::thread"* %this1, i32 0, i32 0, !dbg !4814
  store %"class.std::__1::unique_ptr.5"* %__p, %"class.std::__1::unique_ptr.5"** %this.addr.i48, align 8
  %this1.i49 = load %"class.std::__1::unique_ptr.5"*, %"class.std::__1::unique_ptr.5"** %this.addr.i48, align 8
  %__ptr_.i = getelementptr inbounds %"class.std::__1::unique_ptr.5", %"class.std::__1::unique_ptr.5"* %this1.i49, i32 0, i32 0, !dbg !4815
  store %"class.std::__1::__compressed_pair.6"* %__ptr_.i, %"class.std::__1::__compressed_pair.6"** %this.addr.i.i47, align 8
  %this1.i.i50 = load %"class.std::__1::__compressed_pair.6"*, %"class.std::__1::__compressed_pair.6"** %this.addr.i.i47, align 8
  %57 = bitcast %"class.std::__1::__compressed_pair.6"* %this1.i.i50 to %"struct.std::__1::__compressed_pair_elem.7"*, !dbg !4816
  %call.i.i = call dereferenceable(8) %"class.std::__1::tuple"** @_ZNKSt3__122__compressed_pair_elemIPNS_5tupleIJNS_10unique_ptrINS_15__thread_structENS_14default_deleteIS3_EEEEPFvvEEEELi0ELb0EE5__getEv(%"struct.std::__1::__compressed_pair_elem.7"* %57) #2, !dbg !4817
  %58 = load %"class.std::__1::tuple"*, %"class.std::__1::tuple"** %call.i.i, align 8, !dbg !4818
  %59 = bitcast %"class.std::__1::tuple"* %58 to i8*, !dbg !4819
  store %struct._opaque_pthread_t** %__t_, %struct._opaque_pthread_t*** %__t.addr.i51, align 8
  store i8* (i8*)* @_ZNSt3__114__thread_proxyINS_5tupleIJNS_10unique_ptrINS_15__thread_structENS_14default_deleteIS3_EEEEPFvvEEEEEEPvSA_, i8* (i8*)** %__func.addr.i, align 8
  store i8* %59, i8** %__arg.addr.i, align 8
  %60 = load %struct._opaque_pthread_t**, %struct._opaque_pthread_t*** %__t.addr.i51, align 8, !dbg !4820
  %61 = load i8* (i8*)*, i8* (i8*)** %__func.addr.i, align 8, !dbg !4821
  %62 = load i8*, i8** %__arg.addr.i, align 8, !dbg !4822
  %call.i52 = invoke i32 @pthread_create(%struct._opaque_pthread_t** %60, %struct._opaque_pthread_attr_t* null, i8* (i8*)* %61, i8* %62)
          to label %_ZNSt3__122__libcpp_thread_createEPP17_opaque_pthread_tPFPvS3_ES3_.exit unwind label %lpad11, !dbg !4823

_ZNSt3__122__libcpp_thread_createEPP17_opaque_pthread_tPFPvS3_ES3_.exit: ; preds = %invoke.cont8
  br label %invoke.cont12, !dbg !4824

invoke.cont12:                                    ; preds = %_ZNSt3__122__libcpp_thread_createEPP17_opaque_pthread_tPFPvS3_ES3_.exit
  store i32 %call.i52, i32* %__ec, align 4, !dbg !4825
  %63 = load i32, i32* %__ec, align 4, !dbg !4826
  %cmp = icmp eq i32 %63, 0, !dbg !4827
  br i1 %cmp, label %if.then, label %if.else, !dbg !4828

if.then:                                          ; preds = %invoke.cont12
  store %"class.std::__1::unique_ptr.5"* %__p, %"class.std::__1::unique_ptr.5"** %this.addr.i54, align 8
  %this1.i55 = load %"class.std::__1::unique_ptr.5"*, %"class.std::__1::unique_ptr.5"** %this.addr.i54, align 8
  %__ptr_.i56 = getelementptr inbounds %"class.std::__1::unique_ptr.5", %"class.std::__1::unique_ptr.5"* %this1.i55, i32 0, i32 0, !dbg !4829
  store %"class.std::__1::__compressed_pair.6"* %__ptr_.i56, %"class.std::__1::__compressed_pair.6"** %this.addr.i.i53, align 8
  %this1.i.i57 = load %"class.std::__1::__compressed_pair.6"*, %"class.std::__1::__compressed_pair.6"** %this.addr.i.i53, align 8
  %64 = bitcast %"class.std::__1::__compressed_pair.6"* %this1.i.i57 to %"struct.std::__1::__compressed_pair_elem.7"*, !dbg !4830
  %call.i.i58 = call dereferenceable(8) %"class.std::__1::tuple"** @_ZNSt3__122__compressed_pair_elemIPNS_5tupleIJNS_10unique_ptrINS_15__thread_structENS_14default_deleteIS3_EEEEPFvvEEEELi0ELb0EE5__getEv(%"struct.std::__1::__compressed_pair_elem.7"* %64) #2, !dbg !4831
  %65 = load %"class.std::__1::tuple"*, %"class.std::__1::tuple"** %call.i.i58, align 8, !dbg !4832
  store %"class.std::__1::tuple"* %65, %"class.std::__1::tuple"** %__t.i, align 8, !dbg !4365
  %__ptr_2.i = getelementptr inbounds %"class.std::__1::unique_ptr.5", %"class.std::__1::unique_ptr.5"* %this1.i55, i32 0, i32 0, !dbg !4833
  store %"class.std::__1::__compressed_pair.6"* %__ptr_2.i, %"class.std::__1::__compressed_pair.6"** %this.addr.i4.i, align 8
  %this1.i5.i = load %"class.std::__1::__compressed_pair.6"*, %"class.std::__1::__compressed_pair.6"** %this.addr.i4.i, align 8
  %66 = bitcast %"class.std::__1::__compressed_pair.6"* %this1.i5.i to %"struct.std::__1::__compressed_pair_elem.7"*, !dbg !4834
  %call.i6.i = call dereferenceable(8) %"class.std::__1::tuple"** @_ZNSt3__122__compressed_pair_elemIPNS_5tupleIJNS_10unique_ptrINS_15__thread_structENS_14default_deleteIS3_EEEEPFvvEEEELi0ELb0EE5__getEv(%"struct.std::__1::__compressed_pair_elem.7"* %66) #2, !dbg !4835
  store %"class.std::__1::tuple"* null, %"class.std::__1::tuple"** %call.i6.i, align 8, !dbg !4836
  %67 = load %"class.std::__1::tuple"*, %"class.std::__1::tuple"** %__t.i, align 8, !dbg !4837
  br label %if.end, !dbg !4838

lpad:                                             ; preds = %entry
  %68 = landingpad { i8*, i32 }
          cleanup, !dbg !4839
  %69 = extractvalue { i8*, i32 } %68, 0, !dbg !4839
  store i8* %69, i8** %exn.slot, align 8, !dbg !4839
  %70 = extractvalue { i8*, i32 } %68, 1, !dbg !4839
  store i32 %70, i32* %ehselector.slot, align 4, !dbg !4839
  call void @_ZdlPv(i8* %call) #14, !dbg !4840
  br label %eh.resume, !dbg !4840

lpad2:                                            ; preds = %invoke.cont
  %71 = landingpad { i8*, i32 }
          cleanup, !dbg !4841
  %72 = extractvalue { i8*, i32 } %71, 0, !dbg !4841
  store i8* %72, i8** %exn.slot, align 8, !dbg !4841
  %73 = extractvalue { i8*, i32 } %71, 1, !dbg !4841
  store i32 %73, i32* %ehselector.slot, align 4, !dbg !4841
  br label %ehcleanup, !dbg !4841

lpad7:                                            ; No predecessors!
  %74 = landingpad { i8*, i32 }
          cleanup, !dbg !4842
  %75 = extractvalue { i8*, i32 } %74, 0, !dbg !4842
  store i8* %75, i8** %exn.slot, align 8, !dbg !4842
  %76 = extractvalue { i8*, i32 } %74, 1, !dbg !4842
  store i32 %76, i32* %ehselector.slot, align 4, !dbg !4842
  call void @_ZdlPv(i8* %call4) #14, !dbg !4843
  br label %ehcleanup, !dbg !4843

lpad11:                                           ; preds = %invoke.cont8, %if.else
  %77 = landingpad { i8*, i32 }
          cleanup, !dbg !4845
  %78 = extractvalue { i8*, i32 } %77, 0, !dbg !4845
  store i8* %78, i8** %exn.slot, align 8, !dbg !4845
  %79 = extractvalue { i8*, i32 } %77, 1, !dbg !4845
  store i32 %79, i32* %ehselector.slot, align 4, !dbg !4845
  store %"class.std::__1::unique_ptr.5"* %__p, %"class.std::__1::unique_ptr.5"** %this.addr.i68, align 8
  %this1.i69 = load %"class.std::__1::unique_ptr.5"*, %"class.std::__1::unique_ptr.5"** %this.addr.i68, align 8
  store %"class.std::__1::unique_ptr.5"* %this1.i69, %"class.std::__1::unique_ptr.5"** %this.addr.i.i67, align 8
  %this1.i.i70 = load %"class.std::__1::unique_ptr.5"*, %"class.std::__1::unique_ptr.5"** %this.addr.i.i67, align 8
  store %"class.std::__1::unique_ptr.5"* %this1.i.i70, %"class.std::__1::unique_ptr.5"** %this.addr.i.i.i64, align 8
  store %"class.std::__1::tuple"* null, %"class.std::__1::tuple"** %__p.addr.i.i.i65, align 8
  %this1.i.i.i71 = load %"class.std::__1::unique_ptr.5"*, %"class.std::__1::unique_ptr.5"** %this.addr.i.i.i64, align 8
  %__ptr_.i.i.i72 = getelementptr inbounds %"class.std::__1::unique_ptr.5", %"class.std::__1::unique_ptr.5"* %this1.i.i.i71, i32 0, i32 0, !dbg !4846
  store %"class.std::__1::__compressed_pair.6"* %__ptr_.i.i.i72, %"class.std::__1::__compressed_pair.6"** %this.addr.i.i.i.i63, align 8
  %this1.i.i.i.i73 = load %"class.std::__1::__compressed_pair.6"*, %"class.std::__1::__compressed_pair.6"** %this.addr.i.i.i.i63, align 8
  %80 = bitcast %"class.std::__1::__compressed_pair.6"* %this1.i.i.i.i73 to %"struct.std::__1::__compressed_pair_elem.7"*, !dbg !4847
  %call.i.i.i.i74 = call dereferenceable(8) %"class.std::__1::tuple"** @_ZNSt3__122__compressed_pair_elemIPNS_5tupleIJNS_10unique_ptrINS_15__thread_structENS_14default_deleteIS3_EEEEPFvvEEEELi0ELb0EE5__getEv(%"struct.std::__1::__compressed_pair_elem.7"* %80) #2, !dbg !4848
  %81 = load %"class.std::__1::tuple"*, %"class.std::__1::tuple"** %call.i.i.i.i74, align 8, !dbg !4849
  store %"class.std::__1::tuple"* %81, %"class.std::__1::tuple"** %__tmp.i.i.i66, align 8, !dbg !4351
  %82 = load %"class.std::__1::tuple"*, %"class.std::__1::tuple"** %__p.addr.i.i.i65, align 8, !dbg !4850
  %__ptr_2.i.i.i75 = getelementptr inbounds %"class.std::__1::unique_ptr.5", %"class.std::__1::unique_ptr.5"* %this1.i.i.i71, i32 0, i32 0, !dbg !4851
  store %"class.std::__1::__compressed_pair.6"* %__ptr_2.i.i.i75, %"class.std::__1::__compressed_pair.6"** %this.addr.i6.i.i.i62, align 8
  %this1.i7.i.i.i76 = load %"class.std::__1::__compressed_pair.6"*, %"class.std::__1::__compressed_pair.6"** %this.addr.i6.i.i.i62, align 8
  %83 = bitcast %"class.std::__1::__compressed_pair.6"* %this1.i7.i.i.i76 to %"struct.std::__1::__compressed_pair_elem.7"*, !dbg !4852
  %call.i8.i.i.i77 = call dereferenceable(8) %"class.std::__1::tuple"** @_ZNSt3__122__compressed_pair_elemIPNS_5tupleIJNS_10unique_ptrINS_15__thread_structENS_14default_deleteIS3_EEEEPFvvEEEELi0ELb0EE5__getEv(%"struct.std::__1::__compressed_pair_elem.7"* %83) #2, !dbg !4853
  store %"class.std::__1::tuple"* %82, %"class.std::__1::tuple"** %call.i8.i.i.i77, align 8, !dbg !4854
  %84 = load %"class.std::__1::tuple"*, %"class.std::__1::tuple"** %__tmp.i.i.i66, align 8, !dbg !4855
  %tobool.i.i.i78 = icmp ne %"class.std::__1::tuple"* %84, null, !dbg !4855
  br i1 %tobool.i.i.i78, label %if.then.i.i.i84, label %_ZNSt3__110unique_ptrINS_5tupleIJNS0_INS_15__thread_structENS_14default_deleteIS2_EEEEPFvvEEEENS3_IS8_EEED1Ev.exit, !dbg !4856

if.then.i.i.i84:                                  ; preds = %lpad11
  %__ptr_4.i.i.i79 = getelementptr inbounds %"class.std::__1::unique_ptr.5", %"class.std::__1::unique_ptr.5"* %this1.i.i.i71, i32 0, i32 0, !dbg !4857
  store %"class.std::__1::__compressed_pair.6"* %__ptr_4.i.i.i79, %"class.std::__1::__compressed_pair.6"** %this.addr.i9.i.i.i61, align 8
  %this1.i10.i.i.i80 = load %"class.std::__1::__compressed_pair.6"*, %"class.std::__1::__compressed_pair.6"** %this.addr.i9.i.i.i61, align 8
  %85 = bitcast %"class.std::__1::__compressed_pair.6"* %this1.i10.i.i.i80 to %"struct.std::__1::__compressed_pair_elem.9"*, !dbg !4858
  %call.i11.i.i.i81 = call dereferenceable(1) %"struct.std::__1::default_delete.10"* @_ZNSt3__122__compressed_pair_elemINS_14default_deleteINS_5tupleIJNS_10unique_ptrINS_15__thread_structENS1_IS4_EEEEPFvvEEEEEELi1ELb1EE5__getEv(%"struct.std::__1::__compressed_pair_elem.9"* %85) #2, !dbg !4859
  %86 = load %"class.std::__1::tuple"*, %"class.std::__1::tuple"** %__tmp.i.i.i66, align 8, !dbg !4860
  store %"struct.std::__1::default_delete.10"* %call.i11.i.i.i81, %"struct.std::__1::default_delete.10"** %this.addr.i12.i.i.i59, align 8
  store %"class.std::__1::tuple"* %86, %"class.std::__1::tuple"** %__ptr.addr.i.i.i.i60, align 8
  %this1.i13.i.i.i82 = load %"struct.std::__1::default_delete.10"*, %"struct.std::__1::default_delete.10"** %this.addr.i12.i.i.i59, align 8
  %87 = load %"class.std::__1::tuple"*, %"class.std::__1::tuple"** %__ptr.addr.i.i.i.i60, align 8, !dbg !4861
  %isnull.i.i.i.i83 = icmp eq %"class.std::__1::tuple"* %87, null, !dbg !4862
  br i1 %isnull.i.i.i.i83, label %_ZNKSt3__114default_deleteINS_5tupleIJNS_10unique_ptrINS_15__thread_structENS0_IS3_EEEEPFvvEEEEEclEPS8_.exit.i.i.i, label %delete.notnull.i.i.i.i85, !dbg !4862

delete.notnull.i.i.i.i85:                         ; preds = %if.then.i.i.i84
  call void @_ZNSt3__15tupleIJNS_10unique_ptrINS_15__thread_structENS_14default_deleteIS2_EEEEPFvvEEED1Ev(%"class.std::__1::tuple"* %87) #2, !dbg !4863
  %88 = bitcast %"class.std::__1::tuple"* %87 to i8*, !dbg !4863
  call void @_ZdlPv(i8* %88) #14, !dbg !4865
  br label %_ZNKSt3__114default_deleteINS_5tupleIJNS_10unique_ptrINS_15__thread_structENS0_IS3_EEEEPFvvEEEEEclEPS8_.exit.i.i.i, !dbg !4863

_ZNKSt3__114default_deleteINS_5tupleIJNS_10unique_ptrINS_15__thread_structENS0_IS3_EEEEPFvvEEEEEclEPS8_.exit.i.i.i: ; preds = %delete.notnull.i.i.i.i85, %if.then.i.i.i84
  br label %_ZNSt3__110unique_ptrINS_5tupleIJNS0_INS_15__thread_structENS_14default_deleteIS2_EEEEPFvvEEEENS3_IS8_EEED1Ev.exit, !dbg !4857

_ZNSt3__110unique_ptrINS_5tupleIJNS0_INS_15__thread_structENS_14default_deleteIS2_EEEEPFvvEEEENS3_IS8_EEED1Ev.exit: ; preds = %lpad11, %_ZNKSt3__114default_deleteINS_5tupleIJNS_10unique_ptrINS_15__thread_structENS0_IS3_EEEEPFvvEEEEEclEPS8_.exit.i.i.i
  br label %ehcleanup, !dbg !4867

if.else:                                          ; preds = %invoke.cont12
  %89 = load i32, i32* %__ec, align 4, !dbg !4868
  invoke void @_ZNSt3__120__throw_system_errorEiPKc(i32 %89, i8* getelementptr inbounds ([26 x i8], [26 x i8]* @.str.1, i32 0, i32 0)) #15
          to label %invoke.cont15 unwind label %lpad11, !dbg !4869

invoke.cont15:                                    ; preds = %if.else
  unreachable, !dbg !4870

if.end:                                           ; preds = %if.then
  store %"class.std::__1::unique_ptr.5"* %__p, %"class.std::__1::unique_ptr.5"** %this.addr.i95, align 8
  %this1.i96 = load %"class.std::__1::unique_ptr.5"*, %"class.std::__1::unique_ptr.5"** %this.addr.i95, align 8
  store %"class.std::__1::unique_ptr.5"* %this1.i96, %"class.std::__1::unique_ptr.5"** %this.addr.i.i94, align 8
  %this1.i.i97 = load %"class.std::__1::unique_ptr.5"*, %"class.std::__1::unique_ptr.5"** %this.addr.i.i94, align 8
  store %"class.std::__1::unique_ptr.5"* %this1.i.i97, %"class.std::__1::unique_ptr.5"** %this.addr.i.i.i91, align 8
  store %"class.std::__1::tuple"* null, %"class.std::__1::tuple"** %__p.addr.i.i.i92, align 8
  %this1.i.i.i98 = load %"class.std::__1::unique_ptr.5"*, %"class.std::__1::unique_ptr.5"** %this.addr.i.i.i91, align 8
  %__ptr_.i.i.i99 = getelementptr inbounds %"class.std::__1::unique_ptr.5", %"class.std::__1::unique_ptr.5"* %this1.i.i.i98, i32 0, i32 0, !dbg !4872
  store %"class.std::__1::__compressed_pair.6"* %__ptr_.i.i.i99, %"class.std::__1::__compressed_pair.6"** %this.addr.i.i.i.i90, align 8
  %this1.i.i.i.i100 = load %"class.std::__1::__compressed_pair.6"*, %"class.std::__1::__compressed_pair.6"** %this.addr.i.i.i.i90, align 8
  %90 = bitcast %"class.std::__1::__compressed_pair.6"* %this1.i.i.i.i100 to %"struct.std::__1::__compressed_pair_elem.7"*, !dbg !4873
  %call.i.i.i.i101 = call dereferenceable(8) %"class.std::__1::tuple"** @_ZNSt3__122__compressed_pair_elemIPNS_5tupleIJNS_10unique_ptrINS_15__thread_structENS_14default_deleteIS3_EEEEPFvvEEEELi0ELb0EE5__getEv(%"struct.std::__1::__compressed_pair_elem.7"* %90) #2, !dbg !4874
  %91 = load %"class.std::__1::tuple"*, %"class.std::__1::tuple"** %call.i.i.i.i101, align 8, !dbg !4875
  store %"class.std::__1::tuple"* %91, %"class.std::__1::tuple"** %__tmp.i.i.i93, align 8, !dbg !4331
  %92 = load %"class.std::__1::tuple"*, %"class.std::__1::tuple"** %__p.addr.i.i.i92, align 8, !dbg !4876
  %__ptr_2.i.i.i102 = getelementptr inbounds %"class.std::__1::unique_ptr.5", %"class.std::__1::unique_ptr.5"* %this1.i.i.i98, i32 0, i32 0, !dbg !4877
  store %"class.std::__1::__compressed_pair.6"* %__ptr_2.i.i.i102, %"class.std::__1::__compressed_pair.6"** %this.addr.i6.i.i.i89, align 8
  %this1.i7.i.i.i103 = load %"class.std::__1::__compressed_pair.6"*, %"class.std::__1::__compressed_pair.6"** %this.addr.i6.i.i.i89, align 8
  %93 = bitcast %"class.std::__1::__compressed_pair.6"* %this1.i7.i.i.i103 to %"struct.std::__1::__compressed_pair_elem.7"*, !dbg !4878
  %call.i8.i.i.i104 = call dereferenceable(8) %"class.std::__1::tuple"** @_ZNSt3__122__compressed_pair_elemIPNS_5tupleIJNS_10unique_ptrINS_15__thread_structENS_14default_deleteIS3_EEEEPFvvEEEELi0ELb0EE5__getEv(%"struct.std::__1::__compressed_pair_elem.7"* %93) #2, !dbg !4879
  store %"class.std::__1::tuple"* %92, %"class.std::__1::tuple"** %call.i8.i.i.i104, align 8, !dbg !4880
  %94 = load %"class.std::__1::tuple"*, %"class.std::__1::tuple"** %__tmp.i.i.i93, align 8, !dbg !4881
  %tobool.i.i.i105 = icmp ne %"class.std::__1::tuple"* %94, null, !dbg !4881
  br i1 %tobool.i.i.i105, label %if.then.i.i.i111, label %_ZNSt3__110unique_ptrINS_5tupleIJNS0_INS_15__thread_structENS_14default_deleteIS2_EEEEPFvvEEEENS3_IS8_EEED1Ev.exit114, !dbg !4882

if.then.i.i.i111:                                 ; preds = %if.end
  %__ptr_4.i.i.i106 = getelementptr inbounds %"class.std::__1::unique_ptr.5", %"class.std::__1::unique_ptr.5"* %this1.i.i.i98, i32 0, i32 0, !dbg !4883
  store %"class.std::__1::__compressed_pair.6"* %__ptr_4.i.i.i106, %"class.std::__1::__compressed_pair.6"** %this.addr.i9.i.i.i88, align 8
  %this1.i10.i.i.i107 = load %"class.std::__1::__compressed_pair.6"*, %"class.std::__1::__compressed_pair.6"** %this.addr.i9.i.i.i88, align 8
  %95 = bitcast %"class.std::__1::__compressed_pair.6"* %this1.i10.i.i.i107 to %"struct.std::__1::__compressed_pair_elem.9"*, !dbg !4884
  %call.i11.i.i.i108 = call dereferenceable(1) %"struct.std::__1::default_delete.10"* @_ZNSt3__122__compressed_pair_elemINS_14default_deleteINS_5tupleIJNS_10unique_ptrINS_15__thread_structENS1_IS4_EEEEPFvvEEEEEELi1ELb1EE5__getEv(%"struct.std::__1::__compressed_pair_elem.9"* %95) #2, !dbg !4885
  %96 = load %"class.std::__1::tuple"*, %"class.std::__1::tuple"** %__tmp.i.i.i93, align 8, !dbg !4886
  store %"struct.std::__1::default_delete.10"* %call.i11.i.i.i108, %"struct.std::__1::default_delete.10"** %this.addr.i12.i.i.i86, align 8
  store %"class.std::__1::tuple"* %96, %"class.std::__1::tuple"** %__ptr.addr.i.i.i.i87, align 8
  %this1.i13.i.i.i109 = load %"struct.std::__1::default_delete.10"*, %"struct.std::__1::default_delete.10"** %this.addr.i12.i.i.i86, align 8
  %97 = load %"class.std::__1::tuple"*, %"class.std::__1::tuple"** %__ptr.addr.i.i.i.i87, align 8, !dbg !4887
  %isnull.i.i.i.i110 = icmp eq %"class.std::__1::tuple"* %97, null, !dbg !4888
  br i1 %isnull.i.i.i.i110, label %_ZNKSt3__114default_deleteINS_5tupleIJNS_10unique_ptrINS_15__thread_structENS0_IS3_EEEEPFvvEEEEEclEPS8_.exit.i.i.i113, label %delete.notnull.i.i.i.i112, !dbg !4888

delete.notnull.i.i.i.i112:                        ; preds = %if.then.i.i.i111
  call void @_ZNSt3__15tupleIJNS_10unique_ptrINS_15__thread_structENS_14default_deleteIS2_EEEEPFvvEEED1Ev(%"class.std::__1::tuple"* %97) #2, !dbg !4889
  %98 = bitcast %"class.std::__1::tuple"* %97 to i8*, !dbg !4889
  call void @_ZdlPv(i8* %98) #14, !dbg !4890
  br label %_ZNKSt3__114default_deleteINS_5tupleIJNS_10unique_ptrINS_15__thread_structENS0_IS3_EEEEPFvvEEEEEclEPS8_.exit.i.i.i113, !dbg !4889

_ZNKSt3__114default_deleteINS_5tupleIJNS_10unique_ptrINS_15__thread_structENS0_IS3_EEEEPFvvEEEEEclEPS8_.exit.i.i.i113: ; preds = %delete.notnull.i.i.i.i112, %if.then.i.i.i111
  br label %_ZNSt3__110unique_ptrINS_5tupleIJNS0_INS_15__thread_structENS_14default_deleteIS2_EEEEPFvvEEEENS3_IS8_EEED1Ev.exit114, !dbg !4883

_ZNSt3__110unique_ptrINS_5tupleIJNS0_INS_15__thread_structENS_14default_deleteIS2_EEEEPFvvEEEENS3_IS8_EEED1Ev.exit114: ; preds = %if.end, %_ZNKSt3__114default_deleteINS_5tupleIJNS_10unique_ptrINS_15__thread_structENS0_IS3_EEEEPFvvEEEEEclEPS8_.exit.i.i.i113
  store %"class.std::__1::unique_ptr"* %__tsp, %"class.std::__1::unique_ptr"** %this.addr.i124, align 8
  %this1.i125 = load %"class.std::__1::unique_ptr"*, %"class.std::__1::unique_ptr"** %this.addr.i124, align 8
  store %"class.std::__1::unique_ptr"* %this1.i125, %"class.std::__1::unique_ptr"** %this.addr.i.i123, align 8
  %this1.i.i126 = load %"class.std::__1::unique_ptr"*, %"class.std::__1::unique_ptr"** %this.addr.i.i123, align 8
  store %"class.std::__1::unique_ptr"* %this1.i.i126, %"class.std::__1::unique_ptr"** %this.addr.i.i.i120, align 8
  store %"class.std::__1::__thread_struct"* null, %"class.std::__1::__thread_struct"** %__p.addr.i.i.i121, align 8
  %this1.i.i.i127 = load %"class.std::__1::unique_ptr"*, %"class.std::__1::unique_ptr"** %this.addr.i.i.i120, align 8
  %__ptr_.i.i.i128 = getelementptr inbounds %"class.std::__1::unique_ptr", %"class.std::__1::unique_ptr"* %this1.i.i.i127, i32 0, i32 0, !dbg !4891
  store %"class.std::__1::__compressed_pair.2"* %__ptr_.i.i.i128, %"class.std::__1::__compressed_pair.2"** %this.addr.i.i.i.i119, align 8
  %this1.i.i.i.i129 = load %"class.std::__1::__compressed_pair.2"*, %"class.std::__1::__compressed_pair.2"** %this.addr.i.i.i.i119, align 8
  %99 = bitcast %"class.std::__1::__compressed_pair.2"* %this1.i.i.i.i129 to %"struct.std::__1::__compressed_pair_elem.3"*, !dbg !4892
  %call.i.i.i.i130 = call dereferenceable(8) %"class.std::__1::__thread_struct"** @_ZNSt3__122__compressed_pair_elemIPNS_15__thread_structELi0ELb0EE5__getEv(%"struct.std::__1::__compressed_pair_elem.3"* %99) #2, !dbg !4893
  %100 = load %"class.std::__1::__thread_struct"*, %"class.std::__1::__thread_struct"** %call.i.i.i.i130, align 8, !dbg !4894
  store %"class.std::__1::__thread_struct"* %100, %"class.std::__1::__thread_struct"** %__tmp.i.i.i122, align 8, !dbg !4148
  %101 = load %"class.std::__1::__thread_struct"*, %"class.std::__1::__thread_struct"** %__p.addr.i.i.i121, align 8, !dbg !4895
  %__ptr_2.i.i.i131 = getelementptr inbounds %"class.std::__1::unique_ptr", %"class.std::__1::unique_ptr"* %this1.i.i.i127, i32 0, i32 0, !dbg !4896
  store %"class.std::__1::__compressed_pair.2"* %__ptr_2.i.i.i131, %"class.std::__1::__compressed_pair.2"** %this.addr.i6.i.i.i118, align 8
  %this1.i7.i.i.i132 = load %"class.std::__1::__compressed_pair.2"*, %"class.std::__1::__compressed_pair.2"** %this.addr.i6.i.i.i118, align 8
  %102 = bitcast %"class.std::__1::__compressed_pair.2"* %this1.i7.i.i.i132 to %"struct.std::__1::__compressed_pair_elem.3"*, !dbg !4897
  %call.i8.i.i.i133 = call dereferenceable(8) %"class.std::__1::__thread_struct"** @_ZNSt3__122__compressed_pair_elemIPNS_15__thread_structELi0ELb0EE5__getEv(%"struct.std::__1::__compressed_pair_elem.3"* %102) #2, !dbg !4898
  store %"class.std::__1::__thread_struct"* %101, %"class.std::__1::__thread_struct"** %call.i8.i.i.i133, align 8, !dbg !4899
  %103 = load %"class.std::__1::__thread_struct"*, %"class.std::__1::__thread_struct"** %__tmp.i.i.i122, align 8, !dbg !4900
  %tobool.i.i.i134 = icmp ne %"class.std::__1::__thread_struct"* %103, null, !dbg !4900
  br i1 %tobool.i.i.i134, label %if.then.i.i.i140, label %_ZNSt3__110unique_ptrINS_15__thread_structENS_14default_deleteIS1_EEED1Ev.exit143, !dbg !4901

if.then.i.i.i140:                                 ; preds = %_ZNSt3__110unique_ptrINS_5tupleIJNS0_INS_15__thread_structENS_14default_deleteIS2_EEEEPFvvEEEENS3_IS8_EEED1Ev.exit114
  %__ptr_4.i.i.i135 = getelementptr inbounds %"class.std::__1::unique_ptr", %"class.std::__1::unique_ptr"* %this1.i.i.i127, i32 0, i32 0, !dbg !4902
  store %"class.std::__1::__compressed_pair.2"* %__ptr_4.i.i.i135, %"class.std::__1::__compressed_pair.2"** %this.addr.i9.i.i.i117, align 8
  %this1.i10.i.i.i136 = load %"class.std::__1::__compressed_pair.2"*, %"class.std::__1::__compressed_pair.2"** %this.addr.i9.i.i.i117, align 8
  %104 = bitcast %"class.std::__1::__compressed_pair.2"* %this1.i10.i.i.i136 to %"struct.std::__1::__compressed_pair_elem.4"*, !dbg !4903
  %call.i11.i.i.i137 = call dereferenceable(1) %"struct.std::__1::default_delete"* @_ZNSt3__122__compressed_pair_elemINS_14default_deleteINS_15__thread_structEEELi1ELb1EE5__getEv(%"struct.std::__1::__compressed_pair_elem.4"* %104) #2, !dbg !4904
  %105 = load %"class.std::__1::__thread_struct"*, %"class.std::__1::__thread_struct"** %__tmp.i.i.i122, align 8, !dbg !4905
  store %"struct.std::__1::default_delete"* %call.i11.i.i.i137, %"struct.std::__1::default_delete"** %this.addr.i12.i.i.i115, align 8
  store %"class.std::__1::__thread_struct"* %105, %"class.std::__1::__thread_struct"** %__ptr.addr.i.i.i.i116, align 8
  %this1.i13.i.i.i138 = load %"struct.std::__1::default_delete"*, %"struct.std::__1::default_delete"** %this.addr.i12.i.i.i115, align 8
  %106 = load %"class.std::__1::__thread_struct"*, %"class.std::__1::__thread_struct"** %__ptr.addr.i.i.i.i116, align 8, !dbg !4906
  %isnull.i.i.i.i139 = icmp eq %"class.std::__1::__thread_struct"* %106, null, !dbg !4907
  br i1 %isnull.i.i.i.i139, label %_ZNKSt3__114default_deleteINS_15__thread_structEEclEPS1_.exit.i.i.i142, label %delete.notnull.i.i.i.i141, !dbg !4907

delete.notnull.i.i.i.i141:                        ; preds = %if.then.i.i.i140
  call void @_ZNSt3__115__thread_structD1Ev(%"class.std::__1::__thread_struct"* %106) #2, !dbg !4908
  %107 = bitcast %"class.std::__1::__thread_struct"* %106 to i8*, !dbg !4908
  call void @_ZdlPv(i8* %107) #14, !dbg !4910
  br label %_ZNKSt3__114default_deleteINS_15__thread_structEEclEPS1_.exit.i.i.i142, !dbg !4908

_ZNKSt3__114default_deleteINS_15__thread_structEEclEPS1_.exit.i.i.i142: ; preds = %delete.notnull.i.i.i.i141, %if.then.i.i.i140
  br label %_ZNSt3__110unique_ptrINS_15__thread_structENS_14default_deleteIS1_EEED1Ev.exit143, !dbg !4902

_ZNSt3__110unique_ptrINS_15__thread_structENS_14default_deleteIS1_EEED1Ev.exit143: ; preds = %_ZNSt3__110unique_ptrINS_5tupleIJNS0_INS_15__thread_structENS_14default_deleteIS2_EEEEPFvvEEEENS3_IS8_EEED1Ev.exit114, %_ZNKSt3__114default_deleteINS_15__thread_structEEclEPS1_.exit.i.i.i142
  ret void, !dbg !4912

ehcleanup:                                        ; preds = %_ZNSt3__110unique_ptrINS_5tupleIJNS0_INS_15__thread_structENS_14default_deleteIS2_EEEEPFvvEEEENS3_IS8_EEED1Ev.exit, %lpad7, %lpad2
  store %"class.std::__1::unique_ptr"* %__tsp, %"class.std::__1::unique_ptr"** %this.addr.i20, align 8
  %this1.i21 = load %"class.std::__1::unique_ptr"*, %"class.std::__1::unique_ptr"** %this.addr.i20, align 8
  store %"class.std::__1::unique_ptr"* %this1.i21, %"class.std::__1::unique_ptr"** %this.addr.i.i19, align 8
  %this1.i.i22 = load %"class.std::__1::unique_ptr"*, %"class.std::__1::unique_ptr"** %this.addr.i.i19, align 8
  store %"class.std::__1::unique_ptr"* %this1.i.i22, %"class.std::__1::unique_ptr"** %this.addr.i.i.i18, align 8
  store %"class.std::__1::__thread_struct"* null, %"class.std::__1::__thread_struct"** %__p.addr.i.i.i, align 8
  %this1.i.i.i23 = load %"class.std::__1::unique_ptr"*, %"class.std::__1::unique_ptr"** %this.addr.i.i.i18, align 8
  %__ptr_.i.i.i = getelementptr inbounds %"class.std::__1::unique_ptr", %"class.std::__1::unique_ptr"* %this1.i.i.i23, i32 0, i32 0, !dbg !4913
  store %"class.std::__1::__compressed_pair.2"* %__ptr_.i.i.i, %"class.std::__1::__compressed_pair.2"** %this.addr.i.i.i.i17, align 8
  %this1.i.i.i.i24 = load %"class.std::__1::__compressed_pair.2"*, %"class.std::__1::__compressed_pair.2"** %this.addr.i.i.i.i17, align 8
  %108 = bitcast %"class.std::__1::__compressed_pair.2"* %this1.i.i.i.i24 to %"struct.std::__1::__compressed_pair_elem.3"*, !dbg !4914
  %call.i.i.i.i = call dereferenceable(8) %"class.std::__1::__thread_struct"** @_ZNSt3__122__compressed_pair_elemIPNS_15__thread_structELi0ELb0EE5__getEv(%"struct.std::__1::__compressed_pair_elem.3"* %108) #2, !dbg !4915
  %109 = load %"class.std::__1::__thread_struct"*, %"class.std::__1::__thread_struct"** %call.i.i.i.i, align 8, !dbg !4916
  store %"class.std::__1::__thread_struct"* %109, %"class.std::__1::__thread_struct"** %__tmp.i.i.i, align 8, !dbg !4661
  %110 = load %"class.std::__1::__thread_struct"*, %"class.std::__1::__thread_struct"** %__p.addr.i.i.i, align 8, !dbg !4917
  %__ptr_2.i.i.i = getelementptr inbounds %"class.std::__1::unique_ptr", %"class.std::__1::unique_ptr"* %this1.i.i.i23, i32 0, i32 0, !dbg !4918
  store %"class.std::__1::__compressed_pair.2"* %__ptr_2.i.i.i, %"class.std::__1::__compressed_pair.2"** %this.addr.i6.i.i.i, align 8
  %this1.i7.i.i.i = load %"class.std::__1::__compressed_pair.2"*, %"class.std::__1::__compressed_pair.2"** %this.addr.i6.i.i.i, align 8
  %111 = bitcast %"class.std::__1::__compressed_pair.2"* %this1.i7.i.i.i to %"struct.std::__1::__compressed_pair_elem.3"*, !dbg !4919
  %call.i8.i.i.i = call dereferenceable(8) %"class.std::__1::__thread_struct"** @_ZNSt3__122__compressed_pair_elemIPNS_15__thread_structELi0ELb0EE5__getEv(%"struct.std::__1::__compressed_pair_elem.3"* %111) #2, !dbg !4920
  store %"class.std::__1::__thread_struct"* %110, %"class.std::__1::__thread_struct"** %call.i8.i.i.i, align 8, !dbg !4921
  %112 = load %"class.std::__1::__thread_struct"*, %"class.std::__1::__thread_struct"** %__tmp.i.i.i, align 8, !dbg !4922
  %tobool.i.i.i = icmp ne %"class.std::__1::__thread_struct"* %112, null, !dbg !4922
  br i1 %tobool.i.i.i, label %if.then.i.i.i, label %_ZNSt3__110unique_ptrINS_15__thread_structENS_14default_deleteIS1_EEED1Ev.exit, !dbg !4923

if.then.i.i.i:                                    ; preds = %ehcleanup
  %__ptr_4.i.i.i = getelementptr inbounds %"class.std::__1::unique_ptr", %"class.std::__1::unique_ptr"* %this1.i.i.i23, i32 0, i32 0, !dbg !4924
  store %"class.std::__1::__compressed_pair.2"* %__ptr_4.i.i.i, %"class.std::__1::__compressed_pair.2"** %this.addr.i9.i.i.i, align 8
  %this1.i10.i.i.i = load %"class.std::__1::__compressed_pair.2"*, %"class.std::__1::__compressed_pair.2"** %this.addr.i9.i.i.i, align 8
  %113 = bitcast %"class.std::__1::__compressed_pair.2"* %this1.i10.i.i.i to %"struct.std::__1::__compressed_pair_elem.4"*, !dbg !4925
  %call.i11.i.i.i = call dereferenceable(1) %"struct.std::__1::default_delete"* @_ZNSt3__122__compressed_pair_elemINS_14default_deleteINS_15__thread_structEEELi1ELb1EE5__getEv(%"struct.std::__1::__compressed_pair_elem.4"* %113) #2, !dbg !4926
  %114 = load %"class.std::__1::__thread_struct"*, %"class.std::__1::__thread_struct"** %__tmp.i.i.i, align 8, !dbg !4927
  store %"struct.std::__1::default_delete"* %call.i11.i.i.i, %"struct.std::__1::default_delete"** %this.addr.i12.i.i.i, align 8
  store %"class.std::__1::__thread_struct"* %114, %"class.std::__1::__thread_struct"** %__ptr.addr.i.i.i.i, align 8
  %this1.i13.i.i.i = load %"struct.std::__1::default_delete"*, %"struct.std::__1::default_delete"** %this.addr.i12.i.i.i, align 8
  %115 = load %"class.std::__1::__thread_struct"*, %"class.std::__1::__thread_struct"** %__ptr.addr.i.i.i.i, align 8, !dbg !4928
  %isnull.i.i.i.i = icmp eq %"class.std::__1::__thread_struct"* %115, null, !dbg !4929
  br i1 %isnull.i.i.i.i, label %_ZNKSt3__114default_deleteINS_15__thread_structEEclEPS1_.exit.i.i.i, label %delete.notnull.i.i.i.i, !dbg !4929

delete.notnull.i.i.i.i:                           ; preds = %if.then.i.i.i
  call void @_ZNSt3__115__thread_structD1Ev(%"class.std::__1::__thread_struct"* %115) #2, !dbg !4930
  %116 = bitcast %"class.std::__1::__thread_struct"* %115 to i8*, !dbg !4930
  call void @_ZdlPv(i8* %116) #14, !dbg !4931
  br label %_ZNKSt3__114default_deleteINS_15__thread_structEEclEPS1_.exit.i.i.i, !dbg !4930

_ZNKSt3__114default_deleteINS_15__thread_structEEclEPS1_.exit.i.i.i: ; preds = %delete.notnull.i.i.i.i, %if.then.i.i.i
  br label %_ZNSt3__110unique_ptrINS_15__thread_structENS_14default_deleteIS1_EEED1Ev.exit, !dbg !4924

_ZNSt3__110unique_ptrINS_15__thread_structENS_14default_deleteIS1_EEED1Ev.exit: ; preds = %ehcleanup, %_ZNKSt3__114default_deleteINS_15__thread_structEEclEPS1_.exit.i.i.i
  br label %eh.resume, !dbg !4932

eh.resume:                                        ; preds = %_ZNSt3__110unique_ptrINS_15__thread_structENS_14default_deleteIS1_EEED1Ev.exit, %lpad
  %exn = load i8*, i8** %exn.slot, align 8, !dbg !4933
  %sel = load i32, i32* %ehselector.slot, align 4, !dbg !4933
  %lpad.val = insertvalue { i8*, i32 } undef, i8* %exn, 0, !dbg !4933
  %lpad.val16 = insertvalue { i8*, i32 } %lpad.val, i32 %sel, 1, !dbg !4933
  resume { i8*, i32 } %lpad.val16, !dbg !4933
}

; Function Attrs: nobuiltin
declare noalias i8* @_Znwm(i64) #9

declare void @_ZNSt3__115__thread_structC1Ev(%"class.std::__1::__thread_struct"*) unnamed_addr #4

; Function Attrs: nobuiltin nounwind
declare void @_ZdlPv(i8*) #10

; Function Attrs: noinline ssp uwtable
define linkonce_odr i8* @_ZNSt3__114__thread_proxyINS_5tupleIJNS_10unique_ptrINS_15__thread_structENS_14default_deleteIS3_EEEEPFvvEEEEEEPvSA_(i8* %__vp) #0 personality i8* bitcast (i32 (...)* @__gxx_personality_v0 to i8*) !dbg !4934 {
entry:
  %this.addr.i12.i.i.i40 = alloca %"struct.std::__1::default_delete.10"*, align 8
  call void @llvm.dbg.declare(metadata %"struct.std::__1::default_delete.10"** %this.addr.i12.i.i.i40, metadata !4153, metadata !3234), !dbg !4937
  %__ptr.addr.i.i.i.i41 = alloca %"class.std::__1::tuple"*, align 8
  call void @llvm.dbg.declare(metadata %"class.std::__1::tuple"** %__ptr.addr.i.i.i.i41, metadata !4312, metadata !3234), !dbg !4942
  %this.addr.i9.i.i.i42 = alloca %"class.std::__1::__compressed_pair.6"*, align 8
  call void @llvm.dbg.declare(metadata %"class.std::__1::__compressed_pair.6"** %this.addr.i9.i.i.i42, metadata !4314, metadata !3234), !dbg !4943
  %this.addr.i6.i.i.i43 = alloca %"class.std::__1::__compressed_pair.6"*, align 8
  call void @llvm.dbg.declare(metadata %"class.std::__1::__compressed_pair.6"** %this.addr.i6.i.i.i43, metadata !4319, metadata !3234), !dbg !4945
  %this.addr.i.i.i.i44 = alloca %"class.std::__1::__compressed_pair.6"*, align 8
  call void @llvm.dbg.declare(metadata %"class.std::__1::__compressed_pair.6"** %this.addr.i.i.i.i44, metadata !4319, metadata !3234), !dbg !4947
  %this.addr.i.i.i45 = alloca %"class.std::__1::unique_ptr.5"*, align 8
  call void @llvm.dbg.declare(metadata %"class.std::__1::unique_ptr.5"** %this.addr.i.i.i45, metadata !4325, metadata !3234), !dbg !4949
  %__p.addr.i.i.i46 = alloca %"class.std::__1::tuple"*, align 8
  call void @llvm.dbg.declare(metadata %"class.std::__1::tuple"** %__p.addr.i.i.i46, metadata !4328, metadata !3234), !dbg !4950
  %__tmp.i.i.i47 = alloca %"class.std::__1::tuple"*, align 8
  call void @llvm.dbg.declare(metadata %"class.std::__1::tuple"** %__tmp.i.i.i47, metadata !4330, metadata !3234), !dbg !4951
  %this.addr.i.i48 = alloca %"class.std::__1::unique_ptr.5"*, align 8
  call void @llvm.dbg.declare(metadata %"class.std::__1::unique_ptr.5"** %this.addr.i.i48, metadata !4332, metadata !3234), !dbg !4952
  %this.addr.i49 = alloca %"class.std::__1::unique_ptr.5"*, align 8
  call void @llvm.dbg.declare(metadata %"class.std::__1::unique_ptr.5"** %this.addr.i49, metadata !4334, metadata !3234), !dbg !4953
  %__t.addr.i2.i = alloca void ()**, align 8
  call void @llvm.dbg.declare(metadata void ()*** %__t.addr.i2.i, metadata !4954, metadata !3234), !dbg !4963
  %__t.addr.i.i.i36 = alloca void ()**, align 8
  call void @llvm.dbg.declare(metadata void ()*** %__t.addr.i.i.i36, metadata !4430, metadata !3234), !dbg !4975
  %__f.addr.i.i = alloca void ()**, align 8
  call void @llvm.dbg.declare(metadata void ()*** %__f.addr.i.i, metadata !4983, metadata !3234), !dbg !4984
  %this.addr.i.i.i37 = alloca %"class.std::__1::__tuple_leaf.8"*, align 8
  call void @llvm.dbg.declare(metadata %"class.std::__1::__tuple_leaf.8"** %this.addr.i.i.i37, metadata !4985, metadata !3234), !dbg !4987
  %__t.addr.i.i = alloca %"class.std::__1::tuple"*, align 8
  call void @llvm.dbg.declare(metadata %"class.std::__1::tuple"** %__t.addr.i.i, metadata !5002, metadata !3234), !dbg !5003
  %__t.addr.i38 = alloca %"class.std::__1::tuple"*, align 8
  call void @llvm.dbg.declare(metadata %"class.std::__1::tuple"** %__t.addr.i38, metadata !5004, metadata !3234), !dbg !5005
  %this.addr.i.i30 = alloca %"class.std::__1::__compressed_pair.6"*, align 8
  call void @llvm.dbg.declare(metadata %"class.std::__1::__compressed_pair.6"** %this.addr.i.i30, metadata !4380, metadata !3234), !dbg !5006
  %this.addr.i31 = alloca %"class.std::__1::unique_ptr.5"*, align 8
  call void @llvm.dbg.declare(metadata %"class.std::__1::unique_ptr.5"** %this.addr.i31, metadata !5010, metadata !3234), !dbg !5011
  %this.addr.i4.i = alloca %"class.std::__1::__compressed_pair.2"*, align 8
  call void @llvm.dbg.declare(metadata %"class.std::__1::__compressed_pair.2"** %this.addr.i4.i, metadata !4136, metadata !3234), !dbg !5012
  %this.addr.i.i24 = alloca %"class.std::__1::__compressed_pair.2"*, align 8
  call void @llvm.dbg.declare(metadata %"class.std::__1::__compressed_pair.2"** %this.addr.i.i24, metadata !4136, metadata !3234), !dbg !5016
  %this.addr.i25 = alloca %"class.std::__1::unique_ptr"*, align 8
  call void @llvm.dbg.declare(metadata %"class.std::__1::unique_ptr"** %this.addr.i25, metadata !4547, metadata !3234), !dbg !5018
  %__t.i = alloca %"class.std::__1::__thread_struct"*, align 8
  call void @llvm.dbg.declare(metadata %"class.std::__1::__thread_struct"** %__t.i, metadata !4549, metadata !3234), !dbg !5019
  %this.addr.i12.i.i.i = alloca %"struct.std::__1::default_delete.10"*, align 8
  call void @llvm.dbg.declare(metadata %"struct.std::__1::default_delete.10"** %this.addr.i12.i.i.i, metadata !4153, metadata !3234), !dbg !5020
  %__ptr.addr.i.i.i.i = alloca %"class.std::__1::tuple"*, align 8
  call void @llvm.dbg.declare(metadata %"class.std::__1::tuple"** %__ptr.addr.i.i.i.i, metadata !4312, metadata !3234), !dbg !5025
  %this.addr.i9.i.i.i = alloca %"class.std::__1::__compressed_pair.6"*, align 8
  call void @llvm.dbg.declare(metadata %"class.std::__1::__compressed_pair.6"** %this.addr.i9.i.i.i, metadata !4314, metadata !3234), !dbg !5026
  %this.addr.i6.i.i.i = alloca %"class.std::__1::__compressed_pair.6"*, align 8
  call void @llvm.dbg.declare(metadata %"class.std::__1::__compressed_pair.6"** %this.addr.i6.i.i.i, metadata !4319, metadata !3234), !dbg !5028
  %this.addr.i.i.i.i16 = alloca %"class.std::__1::__compressed_pair.6"*, align 8
  call void @llvm.dbg.declare(metadata %"class.std::__1::__compressed_pair.6"** %this.addr.i.i.i.i16, metadata !4319, metadata !3234), !dbg !5030
  %this.addr.i.i.i17 = alloca %"class.std::__1::unique_ptr.5"*, align 8
  call void @llvm.dbg.declare(metadata %"class.std::__1::unique_ptr.5"** %this.addr.i.i.i17, metadata !4325, metadata !3234), !dbg !5032
  %__p.addr.i.i.i = alloca %"class.std::__1::tuple"*, align 8
  call void @llvm.dbg.declare(metadata %"class.std::__1::tuple"** %__p.addr.i.i.i, metadata !4328, metadata !3234), !dbg !5033
  %__tmp.i.i.i = alloca %"class.std::__1::tuple"*, align 8
  call void @llvm.dbg.declare(metadata %"class.std::__1::tuple"** %__tmp.i.i.i, metadata !4330, metadata !3234), !dbg !5034
  %this.addr.i.i18 = alloca %"class.std::__1::unique_ptr.5"*, align 8
  call void @llvm.dbg.declare(metadata %"class.std::__1::unique_ptr.5"** %this.addr.i.i18, metadata !4332, metadata !3234), !dbg !5035
  %this.addr.i19 = alloca %"class.std::__1::unique_ptr.5"*, align 8
  call void @llvm.dbg.declare(metadata %"class.std::__1::unique_ptr.5"** %this.addr.i19, metadata !4334, metadata !3234), !dbg !5036
  %this.addr.i.i14 = alloca %"class.std::__1::__tuple_leaf"*, align 8
  call void @llvm.dbg.declare(metadata %"class.std::__1::__tuple_leaf"** %this.addr.i.i14, metadata !5037, metadata !3234), !dbg !5039
  %__t.addr.i = alloca %"class.std::__1::tuple"*, align 8
  call void @llvm.dbg.declare(metadata %"class.std::__1::tuple"** %__t.addr.i, metadata !5054, metadata !3234), !dbg !5055
  %this.addr.i.i10 = alloca %"class.std::__1::__compressed_pair.6"*, align 8
  call void @llvm.dbg.declare(metadata %"class.std::__1::__compressed_pair.6"** %this.addr.i.i10, metadata !4380, metadata !3234), !dbg !5056
  %this.addr.i11 = alloca %"class.std::__1::unique_ptr.5"*, align 8
  call void @llvm.dbg.declare(metadata %"class.std::__1::unique_ptr.5"** %this.addr.i11, metadata !5010, metadata !3234), !dbg !5059
  %__t.addr.i.i.i.i.i = alloca %"class.std::__1::tuple"**, align 8
  call void @llvm.dbg.declare(metadata %"class.std::__1::tuple"*** %__t.addr.i.i.i.i.i, metadata !4390, metadata !3234), !dbg !5060
  %this.addr.i.i.i.i = alloca %"class.std::__1::__compressed_pair.6"*, align 8
  call void @llvm.dbg.declare(metadata %"class.std::__1::__compressed_pair.6"** %this.addr.i.i.i.i, metadata !4414, metadata !3234), !dbg !5066
  %__t.addr.i.i.i.i = alloca %"class.std::__1::tuple"**, align 8
  call void @llvm.dbg.declare(metadata %"class.std::__1::tuple"*** %__t.addr.i.i.i.i, metadata !4416, metadata !3234), !dbg !5067
  %this.addr.i.i.i = alloca %"class.std::__1::__compressed_pair.6"*, align 8
  call void @llvm.dbg.declare(metadata %"class.std::__1::__compressed_pair.6"** %this.addr.i.i.i, metadata !4418, metadata !3234), !dbg !5068
  %__t.addr.i.i.i = alloca %"class.std::__1::tuple"**, align 8
  call void @llvm.dbg.declare(metadata %"class.std::__1::tuple"*** %__t.addr.i.i.i, metadata !4420, metadata !3234), !dbg !5069
  %this.addr.i.i = alloca %"class.std::__1::unique_ptr.5"*, align 8
  call void @llvm.dbg.declare(metadata %"class.std::__1::unique_ptr.5"** %this.addr.i.i, metadata !4422, metadata !3234), !dbg !5070
  %__p.addr.i.i = alloca %"class.std::__1::tuple"*, align 8
  call void @llvm.dbg.declare(metadata %"class.std::__1::tuple"** %__p.addr.i.i, metadata !4424, metadata !3234), !dbg !5071
  %this.addr.i = alloca %"class.std::__1::unique_ptr.5"*, align 8
  call void @llvm.dbg.declare(metadata %"class.std::__1::unique_ptr.5"** %this.addr.i, metadata !4426, metadata !3234), !dbg !5072
  %__p.addr.i = alloca %"class.std::__1::tuple"*, align 8
  call void @llvm.dbg.declare(metadata %"class.std::__1::tuple"** %__p.addr.i, metadata !4428, metadata !3234), !dbg !5073
  %__vp.addr = alloca i8*, align 8
  %__p = alloca %"class.std::__1::unique_ptr.5", align 8
  %exn.slot = alloca i8*
  %ehselector.slot = alloca i32
  %agg.tmp = alloca %"struct.std::__1::__tuple_indices.12", align 1
  store i8* %__vp, i8** %__vp.addr, align 8
  call void @llvm.dbg.declare(metadata i8** %__vp.addr, metadata !5074, metadata !3234), !dbg !5075
  call void @llvm.dbg.declare(metadata %"class.std::__1::unique_ptr.5"* %__p, metadata !5076, metadata !3234), !dbg !5077
  %0 = load i8*, i8** %__vp.addr, align 8, !dbg !5078
  %1 = bitcast i8* %0 to %"class.std::__1::tuple"*, !dbg !5079
  store %"class.std::__1::unique_ptr.5"* %__p, %"class.std::__1::unique_ptr.5"** %this.addr.i, align 8
  store %"class.std::__1::tuple"* %1, %"class.std::__1::tuple"** %__p.addr.i, align 8
  %this1.i = load %"class.std::__1::unique_ptr.5"*, %"class.std::__1::unique_ptr.5"** %this.addr.i, align 8
  %2 = load %"class.std::__1::tuple"*, %"class.std::__1::tuple"** %__p.addr.i, align 8, !dbg !5080
  store %"class.std::__1::unique_ptr.5"* %this1.i, %"class.std::__1::unique_ptr.5"** %this.addr.i.i, align 8
  store %"class.std::__1::tuple"* %2, %"class.std::__1::tuple"** %__p.addr.i.i, align 8
  %this1.i.i = load %"class.std::__1::unique_ptr.5"*, %"class.std::__1::unique_ptr.5"** %this.addr.i.i, align 8
  %__ptr_.i.i = getelementptr inbounds %"class.std::__1::unique_ptr.5", %"class.std::__1::unique_ptr.5"* %this1.i.i, i32 0, i32 0, !dbg !5081
  store %"class.std::__1::__compressed_pair.6"* %__ptr_.i.i, %"class.std::__1::__compressed_pair.6"** %this.addr.i.i.i, align 8
  store %"class.std::__1::tuple"** %__p.addr.i.i, %"class.std::__1::tuple"*** %__t.addr.i.i.i, align 8
  %this1.i.i.i = load %"class.std::__1::__compressed_pair.6"*, %"class.std::__1::__compressed_pair.6"** %this.addr.i.i.i, align 8
  %3 = load %"class.std::__1::tuple"**, %"class.std::__1::tuple"*** %__t.addr.i.i.i, align 8, !dbg !5082
  store %"class.std::__1::__compressed_pair.6"* %this1.i.i.i, %"class.std::__1::__compressed_pair.6"** %this.addr.i.i.i.i, align 8
  store %"class.std::__1::tuple"** %3, %"class.std::__1::tuple"*** %__t.addr.i.i.i.i, align 8
  %this1.i.i.i.i = load %"class.std::__1::__compressed_pair.6"*, %"class.std::__1::__compressed_pair.6"** %this.addr.i.i.i.i, align 8
  %4 = bitcast %"class.std::__1::__compressed_pair.6"* %this1.i.i.i.i to %"struct.std::__1::__compressed_pair_elem.7"*, !dbg !5083
  %5 = load %"class.std::__1::tuple"**, %"class.std::__1::tuple"*** %__t.addr.i.i.i.i, align 8, !dbg !5084
  store %"class.std::__1::tuple"** %5, %"class.std::__1::tuple"*** %__t.addr.i.i.i.i.i, align 8
  %6 = load %"class.std::__1::tuple"**, %"class.std::__1::tuple"*** %__t.addr.i.i.i.i.i, align 8, !dbg !5085
  call void @_ZNSt3__122__compressed_pair_elemIPNS_5tupleIJNS_10unique_ptrINS_15__thread_structENS_14default_deleteIS3_EEEEPFvvEEEELi0ELb0EEC2IRSA_vEEOT_(%"struct.std::__1::__compressed_pair_elem.7"* %4, %"class.std::__1::tuple"** dereferenceable(8) %6) #2, !dbg !5086
  %7 = bitcast %"class.std::__1::__compressed_pair.6"* %this1.i.i.i.i to %"struct.std::__1::__compressed_pair_elem.9"*, !dbg !5083
  %call = invoke dereferenceable(8) %"class.std::__1::__thread_specific_ptr"* @_ZNSt3__119__thread_local_dataEv()
          to label %invoke.cont unwind label %lpad, !dbg !5087

invoke.cont:                                      ; preds = %entry
  store %"class.std::__1::unique_ptr.5"* %__p, %"class.std::__1::unique_ptr.5"** %this.addr.i11, align 8
  %this1.i12 = load %"class.std::__1::unique_ptr.5"*, %"class.std::__1::unique_ptr.5"** %this.addr.i11, align 8
  %__ptr_.i = getelementptr inbounds %"class.std::__1::unique_ptr.5", %"class.std::__1::unique_ptr.5"* %this1.i12, i32 0, i32 0, !dbg !5088
  store %"class.std::__1::__compressed_pair.6"* %__ptr_.i, %"class.std::__1::__compressed_pair.6"** %this.addr.i.i10, align 8
  %this1.i.i13 = load %"class.std::__1::__compressed_pair.6"*, %"class.std::__1::__compressed_pair.6"** %this.addr.i.i10, align 8
  %8 = bitcast %"class.std::__1::__compressed_pair.6"* %this1.i.i13 to %"struct.std::__1::__compressed_pair_elem.7"*, !dbg !5089
  %call.i.i = call dereferenceable(8) %"class.std::__1::tuple"** @_ZNKSt3__122__compressed_pair_elemIPNS_5tupleIJNS_10unique_ptrINS_15__thread_structENS_14default_deleteIS3_EEEEPFvvEEEELi0ELb0EE5__getEv(%"struct.std::__1::__compressed_pair_elem.7"* %8) #2, !dbg !5090
  %9 = load %"class.std::__1::tuple"*, %"class.std::__1::tuple"** %call.i.i, align 8, !dbg !5091
  br label %invoke.cont1, !dbg !5092

invoke.cont1:                                     ; preds = %invoke.cont
  store %"class.std::__1::tuple"* %9, %"class.std::__1::tuple"** %__t.addr.i, align 8
  %10 = load %"class.std::__1::tuple"*, %"class.std::__1::tuple"** %__t.addr.i, align 8, !dbg !5093
  %base_.i = getelementptr inbounds %"class.std::__1::tuple", %"class.std::__1::tuple"* %10, i32 0, i32 0, !dbg !5094
  %11 = bitcast %"struct.std::__1::__tuple_impl"* %base_.i to %"class.std::__1::__tuple_leaf"*, !dbg !5093
  store %"class.std::__1::__tuple_leaf"* %11, %"class.std::__1::__tuple_leaf"** %this.addr.i.i14, align 8
  %this1.i.i15 = load %"class.std::__1::__tuple_leaf"*, %"class.std::__1::__tuple_leaf"** %this.addr.i.i14, align 8
  %value.i.i = getelementptr inbounds %"class.std::__1::__tuple_leaf", %"class.std::__1::__tuple_leaf"* %this1.i.i15, i32 0, i32 0, !dbg !5095
  store %"class.std::__1::unique_ptr"* %value.i.i, %"class.std::__1::unique_ptr"** %this.addr.i25, align 8
  %this1.i26 = load %"class.std::__1::unique_ptr"*, %"class.std::__1::unique_ptr"** %this.addr.i25, align 8
  %__ptr_.i27 = getelementptr inbounds %"class.std::__1::unique_ptr", %"class.std::__1::unique_ptr"* %this1.i26, i32 0, i32 0, !dbg !5096
  store %"class.std::__1::__compressed_pair.2"* %__ptr_.i27, %"class.std::__1::__compressed_pair.2"** %this.addr.i.i24, align 8
  %this1.i.i28 = load %"class.std::__1::__compressed_pair.2"*, %"class.std::__1::__compressed_pair.2"** %this.addr.i.i24, align 8
  %12 = bitcast %"class.std::__1::__compressed_pair.2"* %this1.i.i28 to %"struct.std::__1::__compressed_pair_elem.3"*, !dbg !5097
  %call.i.i29 = call dereferenceable(8) %"class.std::__1::__thread_struct"** @_ZNSt3__122__compressed_pair_elemIPNS_15__thread_structELi0ELb0EE5__getEv(%"struct.std::__1::__compressed_pair_elem.3"* %12) #2, !dbg !5098
  %13 = load %"class.std::__1::__thread_struct"*, %"class.std::__1::__thread_struct"** %call.i.i29, align 8, !dbg !5099
  store %"class.std::__1::__thread_struct"* %13, %"class.std::__1::__thread_struct"** %__t.i, align 8, !dbg !5019
  %__ptr_2.i = getelementptr inbounds %"class.std::__1::unique_ptr", %"class.std::__1::unique_ptr"* %this1.i26, i32 0, i32 0, !dbg !5100
  store %"class.std::__1::__compressed_pair.2"* %__ptr_2.i, %"class.std::__1::__compressed_pair.2"** %this.addr.i4.i, align 8
  %this1.i5.i = load %"class.std::__1::__compressed_pair.2"*, %"class.std::__1::__compressed_pair.2"** %this.addr.i4.i, align 8
  %14 = bitcast %"class.std::__1::__compressed_pair.2"* %this1.i5.i to %"struct.std::__1::__compressed_pair_elem.3"*, !dbg !5101
  %call.i6.i = call dereferenceable(8) %"class.std::__1::__thread_struct"** @_ZNSt3__122__compressed_pair_elemIPNS_15__thread_structELi0ELb0EE5__getEv(%"struct.std::__1::__compressed_pair_elem.3"* %14) #2, !dbg !5102
  store %"class.std::__1::__thread_struct"* null, %"class.std::__1::__thread_struct"** %call.i6.i, align 8, !dbg !5103
  %15 = load %"class.std::__1::__thread_struct"*, %"class.std::__1::__thread_struct"** %__t.i, align 8, !dbg !5104
  invoke void @_ZNSt3__121__thread_specific_ptrINS_15__thread_structEE11set_pointerEPS1_(%"class.std::__1::__thread_specific_ptr"* %call, %"class.std::__1::__thread_struct"* %15)
          to label %invoke.cont5 unwind label %lpad, !dbg !5105

invoke.cont5:                                     ; preds = %invoke.cont1
  store %"class.std::__1::unique_ptr.5"* %__p, %"class.std::__1::unique_ptr.5"** %this.addr.i31, align 8
  %this1.i32 = load %"class.std::__1::unique_ptr.5"*, %"class.std::__1::unique_ptr.5"** %this.addr.i31, align 8
  %__ptr_.i33 = getelementptr inbounds %"class.std::__1::unique_ptr.5", %"class.std::__1::unique_ptr.5"* %this1.i32, i32 0, i32 0, !dbg !5106
  store %"class.std::__1::__compressed_pair.6"* %__ptr_.i33, %"class.std::__1::__compressed_pair.6"** %this.addr.i.i30, align 8
  %this1.i.i34 = load %"class.std::__1::__compressed_pair.6"*, %"class.std::__1::__compressed_pair.6"** %this.addr.i.i30, align 8
  %16 = bitcast %"class.std::__1::__compressed_pair.6"* %this1.i.i34 to %"struct.std::__1::__compressed_pair_elem.7"*, !dbg !5107
  %call.i.i35 = call dereferenceable(8) %"class.std::__1::tuple"** @_ZNKSt3__122__compressed_pair_elemIPNS_5tupleIJNS_10unique_ptrINS_15__thread_structENS_14default_deleteIS3_EEEEPFvvEEEELi0ELb0EE5__getEv(%"struct.std::__1::__compressed_pair_elem.7"* %16) #2, !dbg !5108
  %17 = load %"class.std::__1::tuple"*, %"class.std::__1::tuple"** %call.i.i35, align 8, !dbg !5109
  br label %invoke.cont6, !dbg !5110

invoke.cont6:                                     ; preds = %invoke.cont5
  store %"class.std::__1::tuple"* %17, %"class.std::__1::tuple"** %__t.addr.i38, align 8
  call void @llvm.dbg.declare(metadata !199, metadata !5111, metadata !3234), !dbg !5112
  %18 = load %"class.std::__1::tuple"*, %"class.std::__1::tuple"** %__t.addr.i38, align 8, !dbg !5113
  store %"class.std::__1::tuple"* %18, %"class.std::__1::tuple"** %__t.addr.i.i, align 8
  %19 = load %"class.std::__1::tuple"*, %"class.std::__1::tuple"** %__t.addr.i.i, align 8, !dbg !5114
  %base_.i.i = getelementptr inbounds %"class.std::__1::tuple", %"class.std::__1::tuple"* %19, i32 0, i32 0, !dbg !5115
  %20 = bitcast %"struct.std::__1::__tuple_impl"* %base_.i.i to i8*, !dbg !5114
  %add.ptr.i.i = getelementptr inbounds i8, i8* %20, i64 8, !dbg !5114
  %21 = bitcast i8* %add.ptr.i.i to %"class.std::__1::__tuple_leaf.8"*, !dbg !5114
  store %"class.std::__1::__tuple_leaf.8"* %21, %"class.std::__1::__tuple_leaf.8"** %this.addr.i.i.i37, align 8
  %this1.i.i.i39 = load %"class.std::__1::__tuple_leaf.8"*, %"class.std::__1::__tuple_leaf.8"** %this.addr.i.i.i37, align 8
  %value.i.i.i = getelementptr inbounds %"class.std::__1::__tuple_leaf.8", %"class.std::__1::__tuple_leaf.8"* %this1.i.i.i39, i32 0, i32 0, !dbg !5116
  store void ()** %value.i.i.i, void ()*** %__t.addr.i2.i, align 8
  %22 = load void ()**, void ()*** %__t.addr.i2.i, align 8, !dbg !5117
  store void ()** %22, void ()*** %__f.addr.i.i, align 8
  %23 = load void ()**, void ()*** %__f.addr.i.i, align 8, !dbg !5118
  store void ()** %23, void ()*** %__t.addr.i.i.i36, align 8
  %24 = load void ()**, void ()*** %__t.addr.i.i.i36, align 8, !dbg !5119
  %25 = load void ()*, void ()** %24, align 8, !dbg !5118
  invoke void %25()
          to label %_ZNSt3__116__thread_executeINS_10unique_ptrINS_15__thread_structENS_14default_deleteIS2_EEEEPFvvEJEJEEEvRNS_5tupleIJT_T0_DpT1_EEENS_15__tuple_indicesIJXspT2_EEEE.exit unwind label %lpad, !dbg !5120

_ZNSt3__116__thread_executeINS_10unique_ptrINS_15__thread_structENS_14default_deleteIS2_EEEEPFvvEJEJEEEvRNS_5tupleIJT_T0_DpT1_EEENS_15__tuple_indicesIJXspT2_EEEE.exit: ; preds = %invoke.cont6
  br label %invoke.cont8, !dbg !5122

invoke.cont8:                                     ; preds = %_ZNSt3__116__thread_executeINS_10unique_ptrINS_15__thread_structENS_14default_deleteIS2_EEEEPFvvEJEJEEEvRNS_5tupleIJT_T0_DpT1_EEENS_15__tuple_indicesIJXspT2_EEEE.exit
  store %"class.std::__1::unique_ptr.5"* %__p, %"class.std::__1::unique_ptr.5"** %this.addr.i49, align 8
  %this1.i50 = load %"class.std::__1::unique_ptr.5"*, %"class.std::__1::unique_ptr.5"** %this.addr.i49, align 8
  store %"class.std::__1::unique_ptr.5"* %this1.i50, %"class.std::__1::unique_ptr.5"** %this.addr.i.i48, align 8
  %this1.i.i51 = load %"class.std::__1::unique_ptr.5"*, %"class.std::__1::unique_ptr.5"** %this.addr.i.i48, align 8
  store %"class.std::__1::unique_ptr.5"* %this1.i.i51, %"class.std::__1::unique_ptr.5"** %this.addr.i.i.i45, align 8
  store %"class.std::__1::tuple"* null, %"class.std::__1::tuple"** %__p.addr.i.i.i46, align 8
  %this1.i.i.i52 = load %"class.std::__1::unique_ptr.5"*, %"class.std::__1::unique_ptr.5"** %this.addr.i.i.i45, align 8
  %__ptr_.i.i.i53 = getelementptr inbounds %"class.std::__1::unique_ptr.5", %"class.std::__1::unique_ptr.5"* %this1.i.i.i52, i32 0, i32 0, !dbg !5123
  store %"class.std::__1::__compressed_pair.6"* %__ptr_.i.i.i53, %"class.std::__1::__compressed_pair.6"** %this.addr.i.i.i.i44, align 8
  %this1.i.i.i.i54 = load %"class.std::__1::__compressed_pair.6"*, %"class.std::__1::__compressed_pair.6"** %this.addr.i.i.i.i44, align 8
  %26 = bitcast %"class.std::__1::__compressed_pair.6"* %this1.i.i.i.i54 to %"struct.std::__1::__compressed_pair_elem.7"*, !dbg !5124
  %call.i.i.i.i55 = call dereferenceable(8) %"class.std::__1::tuple"** @_ZNSt3__122__compressed_pair_elemIPNS_5tupleIJNS_10unique_ptrINS_15__thread_structENS_14default_deleteIS3_EEEEPFvvEEEELi0ELb0EE5__getEv(%"struct.std::__1::__compressed_pair_elem.7"* %26) #2, !dbg !5125
  %27 = load %"class.std::__1::tuple"*, %"class.std::__1::tuple"** %call.i.i.i.i55, align 8, !dbg !5126
  store %"class.std::__1::tuple"* %27, %"class.std::__1::tuple"** %__tmp.i.i.i47, align 8, !dbg !4951
  %28 = load %"class.std::__1::tuple"*, %"class.std::__1::tuple"** %__p.addr.i.i.i46, align 8, !dbg !5127
  %__ptr_2.i.i.i56 = getelementptr inbounds %"class.std::__1::unique_ptr.5", %"class.std::__1::unique_ptr.5"* %this1.i.i.i52, i32 0, i32 0, !dbg !5128
  store %"class.std::__1::__compressed_pair.6"* %__ptr_2.i.i.i56, %"class.std::__1::__compressed_pair.6"** %this.addr.i6.i.i.i43, align 8
  %this1.i7.i.i.i57 = load %"class.std::__1::__compressed_pair.6"*, %"class.std::__1::__compressed_pair.6"** %this.addr.i6.i.i.i43, align 8
  %29 = bitcast %"class.std::__1::__compressed_pair.6"* %this1.i7.i.i.i57 to %"struct.std::__1::__compressed_pair_elem.7"*, !dbg !5129
  %call.i8.i.i.i58 = call dereferenceable(8) %"class.std::__1::tuple"** @_ZNSt3__122__compressed_pair_elemIPNS_5tupleIJNS_10unique_ptrINS_15__thread_structENS_14default_deleteIS3_EEEEPFvvEEEELi0ELb0EE5__getEv(%"struct.std::__1::__compressed_pair_elem.7"* %29) #2, !dbg !5130
  store %"class.std::__1::tuple"* %28, %"class.std::__1::tuple"** %call.i8.i.i.i58, align 8, !dbg !5131
  %30 = load %"class.std::__1::tuple"*, %"class.std::__1::tuple"** %__tmp.i.i.i47, align 8, !dbg !5132
  %tobool.i.i.i59 = icmp ne %"class.std::__1::tuple"* %30, null, !dbg !5132
  br i1 %tobool.i.i.i59, label %if.then.i.i.i65, label %_ZNSt3__110unique_ptrINS_5tupleIJNS0_INS_15__thread_structENS_14default_deleteIS2_EEEEPFvvEEEENS3_IS8_EEED1Ev.exit68, !dbg !5133

if.then.i.i.i65:                                  ; preds = %invoke.cont8
  %__ptr_4.i.i.i60 = getelementptr inbounds %"class.std::__1::unique_ptr.5", %"class.std::__1::unique_ptr.5"* %this1.i.i.i52, i32 0, i32 0, !dbg !5134
  store %"class.std::__1::__compressed_pair.6"* %__ptr_4.i.i.i60, %"class.std::__1::__compressed_pair.6"** %this.addr.i9.i.i.i42, align 8
  %this1.i10.i.i.i61 = load %"class.std::__1::__compressed_pair.6"*, %"class.std::__1::__compressed_pair.6"** %this.addr.i9.i.i.i42, align 8
  %31 = bitcast %"class.std::__1::__compressed_pair.6"* %this1.i10.i.i.i61 to %"struct.std::__1::__compressed_pair_elem.9"*, !dbg !5135
  %call.i11.i.i.i62 = call dereferenceable(1) %"struct.std::__1::default_delete.10"* @_ZNSt3__122__compressed_pair_elemINS_14default_deleteINS_5tupleIJNS_10unique_ptrINS_15__thread_structENS1_IS4_EEEEPFvvEEEEEELi1ELb1EE5__getEv(%"struct.std::__1::__compressed_pair_elem.9"* %31) #2, !dbg !5136
  %32 = load %"class.std::__1::tuple"*, %"class.std::__1::tuple"** %__tmp.i.i.i47, align 8, !dbg !5137
  store %"struct.std::__1::default_delete.10"* %call.i11.i.i.i62, %"struct.std::__1::default_delete.10"** %this.addr.i12.i.i.i40, align 8
  store %"class.std::__1::tuple"* %32, %"class.std::__1::tuple"** %__ptr.addr.i.i.i.i41, align 8
  %this1.i13.i.i.i63 = load %"struct.std::__1::default_delete.10"*, %"struct.std::__1::default_delete.10"** %this.addr.i12.i.i.i40, align 8
  %33 = load %"class.std::__1::tuple"*, %"class.std::__1::tuple"** %__ptr.addr.i.i.i.i41, align 8, !dbg !5138
  %isnull.i.i.i.i64 = icmp eq %"class.std::__1::tuple"* %33, null, !dbg !5139
  br i1 %isnull.i.i.i.i64, label %_ZNKSt3__114default_deleteINS_5tupleIJNS_10unique_ptrINS_15__thread_structENS0_IS3_EEEEPFvvEEEEEclEPS8_.exit.i.i.i67, label %delete.notnull.i.i.i.i66, !dbg !5139

delete.notnull.i.i.i.i66:                         ; preds = %if.then.i.i.i65
  call void @_ZNSt3__15tupleIJNS_10unique_ptrINS_15__thread_structENS_14default_deleteIS2_EEEEPFvvEEED1Ev(%"class.std::__1::tuple"* %33) #2, !dbg !5140
  %34 = bitcast %"class.std::__1::tuple"* %33 to i8*, !dbg !5140
  call void @_ZdlPv(i8* %34) #14, !dbg !5141
  br label %_ZNKSt3__114default_deleteINS_5tupleIJNS_10unique_ptrINS_15__thread_structENS0_IS3_EEEEPFvvEEEEEclEPS8_.exit.i.i.i67, !dbg !5140

_ZNKSt3__114default_deleteINS_5tupleIJNS_10unique_ptrINS_15__thread_structENS0_IS3_EEEEPFvvEEEEEclEPS8_.exit.i.i.i67: ; preds = %delete.notnull.i.i.i.i66, %if.then.i.i.i65
  br label %_ZNSt3__110unique_ptrINS_5tupleIJNS0_INS_15__thread_structENS_14default_deleteIS2_EEEEPFvvEEEENS3_IS8_EEED1Ev.exit68, !dbg !5134

_ZNSt3__110unique_ptrINS_5tupleIJNS0_INS_15__thread_structENS_14default_deleteIS2_EEEEPFvvEEEENS3_IS8_EEED1Ev.exit68: ; preds = %invoke.cont8, %_ZNKSt3__114default_deleteINS_5tupleIJNS_10unique_ptrINS_15__thread_structENS0_IS3_EEEEPFvvEEEEEclEPS8_.exit.i.i.i67
  ret i8* null, !dbg !5142

lpad:                                             ; preds = %invoke.cont6, %invoke.cont1, %entry
  %35 = landingpad { i8*, i32 }
          cleanup, !dbg !5143
  %36 = extractvalue { i8*, i32 } %35, 0, !dbg !5143
  store i8* %36, i8** %exn.slot, align 8, !dbg !5143
  %37 = extractvalue { i8*, i32 } %35, 1, !dbg !5143
  store i32 %37, i32* %ehselector.slot, align 4, !dbg !5143
  store %"class.std::__1::unique_ptr.5"* %__p, %"class.std::__1::unique_ptr.5"** %this.addr.i19, align 8
  %this1.i20 = load %"class.std::__1::unique_ptr.5"*, %"class.std::__1::unique_ptr.5"** %this.addr.i19, align 8
  store %"class.std::__1::unique_ptr.5"* %this1.i20, %"class.std::__1::unique_ptr.5"** %this.addr.i.i18, align 8
  %this1.i.i21 = load %"class.std::__1::unique_ptr.5"*, %"class.std::__1::unique_ptr.5"** %this.addr.i.i18, align 8
  store %"class.std::__1::unique_ptr.5"* %this1.i.i21, %"class.std::__1::unique_ptr.5"** %this.addr.i.i.i17, align 8
  store %"class.std::__1::tuple"* null, %"class.std::__1::tuple"** %__p.addr.i.i.i, align 8
  %this1.i.i.i22 = load %"class.std::__1::unique_ptr.5"*, %"class.std::__1::unique_ptr.5"** %this.addr.i.i.i17, align 8
  %__ptr_.i.i.i = getelementptr inbounds %"class.std::__1::unique_ptr.5", %"class.std::__1::unique_ptr.5"* %this1.i.i.i22, i32 0, i32 0, !dbg !5144
  store %"class.std::__1::__compressed_pair.6"* %__ptr_.i.i.i, %"class.std::__1::__compressed_pair.6"** %this.addr.i.i.i.i16, align 8
  %this1.i.i.i.i23 = load %"class.std::__1::__compressed_pair.6"*, %"class.std::__1::__compressed_pair.6"** %this.addr.i.i.i.i16, align 8
  %38 = bitcast %"class.std::__1::__compressed_pair.6"* %this1.i.i.i.i23 to %"struct.std::__1::__compressed_pair_elem.7"*, !dbg !5145
  %call.i.i.i.i = call dereferenceable(8) %"class.std::__1::tuple"** @_ZNSt3__122__compressed_pair_elemIPNS_5tupleIJNS_10unique_ptrINS_15__thread_structENS_14default_deleteIS3_EEEEPFvvEEEELi0ELb0EE5__getEv(%"struct.std::__1::__compressed_pair_elem.7"* %38) #2, !dbg !5146
  %39 = load %"class.std::__1::tuple"*, %"class.std::__1::tuple"** %call.i.i.i.i, align 8, !dbg !5147
  store %"class.std::__1::tuple"* %39, %"class.std::__1::tuple"** %__tmp.i.i.i, align 8, !dbg !5034
  %40 = load %"class.std::__1::tuple"*, %"class.std::__1::tuple"** %__p.addr.i.i.i, align 8, !dbg !5148
  %__ptr_2.i.i.i = getelementptr inbounds %"class.std::__1::unique_ptr.5", %"class.std::__1::unique_ptr.5"* %this1.i.i.i22, i32 0, i32 0, !dbg !5149
  store %"class.std::__1::__compressed_pair.6"* %__ptr_2.i.i.i, %"class.std::__1::__compressed_pair.6"** %this.addr.i6.i.i.i, align 8
  %this1.i7.i.i.i = load %"class.std::__1::__compressed_pair.6"*, %"class.std::__1::__compressed_pair.6"** %this.addr.i6.i.i.i, align 8
  %41 = bitcast %"class.std::__1::__compressed_pair.6"* %this1.i7.i.i.i to %"struct.std::__1::__compressed_pair_elem.7"*, !dbg !5150
  %call.i8.i.i.i = call dereferenceable(8) %"class.std::__1::tuple"** @_ZNSt3__122__compressed_pair_elemIPNS_5tupleIJNS_10unique_ptrINS_15__thread_structENS_14default_deleteIS3_EEEEPFvvEEEELi0ELb0EE5__getEv(%"struct.std::__1::__compressed_pair_elem.7"* %41) #2, !dbg !5151
  store %"class.std::__1::tuple"* %40, %"class.std::__1::tuple"** %call.i8.i.i.i, align 8, !dbg !5152
  %42 = load %"class.std::__1::tuple"*, %"class.std::__1::tuple"** %__tmp.i.i.i, align 8, !dbg !5153
  %tobool.i.i.i = icmp ne %"class.std::__1::tuple"* %42, null, !dbg !5153
  br i1 %tobool.i.i.i, label %if.then.i.i.i, label %_ZNSt3__110unique_ptrINS_5tupleIJNS0_INS_15__thread_structENS_14default_deleteIS2_EEEEPFvvEEEENS3_IS8_EEED1Ev.exit, !dbg !5154

if.then.i.i.i:                                    ; preds = %lpad
  %__ptr_4.i.i.i = getelementptr inbounds %"class.std::__1::unique_ptr.5", %"class.std::__1::unique_ptr.5"* %this1.i.i.i22, i32 0, i32 0, !dbg !5155
  store %"class.std::__1::__compressed_pair.6"* %__ptr_4.i.i.i, %"class.std::__1::__compressed_pair.6"** %this.addr.i9.i.i.i, align 8
  %this1.i10.i.i.i = load %"class.std::__1::__compressed_pair.6"*, %"class.std::__1::__compressed_pair.6"** %this.addr.i9.i.i.i, align 8
  %43 = bitcast %"class.std::__1::__compressed_pair.6"* %this1.i10.i.i.i to %"struct.std::__1::__compressed_pair_elem.9"*, !dbg !5156
  %call.i11.i.i.i = call dereferenceable(1) %"struct.std::__1::default_delete.10"* @_ZNSt3__122__compressed_pair_elemINS_14default_deleteINS_5tupleIJNS_10unique_ptrINS_15__thread_structENS1_IS4_EEEEPFvvEEEEEELi1ELb1EE5__getEv(%"struct.std::__1::__compressed_pair_elem.9"* %43) #2, !dbg !5157
  %44 = load %"class.std::__1::tuple"*, %"class.std::__1::tuple"** %__tmp.i.i.i, align 8, !dbg !5158
  store %"struct.std::__1::default_delete.10"* %call.i11.i.i.i, %"struct.std::__1::default_delete.10"** %this.addr.i12.i.i.i, align 8
  store %"class.std::__1::tuple"* %44, %"class.std::__1::tuple"** %__ptr.addr.i.i.i.i, align 8
  %this1.i13.i.i.i = load %"struct.std::__1::default_delete.10"*, %"struct.std::__1::default_delete.10"** %this.addr.i12.i.i.i, align 8
  %45 = load %"class.std::__1::tuple"*, %"class.std::__1::tuple"** %__ptr.addr.i.i.i.i, align 8, !dbg !5159
  %isnull.i.i.i.i = icmp eq %"class.std::__1::tuple"* %45, null, !dbg !5160
  br i1 %isnull.i.i.i.i, label %_ZNKSt3__114default_deleteINS_5tupleIJNS_10unique_ptrINS_15__thread_structENS0_IS3_EEEEPFvvEEEEEclEPS8_.exit.i.i.i, label %delete.notnull.i.i.i.i, !dbg !5160

delete.notnull.i.i.i.i:                           ; preds = %if.then.i.i.i
  call void @_ZNSt3__15tupleIJNS_10unique_ptrINS_15__thread_structENS_14default_deleteIS2_EEEEPFvvEEED1Ev(%"class.std::__1::tuple"* %45) #2, !dbg !5161
  %46 = bitcast %"class.std::__1::tuple"* %45 to i8*, !dbg !5161
  call void @_ZdlPv(i8* %46) #14, !dbg !5162
  br label %_ZNKSt3__114default_deleteINS_5tupleIJNS_10unique_ptrINS_15__thread_structENS0_IS3_EEEEPFvvEEEEEclEPS8_.exit.i.i.i, !dbg !5161

_ZNKSt3__114default_deleteINS_5tupleIJNS_10unique_ptrINS_15__thread_structENS0_IS3_EEEEPFvvEEEEEclEPS8_.exit.i.i.i: ; preds = %delete.notnull.i.i.i.i, %if.then.i.i.i
  br label %_ZNSt3__110unique_ptrINS_5tupleIJNS0_INS_15__thread_structENS_14default_deleteIS2_EEEEPFvvEEEENS3_IS8_EEED1Ev.exit, !dbg !5155

_ZNSt3__110unique_ptrINS_5tupleIJNS0_INS_15__thread_structENS_14default_deleteIS2_EEEEPFvvEEEENS3_IS8_EEED1Ev.exit: ; preds = %lpad, %_ZNKSt3__114default_deleteINS_5tupleIJNS_10unique_ptrINS_15__thread_structENS0_IS3_EEEEPFvvEEEEEclEPS8_.exit.i.i.i
  br label %eh.resume, !dbg !5143

eh.resume:                                        ; preds = %_ZNSt3__110unique_ptrINS_5tupleIJNS0_INS_15__thread_structENS_14default_deleteIS2_EEEEPFvvEEEENS3_IS8_EEED1Ev.exit
  %exn = load i8*, i8** %exn.slot, align 8, !dbg !5163
  %sel = load i32, i32* %ehselector.slot, align 4, !dbg !5163
  %lpad.val = insertvalue { i8*, i32 } undef, i8* %exn, 0, !dbg !5163
  %lpad.val9 = insertvalue { i8*, i32 } %lpad.val, i32 %sel, 1, !dbg !5163
  resume { i8*, i32 } %lpad.val9, !dbg !5163
}

; Function Attrs: noreturn
declare void @_ZNSt3__120__throw_system_errorEiPKc(i32, i8*) #11

; Function Attrs: noinline nounwind ssp uwtable
define linkonce_odr void @_ZNSt3__122__compressed_pair_elemIPNS_15__thread_structELi0ELb0EEC2IRS2_vEEOT_(%"struct.std::__1::__compressed_pair_elem.3"* %this, %"class.std::__1::__thread_struct"** dereferenceable(8) %__u) unnamed_addr #7 align 2 !dbg !5164 {
entry:
  %__t.addr.i = alloca %"class.std::__1::__thread_struct"**, align 8
  call void @llvm.dbg.declare(metadata %"class.std::__1::__thread_struct"*** %__t.addr.i, metadata !4676, metadata !3234), !dbg !5170
  %this.addr = alloca %"struct.std::__1::__compressed_pair_elem.3"*, align 8
  %__u.addr = alloca %"class.std::__1::__thread_struct"**, align 8
  store %"struct.std::__1::__compressed_pair_elem.3"* %this, %"struct.std::__1::__compressed_pair_elem.3"** %this.addr, align 8
  call void @llvm.dbg.declare(metadata %"struct.std::__1::__compressed_pair_elem.3"** %this.addr, metadata !5172, metadata !3234), !dbg !5174
  store %"class.std::__1::__thread_struct"** %__u, %"class.std::__1::__thread_struct"*** %__u.addr, align 8
  call void @llvm.dbg.declare(metadata %"class.std::__1::__thread_struct"*** %__u.addr, metadata !5175, metadata !3234), !dbg !5176
  %this1 = load %"struct.std::__1::__compressed_pair_elem.3"*, %"struct.std::__1::__compressed_pair_elem.3"** %this.addr, align 8
  %__value_ = getelementptr inbounds %"struct.std::__1::__compressed_pair_elem.3", %"struct.std::__1::__compressed_pair_elem.3"* %this1, i32 0, i32 0, !dbg !5177
  %0 = load %"class.std::__1::__thread_struct"**, %"class.std::__1::__thread_struct"*** %__u.addr, align 8, !dbg !5178
  store %"class.std::__1::__thread_struct"** %0, %"class.std::__1::__thread_struct"*** %__t.addr.i, align 8
  %1 = load %"class.std::__1::__thread_struct"**, %"class.std::__1::__thread_struct"*** %__t.addr.i, align 8, !dbg !5179
  %2 = load %"class.std::__1::__thread_struct"*, %"class.std::__1::__thread_struct"** %1, align 8, !dbg !5180
  store %"class.std::__1::__thread_struct"* %2, %"class.std::__1::__thread_struct"** %__value_, align 8, !dbg !5177
  ret void, !dbg !5181
}

; Function Attrs: noinline nounwind ssp uwtable
define linkonce_odr dereferenceable(8) %"class.std::__1::__thread_struct"** @_ZNSt3__122__compressed_pair_elemIPNS_15__thread_structELi0ELb0EE5__getEv(%"struct.std::__1::__compressed_pair_elem.3"* %this) #7 align 2 !dbg !5182 {
entry:
  %this.addr = alloca %"struct.std::__1::__compressed_pair_elem.3"*, align 8
  store %"struct.std::__1::__compressed_pair_elem.3"* %this, %"struct.std::__1::__compressed_pair_elem.3"** %this.addr, align 8
  call void @llvm.dbg.declare(metadata %"struct.std::__1::__compressed_pair_elem.3"** %this.addr, metadata !5183, metadata !3234), !dbg !5184
  %this1 = load %"struct.std::__1::__compressed_pair_elem.3"*, %"struct.std::__1::__compressed_pair_elem.3"** %this.addr, align 8
  %__value_ = getelementptr inbounds %"struct.std::__1::__compressed_pair_elem.3", %"struct.std::__1::__compressed_pair_elem.3"* %this1, i32 0, i32 0, !dbg !5185
  ret %"class.std::__1::__thread_struct"** %__value_, !dbg !5186
}

; Function Attrs: noinline nounwind ssp uwtable
define linkonce_odr dereferenceable(1) %"struct.std::__1::default_delete"* @_ZNSt3__122__compressed_pair_elemINS_14default_deleteINS_15__thread_structEEELi1ELb1EE5__getEv(%"struct.std::__1::__compressed_pair_elem.4"* %this) #7 align 2 !dbg !5187 {
entry:
  %this.addr = alloca %"struct.std::__1::__compressed_pair_elem.4"*, align 8
  store %"struct.std::__1::__compressed_pair_elem.4"* %this, %"struct.std::__1::__compressed_pair_elem.4"** %this.addr, align 8
  call void @llvm.dbg.declare(metadata %"struct.std::__1::__compressed_pair_elem.4"** %this.addr, metadata !5188, metadata !3234), !dbg !5190
  %this1 = load %"struct.std::__1::__compressed_pair_elem.4"*, %"struct.std::__1::__compressed_pair_elem.4"** %this.addr, align 8
  %0 = bitcast %"struct.std::__1::__compressed_pair_elem.4"* %this1 to %"struct.std::__1::default_delete"*, !dbg !5191
  ret %"struct.std::__1::default_delete"* %0, !dbg !5192
}

; Function Attrs: noinline nounwind ssp uwtable
define linkonce_odr void @_ZNSt3__122__compressed_pair_elemIPNS_15__thread_structELi0ELb0EEC2IS2_vEEOT_(%"struct.std::__1::__compressed_pair_elem.3"* %this, %"class.std::__1::__thread_struct"** dereferenceable(8) %__u) unnamed_addr #7 align 2 !dbg !5193 {
entry:
  %__t.addr.i = alloca %"class.std::__1::__thread_struct"**, align 8
  call void @llvm.dbg.declare(metadata %"class.std::__1::__thread_struct"*** %__t.addr.i, metadata !4509, metadata !3234), !dbg !5199
  %this.addr = alloca %"struct.std::__1::__compressed_pair_elem.3"*, align 8
  %__u.addr = alloca %"class.std::__1::__thread_struct"**, align 8
  store %"struct.std::__1::__compressed_pair_elem.3"* %this, %"struct.std::__1::__compressed_pair_elem.3"** %this.addr, align 8
  call void @llvm.dbg.declare(metadata %"struct.std::__1::__compressed_pair_elem.3"** %this.addr, metadata !5201, metadata !3234), !dbg !5202
  store %"class.std::__1::__thread_struct"** %__u, %"class.std::__1::__thread_struct"*** %__u.addr, align 8
  call void @llvm.dbg.declare(metadata %"class.std::__1::__thread_struct"*** %__u.addr, metadata !5203, metadata !3234), !dbg !5204
  %this1 = load %"struct.std::__1::__compressed_pair_elem.3"*, %"struct.std::__1::__compressed_pair_elem.3"** %this.addr, align 8
  %__value_ = getelementptr inbounds %"struct.std::__1::__compressed_pair_elem.3", %"struct.std::__1::__compressed_pair_elem.3"* %this1, i32 0, i32 0, !dbg !5205
  %0 = load %"class.std::__1::__thread_struct"**, %"class.std::__1::__thread_struct"*** %__u.addr, align 8, !dbg !5206
  store %"class.std::__1::__thread_struct"** %0, %"class.std::__1::__thread_struct"*** %__t.addr.i, align 8
  %1 = load %"class.std::__1::__thread_struct"**, %"class.std::__1::__thread_struct"*** %__t.addr.i, align 8, !dbg !5207
  %2 = load %"class.std::__1::__thread_struct"*, %"class.std::__1::__thread_struct"** %1, align 8, !dbg !5208
  store %"class.std::__1::__thread_struct"* %2, %"class.std::__1::__thread_struct"** %__value_, align 8, !dbg !5205
  ret void, !dbg !5209
}

; Function Attrs: noinline nounwind ssp uwtable
define linkonce_odr void @_ZNSt3__122__compressed_pair_elemINS_14default_deleteINS_15__thread_structEEELi1ELb1EEC2IS3_vEEOT_(%"struct.std::__1::__compressed_pair_elem.4"* %this, %"struct.std::__1::default_delete"* dereferenceable(1) %__u) unnamed_addr #7 align 2 !dbg !5210 {
entry:
  %__t.addr.i = alloca %"struct.std::__1::default_delete"*, align 8
  call void @llvm.dbg.declare(metadata %"struct.std::__1::default_delete"** %__t.addr.i, metadata !4454, metadata !3234), !dbg !5216
  %this.addr = alloca %"struct.std::__1::__compressed_pair_elem.4"*, align 8
  %__u.addr = alloca %"struct.std::__1::default_delete"*, align 8
  store %"struct.std::__1::__compressed_pair_elem.4"* %this, %"struct.std::__1::__compressed_pair_elem.4"** %this.addr, align 8
  call void @llvm.dbg.declare(metadata %"struct.std::__1::__compressed_pair_elem.4"** %this.addr, metadata !5218, metadata !3234), !dbg !5219
  store %"struct.std::__1::default_delete"* %__u, %"struct.std::__1::default_delete"** %__u.addr, align 8
  call void @llvm.dbg.declare(metadata %"struct.std::__1::default_delete"** %__u.addr, metadata !5220, metadata !3234), !dbg !5221
  %this1 = load %"struct.std::__1::__compressed_pair_elem.4"*, %"struct.std::__1::__compressed_pair_elem.4"** %this.addr, align 8
  %0 = bitcast %"struct.std::__1::__compressed_pair_elem.4"* %this1 to %"struct.std::__1::default_delete"*, !dbg !5222
  %1 = load %"struct.std::__1::default_delete"*, %"struct.std::__1::default_delete"** %__u.addr, align 8, !dbg !5223
  store %"struct.std::__1::default_delete"* %1, %"struct.std::__1::default_delete"** %__t.addr.i, align 8
  %2 = load %"struct.std::__1::default_delete"*, %"struct.std::__1::default_delete"** %__t.addr.i, align 8, !dbg !5224
  ret void, !dbg !5225
}

; Function Attrs: noinline nounwind ssp uwtable
define linkonce_odr void @_ZNSt3__122__compressed_pair_elemIPNS_5tupleIJNS_10unique_ptrINS_15__thread_structENS_14default_deleteIS3_EEEEPFvvEEEELi0ELb0EEC2IRSA_vEEOT_(%"struct.std::__1::__compressed_pair_elem.7"* %this, %"class.std::__1::tuple"** dereferenceable(8) %__u) unnamed_addr #7 align 2 !dbg !5226 {
entry:
  %__t.addr.i = alloca %"class.std::__1::tuple"**, align 8
  call void @llvm.dbg.declare(metadata %"class.std::__1::tuple"*** %__t.addr.i, metadata !4390, metadata !3234), !dbg !5232
  %this.addr = alloca %"struct.std::__1::__compressed_pair_elem.7"*, align 8
  %__u.addr = alloca %"class.std::__1::tuple"**, align 8
  store %"struct.std::__1::__compressed_pair_elem.7"* %this, %"struct.std::__1::__compressed_pair_elem.7"** %this.addr, align 8
  call void @llvm.dbg.declare(metadata %"struct.std::__1::__compressed_pair_elem.7"** %this.addr, metadata !5234, metadata !3234), !dbg !5236
  store %"class.std::__1::tuple"** %__u, %"class.std::__1::tuple"*** %__u.addr, align 8
  call void @llvm.dbg.declare(metadata %"class.std::__1::tuple"*** %__u.addr, metadata !5237, metadata !3234), !dbg !5238
  %this1 = load %"struct.std::__1::__compressed_pair_elem.7"*, %"struct.std::__1::__compressed_pair_elem.7"** %this.addr, align 8
  %__value_ = getelementptr inbounds %"struct.std::__1::__compressed_pair_elem.7", %"struct.std::__1::__compressed_pair_elem.7"* %this1, i32 0, i32 0, !dbg !5239
  %0 = load %"class.std::__1::tuple"**, %"class.std::__1::tuple"*** %__u.addr, align 8, !dbg !5240
  store %"class.std::__1::tuple"** %0, %"class.std::__1::tuple"*** %__t.addr.i, align 8
  %1 = load %"class.std::__1::tuple"**, %"class.std::__1::tuple"*** %__t.addr.i, align 8, !dbg !5241
  %2 = load %"class.std::__1::tuple"*, %"class.std::__1::tuple"** %1, align 8, !dbg !5242
  store %"class.std::__1::tuple"* %2, %"class.std::__1::tuple"** %__value_, align 8, !dbg !5239
  ret void, !dbg !5243
}

declare i32 @pthread_create(%struct._opaque_pthread_t**, %struct._opaque_pthread_attr_t*, i8* (i8*)*, i8*) #4

declare dereferenceable(8) %"class.std::__1::__thread_specific_ptr"* @_ZNSt3__119__thread_local_dataEv() #4

; Function Attrs: noinline ssp uwtable
define linkonce_odr void @_ZNSt3__121__thread_specific_ptrINS_15__thread_structEE11set_pointerEPS1_(%"class.std::__1::__thread_specific_ptr"* %this, %"class.std::__1::__thread_struct"* %__p) #0 align 2 !dbg !5244 {
entry:
  %__key.addr.i = alloca i64, align 8
  call void @llvm.dbg.declare(metadata i64* %__key.addr.i, metadata !5277, metadata !3234), !dbg !5281
  %__p.addr.i = alloca i8*, align 8
  call void @llvm.dbg.declare(metadata i8** %__p.addr.i, metadata !5283, metadata !3234), !dbg !5284
  %this.addr = alloca %"class.std::__1::__thread_specific_ptr"*, align 8
  %__p.addr = alloca %"class.std::__1::__thread_struct"*, align 8
  store %"class.std::__1::__thread_specific_ptr"* %this, %"class.std::__1::__thread_specific_ptr"** %this.addr, align 8
  call void @llvm.dbg.declare(metadata %"class.std::__1::__thread_specific_ptr"** %this.addr, metadata !5285, metadata !3234), !dbg !5287
  store %"class.std::__1::__thread_struct"* %__p, %"class.std::__1::__thread_struct"** %__p.addr, align 8
  call void @llvm.dbg.declare(metadata %"class.std::__1::__thread_struct"** %__p.addr, metadata !5288, metadata !3234), !dbg !5289
  %this1 = load %"class.std::__1::__thread_specific_ptr"*, %"class.std::__1::__thread_specific_ptr"** %this.addr, align 8
  %__key_ = getelementptr inbounds %"class.std::__1::__thread_specific_ptr", %"class.std::__1::__thread_specific_ptr"* %this1, i32 0, i32 0, !dbg !5290
  %0 = load i64, i64* %__key_, align 8, !dbg !5290
  %1 = load %"class.std::__1::__thread_struct"*, %"class.std::__1::__thread_struct"** %__p.addr, align 8, !dbg !5291
  %2 = bitcast %"class.std::__1::__thread_struct"* %1 to i8*, !dbg !5291
  store i64 %0, i64* %__key.addr.i, align 8
  store i8* %2, i8** %__p.addr.i, align 8
  %3 = load i64, i64* %__key.addr.i, align 8, !dbg !5292
  %4 = load i8*, i8** %__p.addr.i, align 8, !dbg !5293
  %call.i = call i32 @pthread_setspecific(i64 %3, i8* %4), !dbg !5294
  ret void, !dbg !5295
}

declare i32 @pthread_setspecific(i64, i8*) #4

; Function Attrs: noinline nounwind ssp uwtable
define linkonce_odr dereferenceable(8) %"class.std::__1::tuple"** @_ZNKSt3__122__compressed_pair_elemIPNS_5tupleIJNS_10unique_ptrINS_15__thread_structENS_14default_deleteIS3_EEEEPFvvEEEELi0ELb0EE5__getEv(%"struct.std::__1::__compressed_pair_elem.7"* %this) #7 align 2 !dbg !5296 {
entry:
  %this.addr = alloca %"struct.std::__1::__compressed_pair_elem.7"*, align 8
  store %"struct.std::__1::__compressed_pair_elem.7"* %this, %"struct.std::__1::__compressed_pair_elem.7"** %this.addr, align 8
  call void @llvm.dbg.declare(metadata %"struct.std::__1::__compressed_pair_elem.7"** %this.addr, metadata !5297, metadata !3234), !dbg !5299
  %this1 = load %"struct.std::__1::__compressed_pair_elem.7"*, %"struct.std::__1::__compressed_pair_elem.7"** %this.addr, align 8
  %__value_ = getelementptr inbounds %"struct.std::__1::__compressed_pair_elem.7", %"struct.std::__1::__compressed_pair_elem.7"* %this1, i32 0, i32 0, !dbg !5300
  ret %"class.std::__1::tuple"** %__value_, !dbg !5301
}

; Function Attrs: noinline nounwind ssp uwtable
define linkonce_odr dereferenceable(8) %"class.std::__1::tuple"** @_ZNSt3__122__compressed_pair_elemIPNS_5tupleIJNS_10unique_ptrINS_15__thread_structENS_14default_deleteIS3_EEEEPFvvEEEELi0ELb0EE5__getEv(%"struct.std::__1::__compressed_pair_elem.7"* %this) #7 align 2 !dbg !5302 {
entry:
  %this.addr = alloca %"struct.std::__1::__compressed_pair_elem.7"*, align 8
  store %"struct.std::__1::__compressed_pair_elem.7"* %this, %"struct.std::__1::__compressed_pair_elem.7"** %this.addr, align 8
  call void @llvm.dbg.declare(metadata %"struct.std::__1::__compressed_pair_elem.7"** %this.addr, metadata !5303, metadata !3234), !dbg !5304
  %this1 = load %"struct.std::__1::__compressed_pair_elem.7"*, %"struct.std::__1::__compressed_pair_elem.7"** %this.addr, align 8
  %__value_ = getelementptr inbounds %"struct.std::__1::__compressed_pair_elem.7", %"struct.std::__1::__compressed_pair_elem.7"* %this1, i32 0, i32 0, !dbg !5305
  ret %"class.std::__1::tuple"** %__value_, !dbg !5306
}

; Function Attrs: noinline nounwind ssp uwtable
define linkonce_odr dereferenceable(1) %"struct.std::__1::default_delete.10"* @_ZNSt3__122__compressed_pair_elemINS_14default_deleteINS_5tupleIJNS_10unique_ptrINS_15__thread_structENS1_IS4_EEEEPFvvEEEEEELi1ELb1EE5__getEv(%"struct.std::__1::__compressed_pair_elem.9"* %this) #7 align 2 !dbg !5307 {
entry:
  %this.addr = alloca %"struct.std::__1::__compressed_pair_elem.9"*, align 8
  store %"struct.std::__1::__compressed_pair_elem.9"* %this, %"struct.std::__1::__compressed_pair_elem.9"** %this.addr, align 8
  call void @llvm.dbg.declare(metadata %"struct.std::__1::__compressed_pair_elem.9"** %this.addr, metadata !5308, metadata !3234), !dbg !5310
  %this1 = load %"struct.std::__1::__compressed_pair_elem.9"*, %"struct.std::__1::__compressed_pair_elem.9"** %this.addr, align 8
  %0 = bitcast %"struct.std::__1::__compressed_pair_elem.9"* %this1 to %"struct.std::__1::default_delete.10"*, !dbg !5311
  ret %"struct.std::__1::default_delete.10"* %0, !dbg !5312
}

; Function Attrs: noinline nounwind ssp uwtable
define linkonce_odr void @_ZNSt3__15tupleIJNS_10unique_ptrINS_15__thread_structENS_14default_deleteIS2_EEEEPFvvEEED1Ev(%"class.std::__1::tuple"* %this) unnamed_addr #7 align 2 !dbg !5313 {
entry:
  %this.addr = alloca %"class.std::__1::tuple"*, align 8
  store %"class.std::__1::tuple"* %this, %"class.std::__1::tuple"** %this.addr, align 8
  call void @llvm.dbg.declare(metadata %"class.std::__1::tuple"** %this.addr, metadata !5317, metadata !3234), !dbg !5318
  %this1 = load %"class.std::__1::tuple"*, %"class.std::__1::tuple"** %this.addr, align 8
  call void @_ZNSt3__15tupleIJNS_10unique_ptrINS_15__thread_structENS_14default_deleteIS2_EEEEPFvvEEED2Ev(%"class.std::__1::tuple"* %this1) #2, !dbg !5319
  ret void, !dbg !5319
}

; Function Attrs: noinline nounwind ssp uwtable
define linkonce_odr void @_ZNSt3__15tupleIJNS_10unique_ptrINS_15__thread_structENS_14default_deleteIS2_EEEEPFvvEEED2Ev(%"class.std::__1::tuple"* %this) unnamed_addr #7 align 2 !dbg !5320 {
entry:
  %this.addr = alloca %"class.std::__1::tuple"*, align 8
  store %"class.std::__1::tuple"* %this, %"class.std::__1::tuple"** %this.addr, align 8
  call void @llvm.dbg.declare(metadata %"class.std::__1::tuple"** %this.addr, metadata !5321, metadata !3234), !dbg !5322
  %this1 = load %"class.std::__1::tuple"*, %"class.std::__1::tuple"** %this.addr, align 8
  %base_ = getelementptr inbounds %"class.std::__1::tuple", %"class.std::__1::tuple"* %this1, i32 0, i32 0, !dbg !5323
  call void @_ZNSt3__112__tuple_implINS_15__tuple_indicesIJLm0ELm1EEEEJNS_10unique_ptrINS_15__thread_structENS_14default_deleteIS4_EEEEPFvvEEED1Ev(%"struct.std::__1::__tuple_impl"* %base_) #2, !dbg !5323
  ret void, !dbg !5325
}

; Function Attrs: noinline nounwind ssp uwtable
define linkonce_odr void @_ZNSt3__112__tuple_implINS_15__tuple_indicesIJLm0ELm1EEEEJNS_10unique_ptrINS_15__thread_structENS_14default_deleteIS4_EEEEPFvvEEED1Ev(%"struct.std::__1::__tuple_impl"* %this) unnamed_addr #7 align 2 !dbg !5326 {
entry:
  %this.addr = alloca %"struct.std::__1::__tuple_impl"*, align 8
  store %"struct.std::__1::__tuple_impl"* %this, %"struct.std::__1::__tuple_impl"** %this.addr, align 8
  call void @llvm.dbg.declare(metadata %"struct.std::__1::__tuple_impl"** %this.addr, metadata !5328, metadata !3234), !dbg !5329
  %this1 = load %"struct.std::__1::__tuple_impl"*, %"struct.std::__1::__tuple_impl"** %this.addr, align 8
  call void @_ZNSt3__112__tuple_implINS_15__tuple_indicesIJLm0ELm1EEEEJNS_10unique_ptrINS_15__thread_structENS_14default_deleteIS4_EEEEPFvvEEED2Ev(%"struct.std::__1::__tuple_impl"* %this1) #2, !dbg !5330
  ret void, !dbg !5330
}

; Function Attrs: noinline nounwind ssp uwtable
define linkonce_odr void @_ZNSt3__112__tuple_implINS_15__tuple_indicesIJLm0ELm1EEEEJNS_10unique_ptrINS_15__thread_structENS_14default_deleteIS4_EEEEPFvvEEED2Ev(%"struct.std::__1::__tuple_impl"* %this) unnamed_addr #7 align 2 !dbg !5331 {
entry:
  %this.addr = alloca %"struct.std::__1::__tuple_impl"*, align 8
  store %"struct.std::__1::__tuple_impl"* %this, %"struct.std::__1::__tuple_impl"** %this.addr, align 8
  call void @llvm.dbg.declare(metadata %"struct.std::__1::__tuple_impl"** %this.addr, metadata !5332, metadata !3234), !dbg !5333
  %this1 = load %"struct.std::__1::__tuple_impl"*, %"struct.std::__1::__tuple_impl"** %this.addr, align 8
  %0 = bitcast %"struct.std::__1::__tuple_impl"* %this1 to %"class.std::__1::__tuple_leaf"*, !dbg !5334
  call void @_ZNSt3__112__tuple_leafILm0ENS_10unique_ptrINS_15__thread_structENS_14default_deleteIS2_EEEELb0EED2Ev(%"class.std::__1::__tuple_leaf"* %0) #2, !dbg !5334
  ret void, !dbg !5336
}

; Function Attrs: noinline nounwind ssp uwtable
define linkonce_odr void @_ZNSt3__112__tuple_leafILm0ENS_10unique_ptrINS_15__thread_structENS_14default_deleteIS2_EEEELb0EED2Ev(%"class.std::__1::__tuple_leaf"* %this) unnamed_addr #7 align 2 !dbg !5337 {
entry:
  %this.addr.i12.i.i.i = alloca %"struct.std::__1::default_delete"*, align 8
  call void @llvm.dbg.declare(metadata %"struct.std::__1::default_delete"** %this.addr.i12.i.i.i, metadata !4114, metadata !3234), !dbg !5339
  %__ptr.addr.i.i.i.i = alloca %"class.std::__1::__thread_struct"*, align 8
  call void @llvm.dbg.declare(metadata %"class.std::__1::__thread_struct"** %__ptr.addr.i.i.i.i, metadata !4129, metadata !3234), !dbg !5345
  %this.addr.i9.i.i.i = alloca %"class.std::__1::__compressed_pair.2"*, align 8
  call void @llvm.dbg.declare(metadata %"class.std::__1::__compressed_pair.2"** %this.addr.i9.i.i.i, metadata !4131, metadata !3234), !dbg !5346
  %this.addr.i6.i.i.i = alloca %"class.std::__1::__compressed_pair.2"*, align 8
  call void @llvm.dbg.declare(metadata %"class.std::__1::__compressed_pair.2"** %this.addr.i6.i.i.i, metadata !4136, metadata !3234), !dbg !5348
  %this.addr.i.i.i.i = alloca %"class.std::__1::__compressed_pair.2"*, align 8
  call void @llvm.dbg.declare(metadata %"class.std::__1::__compressed_pair.2"** %this.addr.i.i.i.i, metadata !4136, metadata !3234), !dbg !5350
  %this.addr.i.i.i = alloca %"class.std::__1::unique_ptr"*, align 8
  call void @llvm.dbg.declare(metadata %"class.std::__1::unique_ptr"** %this.addr.i.i.i, metadata !4142, metadata !3234), !dbg !5352
  %__p.addr.i.i.i = alloca %"class.std::__1::__thread_struct"*, align 8
  call void @llvm.dbg.declare(metadata %"class.std::__1::__thread_struct"** %__p.addr.i.i.i, metadata !4145, metadata !3234), !dbg !5353
  %__tmp.i.i.i = alloca %"class.std::__1::__thread_struct"*, align 8
  call void @llvm.dbg.declare(metadata %"class.std::__1::__thread_struct"** %__tmp.i.i.i, metadata !4147, metadata !3234), !dbg !5354
  %this.addr.i.i = alloca %"class.std::__1::unique_ptr"*, align 8
  call void @llvm.dbg.declare(metadata %"class.std::__1::unique_ptr"** %this.addr.i.i, metadata !4149, metadata !3234), !dbg !5355
  %this.addr.i = alloca %"class.std::__1::unique_ptr"*, align 8
  call void @llvm.dbg.declare(metadata %"class.std::__1::unique_ptr"** %this.addr.i, metadata !4151, metadata !3234), !dbg !5356
  %this.addr = alloca %"class.std::__1::__tuple_leaf"*, align 8
  store %"class.std::__1::__tuple_leaf"* %this, %"class.std::__1::__tuple_leaf"** %this.addr, align 8
  call void @llvm.dbg.declare(metadata %"class.std::__1::__tuple_leaf"** %this.addr, metadata !5357, metadata !3234), !dbg !5358
  %this1 = load %"class.std::__1::__tuple_leaf"*, %"class.std::__1::__tuple_leaf"** %this.addr, align 8
  %value = getelementptr inbounds %"class.std::__1::__tuple_leaf", %"class.std::__1::__tuple_leaf"* %this1, i32 0, i32 0, !dbg !5359
  store %"class.std::__1::unique_ptr"* %value, %"class.std::__1::unique_ptr"** %this.addr.i, align 8
  %this1.i = load %"class.std::__1::unique_ptr"*, %"class.std::__1::unique_ptr"** %this.addr.i, align 8
  store %"class.std::__1::unique_ptr"* %this1.i, %"class.std::__1::unique_ptr"** %this.addr.i.i, align 8
  %this1.i.i = load %"class.std::__1::unique_ptr"*, %"class.std::__1::unique_ptr"** %this.addr.i.i, align 8
  store %"class.std::__1::unique_ptr"* %this1.i.i, %"class.std::__1::unique_ptr"** %this.addr.i.i.i, align 8
  store %"class.std::__1::__thread_struct"* null, %"class.std::__1::__thread_struct"** %__p.addr.i.i.i, align 8
  %this1.i.i.i = load %"class.std::__1::unique_ptr"*, %"class.std::__1::unique_ptr"** %this.addr.i.i.i, align 8
  %__ptr_.i.i.i = getelementptr inbounds %"class.std::__1::unique_ptr", %"class.std::__1::unique_ptr"* %this1.i.i.i, i32 0, i32 0, !dbg !5360
  store %"class.std::__1::__compressed_pair.2"* %__ptr_.i.i.i, %"class.std::__1::__compressed_pair.2"** %this.addr.i.i.i.i, align 8
  %this1.i.i.i.i = load %"class.std::__1::__compressed_pair.2"*, %"class.std::__1::__compressed_pair.2"** %this.addr.i.i.i.i, align 8
  %0 = bitcast %"class.std::__1::__compressed_pair.2"* %this1.i.i.i.i to %"struct.std::__1::__compressed_pair_elem.3"*, !dbg !5361
  %call.i.i.i.i = call dereferenceable(8) %"class.std::__1::__thread_struct"** @_ZNSt3__122__compressed_pair_elemIPNS_15__thread_structELi0ELb0EE5__getEv(%"struct.std::__1::__compressed_pair_elem.3"* %0) #2, !dbg !5362
  %1 = load %"class.std::__1::__thread_struct"*, %"class.std::__1::__thread_struct"** %call.i.i.i.i, align 8, !dbg !5363
  store %"class.std::__1::__thread_struct"* %1, %"class.std::__1::__thread_struct"** %__tmp.i.i.i, align 8, !dbg !5354
  %2 = load %"class.std::__1::__thread_struct"*, %"class.std::__1::__thread_struct"** %__p.addr.i.i.i, align 8, !dbg !5364
  %__ptr_2.i.i.i = getelementptr inbounds %"class.std::__1::unique_ptr", %"class.std::__1::unique_ptr"* %this1.i.i.i, i32 0, i32 0, !dbg !5365
  store %"class.std::__1::__compressed_pair.2"* %__ptr_2.i.i.i, %"class.std::__1::__compressed_pair.2"** %this.addr.i6.i.i.i, align 8
  %this1.i7.i.i.i = load %"class.std::__1::__compressed_pair.2"*, %"class.std::__1::__compressed_pair.2"** %this.addr.i6.i.i.i, align 8
  %3 = bitcast %"class.std::__1::__compressed_pair.2"* %this1.i7.i.i.i to %"struct.std::__1::__compressed_pair_elem.3"*, !dbg !5366
  %call.i8.i.i.i = call dereferenceable(8) %"class.std::__1::__thread_struct"** @_ZNSt3__122__compressed_pair_elemIPNS_15__thread_structELi0ELb0EE5__getEv(%"struct.std::__1::__compressed_pair_elem.3"* %3) #2, !dbg !5367
  store %"class.std::__1::__thread_struct"* %2, %"class.std::__1::__thread_struct"** %call.i8.i.i.i, align 8, !dbg !5368
  %4 = load %"class.std::__1::__thread_struct"*, %"class.std::__1::__thread_struct"** %__tmp.i.i.i, align 8, !dbg !5369
  %tobool.i.i.i = icmp ne %"class.std::__1::__thread_struct"* %4, null, !dbg !5369
  br i1 %tobool.i.i.i, label %if.then.i.i.i, label %_ZNSt3__110unique_ptrINS_15__thread_structENS_14default_deleteIS1_EEED1Ev.exit, !dbg !5370

if.then.i.i.i:                                    ; preds = %entry
  %__ptr_4.i.i.i = getelementptr inbounds %"class.std::__1::unique_ptr", %"class.std::__1::unique_ptr"* %this1.i.i.i, i32 0, i32 0, !dbg !5371
  store %"class.std::__1::__compressed_pair.2"* %__ptr_4.i.i.i, %"class.std::__1::__compressed_pair.2"** %this.addr.i9.i.i.i, align 8
  %this1.i10.i.i.i = load %"class.std::__1::__compressed_pair.2"*, %"class.std::__1::__compressed_pair.2"** %this.addr.i9.i.i.i, align 8
  %5 = bitcast %"class.std::__1::__compressed_pair.2"* %this1.i10.i.i.i to %"struct.std::__1::__compressed_pair_elem.4"*, !dbg !5372
  %call.i11.i.i.i = call dereferenceable(1) %"struct.std::__1::default_delete"* @_ZNSt3__122__compressed_pair_elemINS_14default_deleteINS_15__thread_structEEELi1ELb1EE5__getEv(%"struct.std::__1::__compressed_pair_elem.4"* %5) #2, !dbg !5373
  %6 = load %"class.std::__1::__thread_struct"*, %"class.std::__1::__thread_struct"** %__tmp.i.i.i, align 8, !dbg !5374
  store %"struct.std::__1::default_delete"* %call.i11.i.i.i, %"struct.std::__1::default_delete"** %this.addr.i12.i.i.i, align 8
  store %"class.std::__1::__thread_struct"* %6, %"class.std::__1::__thread_struct"** %__ptr.addr.i.i.i.i, align 8
  %this1.i13.i.i.i = load %"struct.std::__1::default_delete"*, %"struct.std::__1::default_delete"** %this.addr.i12.i.i.i, align 8
  %7 = load %"class.std::__1::__thread_struct"*, %"class.std::__1::__thread_struct"** %__ptr.addr.i.i.i.i, align 8, !dbg !5375
  %isnull.i.i.i.i = icmp eq %"class.std::__1::__thread_struct"* %7, null, !dbg !5376
  br i1 %isnull.i.i.i.i, label %_ZNKSt3__114default_deleteINS_15__thread_structEEclEPS1_.exit.i.i.i, label %delete.notnull.i.i.i.i, !dbg !5376

delete.notnull.i.i.i.i:                           ; preds = %if.then.i.i.i
  call void @_ZNSt3__115__thread_structD1Ev(%"class.std::__1::__thread_struct"* %7) #2, !dbg !5377
  %8 = bitcast %"class.std::__1::__thread_struct"* %7 to i8*, !dbg !5377
  call void @_ZdlPv(i8* %8) #14, !dbg !5378
  br label %_ZNKSt3__114default_deleteINS_15__thread_structEEclEPS1_.exit.i.i.i, !dbg !5377

_ZNKSt3__114default_deleteINS_15__thread_structEEclEPS1_.exit.i.i.i: ; preds = %delete.notnull.i.i.i.i, %if.then.i.i.i
  br label %_ZNSt3__110unique_ptrINS_15__thread_structENS_14default_deleteIS1_EEED1Ev.exit, !dbg !5371

_ZNSt3__110unique_ptrINS_15__thread_structENS_14default_deleteIS1_EEED1Ev.exit: ; preds = %entry, %_ZNKSt3__114default_deleteINS_15__thread_structEEclEPS1_.exit.i.i.i
  ret void, !dbg !5379
}

; Function Attrs: nounwind
declare void @_ZNSt3__115__thread_structD1Ev(%"class.std::__1::__thread_struct"*) unnamed_addr #1

; Function Attrs: noinline ssp uwtable
define internal void @_GLOBAL__sub_I_example.cpp() #0 section "__TEXT,__StaticInit,regular,pure_instructions" !dbg !5380 {
entry:
  call void @__cxx_global_var_init(), !dbg !5382
  ret void
}

attributes #0 = { noinline ssp uwtable "correctly-rounded-divide-sqrt-fp-math"="false" "disable-tail-calls"="false" "less-precise-fpmad"="false" "no-frame-pointer-elim"="true" "no-frame-pointer-elim-non-leaf" "no-infs-fp-math"="false" "no-jump-tables"="false" "no-nans-fp-math"="false" "no-signed-zeros-fp-math"="false" "no-trapping-math"="false" "stack-protector-buffer-size"="8" "target-cpu"="core2" "target-features"="+cx16,+fxsr,+mmx,+sse,+sse2,+sse3,+ssse3,+x87" "unsafe-fp-math"="false" "use-soft-float"="false" }
attributes #1 = { nounwind "correctly-rounded-divide-sqrt-fp-math"="false" "disable-tail-calls"="false" "less-precise-fpmad"="false" "no-frame-pointer-elim"="true" "no-frame-pointer-elim-non-leaf" "no-infs-fp-math"="false" "no-nans-fp-math"="false" "no-signed-zeros-fp-math"="false" "no-trapping-math"="false" "stack-protector-buffer-size"="8" "target-cpu"="core2" "target-features"="+cx16,+fxsr,+mmx,+sse,+sse2,+sse3,+ssse3,+x87" "unsafe-fp-math"="false" "use-soft-float"="false" }
attributes #2 = { nounwind }
attributes #3 = { nounwind readnone }
attributes #4 = { "correctly-rounded-divide-sqrt-fp-math"="false" "disable-tail-calls"="false" "less-precise-fpmad"="false" "no-frame-pointer-elim"="true" "no-frame-pointer-elim-non-leaf" "no-infs-fp-math"="false" "no-nans-fp-math"="false" "no-signed-zeros-fp-math"="false" "no-trapping-math"="false" "stack-protector-buffer-size"="8" "target-cpu"="core2" "target-features"="+cx16,+fxsr,+mmx,+sse,+sse2,+sse3,+ssse3,+x87" "unsafe-fp-math"="false" "use-soft-float"="false" }
attributes #5 = { noinline norecurse ssp uwtable "correctly-rounded-divide-sqrt-fp-math"="false" "disable-tail-calls"="false" "less-precise-fpmad"="false" "no-frame-pointer-elim"="true" "no-frame-pointer-elim-non-leaf" "no-infs-fp-math"="false" "no-jump-tables"="false" "no-nans-fp-math"="false" "no-signed-zeros-fp-math"="false" "no-trapping-math"="false" "stack-protector-buffer-size"="8" "target-cpu"="core2" "target-features"="+cx16,+fxsr,+mmx,+sse,+sse2,+sse3,+ssse3,+x87" "unsafe-fp-math"="false" "use-soft-float"="false" }
attributes #6 = { noinline noreturn nounwind }
attributes #7 = { noinline nounwind ssp uwtable "correctly-rounded-divide-sqrt-fp-math"="false" "disable-tail-calls"="false" "less-precise-fpmad"="false" "no-frame-pointer-elim"="true" "no-frame-pointer-elim-non-leaf" "no-infs-fp-math"="false" "no-jump-tables"="false" "no-nans-fp-math"="false" "no-signed-zeros-fp-math"="false" "no-trapping-math"="false" "stack-protector-buffer-size"="8" "target-cpu"="core2" "target-features"="+cx16,+fxsr,+mmx,+sse,+sse2,+sse3,+ssse3,+x87" "unsafe-fp-math"="false" "use-soft-float"="false" }
attributes #8 = { argmemonly nounwind }
attributes #9 = { nobuiltin "correctly-rounded-divide-sqrt-fp-math"="false" "disable-tail-calls"="false" "less-precise-fpmad"="false" "no-frame-pointer-elim"="true" "no-frame-pointer-elim-non-leaf" "no-infs-fp-math"="false" "no-nans-fp-math"="false" "no-signed-zeros-fp-math"="false" "no-trapping-math"="false" "stack-protector-buffer-size"="8" "target-cpu"="core2" "target-features"="+cx16,+fxsr,+mmx,+sse,+sse2,+sse3,+ssse3,+x87" "unsafe-fp-math"="false" "use-soft-float"="false" }
attributes #10 = { nobuiltin nounwind "correctly-rounded-divide-sqrt-fp-math"="false" "disable-tail-calls"="false" "less-precise-fpmad"="false" "no-frame-pointer-elim"="true" "no-frame-pointer-elim-non-leaf" "no-infs-fp-math"="false" "no-nans-fp-math"="false" "no-signed-zeros-fp-math"="false" "no-trapping-math"="false" "stack-protector-buffer-size"="8" "target-cpu"="core2" "target-features"="+cx16,+fxsr,+mmx,+sse,+sse2,+sse3,+ssse3,+x87" "unsafe-fp-math"="false" "use-soft-float"="false" }
attributes #11 = { noreturn "correctly-rounded-divide-sqrt-fp-math"="false" "disable-tail-calls"="false" "less-precise-fpmad"="false" "no-frame-pointer-elim"="true" "no-frame-pointer-elim-non-leaf" "no-infs-fp-math"="false" "no-nans-fp-math"="false" "no-signed-zeros-fp-math"="false" "no-trapping-math"="false" "stack-protector-buffer-size"="8" "target-cpu"="core2" "target-features"="+cx16,+fxsr,+mmx,+sse,+sse2,+sse3,+ssse3,+x87" "unsafe-fp-math"="false" "use-soft-float"="false" }
attributes #12 = { noreturn nounwind }
attributes #13 = { builtin }
attributes #14 = { builtin nounwind }
attributes #15 = { noreturn }

!llvm.dbg.cu = !{!2}
!llvm.module.flags = !{!3200, !3201, !3202}
!llvm.ident = !{!3203}

!0 = !DIGlobalVariableExpression(var: !1)
!1 = distinct !DIGlobalVariable(name: "g_i", scope: !2, file: !3, line: 5, type: !17, isLocal: false, isDefinition: true)
!2 = distinct !DICompileUnit(language: DW_LANG_C_plus_plus, file: !3, producer: "clang version 4.0.0 (tags/RELEASE_400/final)", isOptimized: false, runtimeVersion: 0, emissionKind: FullDebug, enums: !4, retainedTypes: !1242, globals: !2299, imports: !2302)
!3 = !DIFile(filename: "example.cpp", directory: "/Users/aser/Dropbox/papers/C++11/Checker11/examples/mutex")
!4 = !{!5, !1234, !1239}
!5 = !DICompositeType(tag: DW_TAG_enumeration_type, name: "event", scope: !7, file: !6, line: 308, size: 32, elements: !1230, identifier: "_ZTSNSt3__18ios_base5eventE")
!6 = !DIFile(filename: "/Users/aser/Documents/LLVM/llvm-4.0/build/bin/../include/c++/v1/ios", directory: "/Users/aser/Dropbox/papers/C++11/Checker11/examples/mutex")
!7 = distinct !DICompositeType(tag: DW_TAG_class_type, name: "ios_base", scope: !8, file: !6, line: 231, size: 1088, elements: !11, vtableHolder: !7, identifier: "_ZTSNSt3__18ios_baseE")
!8 = !DINamespace(name: "__1", scope: !10, file: !9, line: 438, exportSymbols: true)
!9 = !DIFile(filename: "/Users/aser/Documents/LLVM/llvm-4.0/build/bin/../include/c++/v1/__config", directory: "/Users/aser/Dropbox/papers/C++11/Checker11/examples/mutex")
!10 = !DINamespace(name: "std", scope: null, file: !9, line: 437)
!11 = !{!12, !18, !22, !23, !24, !25, !26, !27, !28, !29, !30, !31, !32, !33, !34, !35, !36, !37, !38, !39, !42, !43, !44, !45, !48, !49, !50, !51, !52, !53, !54, !59, !60, !61, !62, !64, !65, !72, !74, !80, !81, !84, !86, !87, !88, !90, !91, !92, !97, !101, !102, !105, !108, !111, !114, !115, !116, !1168, !1171, !1172, !1176, !1180, !1183, !1186, !1190, !1193, !1196, !1199, !1202, !1203, !1206, !1207, !1208, !1209, !1210, !1211, !1212, !1213, !1214, !1217, !1220, !1221, !1224, !1225, !1228, !1229}
!12 = !DIDerivedType(tag: DW_TAG_member, name: "_vptr$ios_base", scope: !6, file: !6, baseType: !13, size: 64, flags: DIFlagArtificial)
!13 = !DIDerivedType(tag: DW_TAG_pointer_type, baseType: !14, size: 64)
!14 = !DIDerivedType(tag: DW_TAG_pointer_type, name: "__vtbl_ptr_type", baseType: !15, size: 64)
!15 = !DISubroutineType(types: !16)
!16 = !{!17}
!17 = !DIBasicType(name: "int", size: 32, encoding: DW_ATE_signed)
!18 = !DIDerivedType(tag: DW_TAG_member, name: "boolalpha", scope: !7, file: !6, line: 237, baseType: !19, flags: DIFlagPublic | DIFlagStaticMember, extraData: i32 1)
!19 = !DIDerivedType(tag: DW_TAG_const_type, baseType: !20)
!20 = !DIDerivedType(tag: DW_TAG_typedef, name: "fmtflags", scope: !7, file: !6, line: 236, baseType: !21)
!21 = !DIBasicType(name: "unsigned int", size: 32, encoding: DW_ATE_unsigned)
!22 = !DIDerivedType(tag: DW_TAG_member, name: "dec", scope: !7, file: !6, line: 238, baseType: !19, flags: DIFlagPublic | DIFlagStaticMember, extraData: i32 2)
!23 = !DIDerivedType(tag: DW_TAG_member, name: "fixed", scope: !7, file: !6, line: 239, baseType: !19, flags: DIFlagPublic | DIFlagStaticMember, extraData: i32 4)
!24 = !DIDerivedType(tag: DW_TAG_member, name: "hex", scope: !7, file: !6, line: 240, baseType: !19, flags: DIFlagPublic | DIFlagStaticMember, extraData: i32 8)
!25 = !DIDerivedType(tag: DW_TAG_member, name: "internal", scope: !7, file: !6, line: 241, baseType: !19, flags: DIFlagPublic | DIFlagStaticMember, extraData: i32 16)
!26 = !DIDerivedType(tag: DW_TAG_member, name: "left", scope: !7, file: !6, line: 242, baseType: !19, flags: DIFlagPublic | DIFlagStaticMember, extraData: i32 32)
!27 = !DIDerivedType(tag: DW_TAG_member, name: "oct", scope: !7, file: !6, line: 243, baseType: !19, flags: DIFlagPublic | DIFlagStaticMember, extraData: i32 64)
!28 = !DIDerivedType(tag: DW_TAG_member, name: "right", scope: !7, file: !6, line: 244, baseType: !19, flags: DIFlagPublic | DIFlagStaticMember, extraData: i32 128)
!29 = !DIDerivedType(tag: DW_TAG_member, name: "scientific", scope: !7, file: !6, line: 245, baseType: !19, flags: DIFlagPublic | DIFlagStaticMember, extraData: i32 256)
!30 = !DIDerivedType(tag: DW_TAG_member, name: "showbase", scope: !7, file: !6, line: 246, baseType: !19, flags: DIFlagPublic | DIFlagStaticMember, extraData: i32 512)
!31 = !DIDerivedType(tag: DW_TAG_member, name: "showpoint", scope: !7, file: !6, line: 247, baseType: !19, flags: DIFlagPublic | DIFlagStaticMember, extraData: i32 1024)
!32 = !DIDerivedType(tag: DW_TAG_member, name: "showpos", scope: !7, file: !6, line: 248, baseType: !19, flags: DIFlagPublic | DIFlagStaticMember, extraData: i32 2048)
!33 = !DIDerivedType(tag: DW_TAG_member, name: "skipws", scope: !7, file: !6, line: 249, baseType: !19, flags: DIFlagPublic | DIFlagStaticMember, extraData: i32 4096)
!34 = !DIDerivedType(tag: DW_TAG_member, name: "unitbuf", scope: !7, file: !6, line: 250, baseType: !19, flags: DIFlagPublic | DIFlagStaticMember, extraData: i32 8192)
!35 = !DIDerivedType(tag: DW_TAG_member, name: "uppercase", scope: !7, file: !6, line: 251, baseType: !19, flags: DIFlagPublic | DIFlagStaticMember, extraData: i32 16384)
!36 = !DIDerivedType(tag: DW_TAG_member, name: "adjustfield", scope: !7, file: !6, line: 252, baseType: !19, flags: DIFlagPublic | DIFlagStaticMember, extraData: i32 176)
!37 = !DIDerivedType(tag: DW_TAG_member, name: "basefield", scope: !7, file: !6, line: 253, baseType: !19, flags: DIFlagPublic | DIFlagStaticMember, extraData: i32 74)
!38 = !DIDerivedType(tag: DW_TAG_member, name: "floatfield", scope: !7, file: !6, line: 254, baseType: !19, flags: DIFlagPublic | DIFlagStaticMember, extraData: i32 260)
!39 = !DIDerivedType(tag: DW_TAG_member, name: "badbit", scope: !7, file: !6, line: 257, baseType: !40, flags: DIFlagPublic | DIFlagStaticMember, extraData: i32 1)
!40 = !DIDerivedType(tag: DW_TAG_const_type, baseType: !41)
!41 = !DIDerivedType(tag: DW_TAG_typedef, name: "iostate", scope: !7, file: !6, line: 256, baseType: !21)
!42 = !DIDerivedType(tag: DW_TAG_member, name: "eofbit", scope: !7, file: !6, line: 258, baseType: !40, flags: DIFlagPublic | DIFlagStaticMember, extraData: i32 2)
!43 = !DIDerivedType(tag: DW_TAG_member, name: "failbit", scope: !7, file: !6, line: 259, baseType: !40, flags: DIFlagPublic | DIFlagStaticMember, extraData: i32 4)
!44 = !DIDerivedType(tag: DW_TAG_member, name: "goodbit", scope: !7, file: !6, line: 260, baseType: !40, flags: DIFlagPublic | DIFlagStaticMember, extraData: i32 0)
!45 = !DIDerivedType(tag: DW_TAG_member, name: "app", scope: !7, file: !6, line: 263, baseType: !46, flags: DIFlagPublic | DIFlagStaticMember, extraData: i32 1)
!46 = !DIDerivedType(tag: DW_TAG_const_type, baseType: !47)
!47 = !DIDerivedType(tag: DW_TAG_typedef, name: "openmode", scope: !7, file: !6, line: 262, baseType: !21)
!48 = !DIDerivedType(tag: DW_TAG_member, name: "ate", scope: !7, file: !6, line: 264, baseType: !46, flags: DIFlagPublic | DIFlagStaticMember, extraData: i32 2)
!49 = !DIDerivedType(tag: DW_TAG_member, name: "binary", scope: !7, file: !6, line: 265, baseType: !46, flags: DIFlagPublic | DIFlagStaticMember, extraData: i32 4)
!50 = !DIDerivedType(tag: DW_TAG_member, name: "in", scope: !7, file: !6, line: 266, baseType: !46, flags: DIFlagPublic | DIFlagStaticMember, extraData: i32 8)
!51 = !DIDerivedType(tag: DW_TAG_member, name: "out", scope: !7, file: !6, line: 267, baseType: !46, flags: DIFlagPublic | DIFlagStaticMember, extraData: i32 16)
!52 = !DIDerivedType(tag: DW_TAG_member, name: "trunc", scope: !7, file: !6, line: 268, baseType: !46, flags: DIFlagPublic | DIFlagStaticMember, extraData: i32 32)
!53 = !DIDerivedType(tag: DW_TAG_member, name: "__fmtflags_", scope: !7, file: !6, line: 362, baseType: !20, size: 32, offset: 64)
!54 = !DIDerivedType(tag: DW_TAG_member, name: "__precision_", scope: !7, file: !6, line: 363, baseType: !55, size: 64, offset: 128)
!55 = !DIDerivedType(tag: DW_TAG_typedef, name: "streamsize", scope: !8, file: !6, line: 229, baseType: !56)
!56 = !DIDerivedType(tag: DW_TAG_typedef, name: "ptrdiff_t", file: !57, line: 51, baseType: !58)
!57 = !DIFile(filename: "/Users/aser/Documents/LLVM/llvm-4.0/build/bin/../lib/clang/4.0.0/include/stddef.h", directory: "/Users/aser/Dropbox/papers/C++11/Checker11/examples/mutex")
!58 = !DIBasicType(name: "long int", size: 64, encoding: DW_ATE_signed)
!59 = !DIDerivedType(tag: DW_TAG_member, name: "__width_", scope: !7, file: !6, line: 364, baseType: !55, size: 64, offset: 192)
!60 = !DIDerivedType(tag: DW_TAG_member, name: "__rdstate_", scope: !7, file: !6, line: 365, baseType: !41, size: 32, offset: 256)
!61 = !DIDerivedType(tag: DW_TAG_member, name: "__exceptions_", scope: !7, file: !6, line: 366, baseType: !41, size: 32, offset: 288)
!62 = !DIDerivedType(tag: DW_TAG_member, name: "__rdbuf_", scope: !7, file: !6, line: 367, baseType: !63, size: 64, offset: 320)
!63 = !DIDerivedType(tag: DW_TAG_pointer_type, baseType: null, size: 64)
!64 = !DIDerivedType(tag: DW_TAG_member, name: "__loc_", scope: !7, file: !6, line: 368, baseType: !63, size: 64, offset: 384)
!65 = !DIDerivedType(tag: DW_TAG_member, name: "__fn_", scope: !7, file: !6, line: 369, baseType: !66, size: 64, offset: 448)
!66 = !DIDerivedType(tag: DW_TAG_pointer_type, baseType: !67, size: 64)
!67 = !DIDerivedType(tag: DW_TAG_typedef, name: "event_callback", scope: !7, file: !6, line: 309, baseType: !68)
!68 = !DIDerivedType(tag: DW_TAG_pointer_type, baseType: !69, size: 64)
!69 = !DISubroutineType(types: !70)
!70 = !{null, !5, !71, !17}
!71 = !DIDerivedType(tag: DW_TAG_reference_type, baseType: !7, size: 64)
!72 = !DIDerivedType(tag: DW_TAG_member, name: "__index_", scope: !7, file: !6, line: 370, baseType: !73, size: 64, offset: 512)
!73 = !DIDerivedType(tag: DW_TAG_pointer_type, baseType: !17, size: 64)
!74 = !DIDerivedType(tag: DW_TAG_member, name: "__event_size_", scope: !7, file: !6, line: 371, baseType: !75, size: 64, offset: 576)
!75 = !DIDerivedType(tag: DW_TAG_typedef, name: "size_t", file: !76, line: 30, baseType: !77)
!76 = !DIFile(filename: "/usr/include/sys/_types/_size_t.h", directory: "/Users/aser/Dropbox/papers/C++11/Checker11/examples/mutex")
!77 = !DIDerivedType(tag: DW_TAG_typedef, name: "__darwin_size_t", file: !78, line: 92, baseType: !79)
!78 = !DIFile(filename: "/usr/include/i386/_types.h", directory: "/Users/aser/Dropbox/papers/C++11/Checker11/examples/mutex")
!79 = !DIBasicType(name: "long unsigned int", size: 64, encoding: DW_ATE_unsigned)
!80 = !DIDerivedType(tag: DW_TAG_member, name: "__event_cap_", scope: !7, file: !6, line: 372, baseType: !75, size: 64, offset: 640)
!81 = !DIDerivedType(tag: DW_TAG_member, name: "__xindex_", scope: !7, file: !6, line: 376, baseType: !82, flags: DIFlagStaticMember)
!82 = !DICompositeType(tag: DW_TAG_structure_type, name: "atomic<int>", scope: !8, file: !83, line: 1084, flags: DIFlagFwdDecl, identifier: "_ZTSNSt3__16atomicIiEE")
!83 = !DIFile(filename: "/Users/aser/Documents/LLVM/llvm-4.0/build/bin/../include/c++/v1/atomic", directory: "/Users/aser/Dropbox/papers/C++11/Checker11/examples/mutex")
!84 = !DIDerivedType(tag: DW_TAG_member, name: "__iarray_", scope: !7, file: !6, line: 380, baseType: !85, size: 64, offset: 704)
!85 = !DIDerivedType(tag: DW_TAG_pointer_type, baseType: !58, size: 64)
!86 = !DIDerivedType(tag: DW_TAG_member, name: "__iarray_size_", scope: !7, file: !6, line: 381, baseType: !75, size: 64, offset: 768)
!87 = !DIDerivedType(tag: DW_TAG_member, name: "__iarray_cap_", scope: !7, file: !6, line: 382, baseType: !75, size: 64, offset: 832)
!88 = !DIDerivedType(tag: DW_TAG_member, name: "__parray_", scope: !7, file: !6, line: 383, baseType: !89, size: 64, offset: 896)
!89 = !DIDerivedType(tag: DW_TAG_pointer_type, baseType: !63, size: 64)
!90 = !DIDerivedType(tag: DW_TAG_member, name: "__parray_size_", scope: !7, file: !6, line: 384, baseType: !75, size: 64, offset: 960)
!91 = !DIDerivedType(tag: DW_TAG_member, name: "__parray_cap_", scope: !7, file: !6, line: 385, baseType: !75, size: 64, offset: 1024)
!92 = !DISubprogram(name: "flags", linkageName: "_ZNKSt3__18ios_base5flagsEv", scope: !7, file: !6, line: 284, type: !93, isLocal: false, isDefinition: false, scopeLine: 284, flags: DIFlagPublic | DIFlagPrototyped, isOptimized: false)
!93 = !DISubroutineType(types: !94)
!94 = !{!20, !95}
!95 = !DIDerivedType(tag: DW_TAG_pointer_type, baseType: !96, size: 64, flags: DIFlagArtificial | DIFlagObjectPointer)
!96 = !DIDerivedType(tag: DW_TAG_const_type, baseType: !7)
!97 = !DISubprogram(name: "flags", linkageName: "_ZNSt3__18ios_base5flagsEj", scope: !7, file: !6, line: 285, type: !98, isLocal: false, isDefinition: false, scopeLine: 285, flags: DIFlagPublic | DIFlagPrototyped, isOptimized: false)
!98 = !DISubroutineType(types: !99)
!99 = !{!20, !100, !20}
!100 = !DIDerivedType(tag: DW_TAG_pointer_type, baseType: !7, size: 64, flags: DIFlagArtificial | DIFlagObjectPointer)
