; ModuleID = 'example.bc'
source_filename = "example.cpp"
target datalayout = "e-m:o-i64:64-f80:128-n8:16:32:64-S128"
target triple = "x86_64-apple-macosx10.10.0"

%"class.std::__1::thread" = type { %struct._opaque_pthread_t* }
%struct._opaque_pthread_t = type { i64, %struct.__darwin_pthread_handler_rec*, [8176 x i8] }
%struct.__darwin_pthread_handler_rec = type { void (i8*)*, i8*, %struct.__darwin_pthread_handler_rec* }
%"class.std::__1::__thread_struct" = type { %"class.std::__1::__thread_struct_imp"* }
%"class.std::__1::__thread_struct_imp" = type opaque
%"class.std::__1::unique_ptr" = type { %"class.std::__1::__compressed_pair" }
%"class.std::__1::__compressed_pair" = type { %"struct.std::__1::__compressed_pair_elem" }
%"struct.std::__1::__compressed_pair_elem" = type { %"class.std::__1::__thread_struct"* }
%"class.std::__1::unique_ptr.2" = type { %"class.std::__1::__compressed_pair.3" }
%"class.std::__1::__compressed_pair.3" = type { %"struct.std::__1::__compressed_pair_elem.4" }
%"struct.std::__1::__compressed_pair_elem.4" = type { %"class.std::__1::tuple"* }
%"class.std::__1::tuple" = type { %"struct.std::__1::__tuple_impl" }
%"struct.std::__1::__tuple_impl" = type { %"class.std::__1::__tuple_leaf", %"class.std::__1::__tuple_leaf.5" }
%"class.std::__1::__tuple_leaf" = type { %"class.std::__1::unique_ptr" }
%"class.std::__1::__tuple_leaf.5" = type { void ()* }
%struct._opaque_pthread_attr_t = type { i64, [56 x i8] }
%"class.std::__1::__thread_specific_ptr" = type { i64 }

@data1 = local_unnamed_addr global i32 0, align 4, !dbg !0
@data2 = local_unnamed_addr global i32 0, align 4, !dbg !740
@data3 = local_unnamed_addr global i32 0, align 4, !dbg !742
@data4 = local_unnamed_addr global i32 0, align 4, !dbg !744
@x = global { i32 } zeroinitializer, align 4, !dbg !746
@y = global { i32 } zeroinitializer, align 4, !dbg !898
@.str = private unnamed_addr constant [3 x i8] c"f1\00", align 1
@.str.1 = private unnamed_addr constant [3 x i8] c"f2\00", align 1
@.str.2 = private unnamed_addr constant [3 x i8] c"f3\00", align 1
@.str.3 = private unnamed_addr constant [5 x i8] c"main\00", align 1
@__func__.user_main = private unnamed_addr constant [10 x i8] c"user_main\00", align 1
@.str.4 = private unnamed_addr constant [12 x i8] c"example.cpp\00", align 1
@.str.5 = private unnamed_addr constant [54 x i8] c"!(data1==1 && data2 == 0 && data3 == 0 && data4 == 1)\00", align 1
@.str.6 = private unnamed_addr constant [26 x i8] c"thread constructor failed\00", align 1

; Function Attrs: ssp uwtable
define void @_Z2f1v() #0 !dbg !1827 {
entry:
  tail call void @checker_thread_begin(i8* getelementptr inbounds ([3 x i8], [3 x i8]* @.str, i64 0, i64 0)), !dbg !1828
  tail call void @llvm.dbg.value(metadata i32 10, i64 0, metadata !1829, metadata !1835), !dbg !1836
  tail call void @llvm.dbg.value(metadata i32 3, i64 0, metadata !1834, metadata !1835), !dbg !1838
  store atomic i32 10, i32* getelementptr inbounds ({ i32 }, { i32 }* @x, i64 0, i32 0) release, align 4, !dbg !1839
  tail call void @llvm.dbg.value(metadata i32 10, i64 0, metadata !1829, metadata !1835), !dbg !1841
  tail call void @llvm.dbg.value(metadata i32 3, i64 0, metadata !1834, metadata !1835), !dbg !1843
  store atomic i32 10, i32* getelementptr inbounds ({ i32 }, { i32 }* @y, i64 0, i32 0) release, align 4, !dbg !1844
  tail call void @checker_thread_end(), !dbg !1845
  ret void, !dbg !1846
}

declare void @checker_thread_begin(i8*) local_unnamed_addr #1

declare void @checker_thread_end() local_unnamed_addr #1

; Function Attrs: ssp uwtable
define void @_Z2f2v() #0 !dbg !1847 {
entry:
  tail call void @checker_thread_begin(i8* getelementptr inbounds ([3 x i8], [3 x i8]* @.str.1, i64 0, i64 0)), !dbg !1848
  tail call void @llvm.dbg.value(metadata i32 2, i64 0, metadata !1849, metadata !1835), !dbg !1854
  %0 = load atomic i32, i32* getelementptr inbounds ({ i32 }, { i32 }* @x, i64 0, i32 0) acquire, align 4, !dbg !1856
  store i32 %0, i32* @data1, align 4, !dbg !1858, !tbaa !1859
  tail call void @llvm.dbg.value(metadata i32 2, i64 0, metadata !1849, metadata !1835), !dbg !1863
  %1 = load atomic i32, i32* getelementptr inbounds ({ i32 }, { i32 }* @y, i64 0, i32 0) acquire, align 4, !dbg !1865
  store i32 %1, i32* @data2, align 4, !dbg !1866, !tbaa !1859
  tail call void @checker_thread_end(), !dbg !1867
  ret void, !dbg !1868
}

; Function Attrs: ssp uwtable
define void @_Z2f3v() #0 !dbg !1869 {
entry:
  tail call void @checker_thread_begin(i8* getelementptr inbounds ([3 x i8], [3 x i8]* @.str.2, i64 0, i64 0)), !dbg !1870
  tail call void @llvm.dbg.value(metadata i32 2, i64 0, metadata !1849, metadata !1835), !dbg !1871
  %0 = load atomic i32, i32* getelementptr inbounds ({ i32 }, { i32 }* @x, i64 0, i32 0) acquire, align 4, !dbg !1873
  store i32 %0, i32* @data3, align 4, !dbg !1874, !tbaa !1859
  tail call void @llvm.dbg.value(metadata i32 2, i64 0, metadata !1849, metadata !1835), !dbg !1875
  %1 = load atomic i32, i32* getelementptr inbounds ({ i32 }, { i32 }* @y, i64 0, i32 0) acquire, align 4, !dbg !1877
  store i32 %1, i32* @data4, align 4, !dbg !1878, !tbaa !1859
  tail call void @checker_thread_end(), !dbg !1879
  ret void, !dbg !1880
}

; Function Attrs: noreturn ssp uwtable
define i32 @user_main() local_unnamed_addr #2 personality i8* bitcast (i32 (...)* @__gxx_personality_v0 to i8*) !dbg !1881 {
entry:
  %a = alloca %"class.std::__1::thread", align 8
  %b = alloca %"class.std::__1::thread", align 8
  %c = alloca %"class.std::__1::thread", align 8
  tail call void @checker_thread_begin(i8* getelementptr inbounds ([5 x i8], [5 x i8]* @.str.3, i64 0, i64 0)), !dbg !1961
  %0 = bitcast %"class.std::__1::thread"* %a to i8*, !dbg !1962
  call void @llvm.lifetime.start(i64 8, i8* nonnull %0) #9, !dbg !1962
  tail call void @llvm.dbg.value(metadata %"class.std::__1::thread"* %a, i64 0, metadata !1883, metadata !1963), !dbg !1964
  tail call void @llvm.dbg.value(metadata %"class.std::__1::thread"* %a, i64 0, metadata !1965, metadata !1835), !dbg !1978
  tail call void @llvm.dbg.value(metadata void ()* @_Z2f1v, i64 0, metadata !1976, metadata !1835), !dbg !1980
  call void @_ZNSt3__16threadC2IRFvvEJEvEEOT_DpOT0_(%"class.std::__1::thread"* nonnull %a, void ()* nonnull @_Z2f1v), !dbg !1981
  %1 = bitcast %"class.std::__1::thread"* %b to i8*, !dbg !1982
  call void @llvm.lifetime.start(i64 8, i8* nonnull %1) #9, !dbg !1982
  call void @llvm.dbg.value(metadata %"class.std::__1::thread"* %b, i64 0, metadata !1965, metadata !1835), !dbg !1983
  call void @llvm.dbg.value(metadata void ()* @_Z2f2v, i64 0, metadata !1976, metadata !1835), !dbg !1985
  invoke void @_ZNSt3__16threadC2IRFvvEJEvEEOT_DpOT0_(%"class.std::__1::thread"* nonnull %b, void ()* nonnull @_Z2f2v)
          to label %invoke.cont unwind label %lpad, !dbg !1986

invoke.cont:                                      ; preds = %entry
  %2 = bitcast %"class.std::__1::thread"* %c to i8*, !dbg !1987
  call void @llvm.lifetime.start(i64 8, i8* nonnull %2) #9, !dbg !1987
  call void @llvm.dbg.value(metadata %"class.std::__1::thread"* %c, i64 0, metadata !1965, metadata !1835), !dbg !1988
  call void @llvm.dbg.value(metadata void ()* @_Z2f3v, i64 0, metadata !1976, metadata !1835), !dbg !1990
  invoke void @_ZNSt3__16threadC2IRFvvEJEvEEOT_DpOT0_(%"class.std::__1::thread"* nonnull %c, void ()* nonnull @_Z2f3v)
          to label %invoke.cont2 unwind label %lpad1, !dbg !1991

invoke.cont2:                                     ; preds = %invoke.cont
  tail call void @llvm.dbg.value(metadata i32 0, i64 0, metadata !1992, metadata !1835), !dbg !1997
  tail call void @llvm.dbg.value(metadata i32 0, i64 0, metadata !1829, metadata !1835), !dbg !1999
  tail call void @llvm.dbg.value(metadata i32 5, i64 0, metadata !1834, metadata !1835), !dbg !2001
  store atomic i32 0, i32* getelementptr inbounds ({ i32 }, { i32 }* @x, i64 0, i32 0) seq_cst, align 4, !dbg !2002
  tail call void @llvm.dbg.value(metadata i32 0, i64 0, metadata !1992, metadata !1835), !dbg !2004
  tail call void @llvm.dbg.value(metadata i32 0, i64 0, metadata !1829, metadata !1835), !dbg !2007
  tail call void @llvm.dbg.value(metadata i32 5, i64 0, metadata !1834, metadata !1835), !dbg !2009
  store atomic i32 0, i32* getelementptr inbounds ({ i32 }, { i32 }* @y, i64 0, i32 0) seq_cst, align 4, !dbg !2010
  call void @llvm.dbg.value(metadata %"class.std::__1::thread"* %a, i64 0, metadata !1883, metadata !1963), !dbg !1964
  tail call void @llvm.dbg.value(metadata %"class.std::__1::thread"* %a, i64 0, metadata !2011, metadata !1835), !dbg !2015
  %__t_.i36 = getelementptr inbounds %"class.std::__1::thread", %"class.std::__1::thread"* %a, i64 0, i32 0, !dbg !2017
  tail call void @llvm.dbg.value(metadata %struct._opaque_pthread_t** %__t_.i36, i64 0, metadata !2018, metadata !1835), !dbg !2025
  %3 = load %struct._opaque_pthread_t*, %struct._opaque_pthread_t** %__t_.i36, align 8, !dbg !2027, !tbaa !2028
  invoke void @checker_thread_create(%struct._opaque_pthread_t* %3)
          to label %invoke.cont7 unwind label %lpad6, !dbg !2030

invoke.cont7:                                     ; preds = %invoke.cont2
  call void @llvm.dbg.value(metadata %"class.std::__1::thread"* %b, i64 0, metadata !1959, metadata !1963), !dbg !2031
  tail call void @llvm.dbg.value(metadata %"class.std::__1::thread"* %b, i64 0, metadata !2011, metadata !1835), !dbg !2032
  %__t_.i35 = getelementptr inbounds %"class.std::__1::thread", %"class.std::__1::thread"* %b, i64 0, i32 0, !dbg !2034
  tail call void @llvm.dbg.value(metadata %struct._opaque_pthread_t** %__t_.i35, i64 0, metadata !2018, metadata !1835), !dbg !2035
  %4 = load %struct._opaque_pthread_t*, %struct._opaque_pthread_t** %__t_.i35, align 8, !dbg !2037, !tbaa !2028
  invoke void @checker_thread_create(%struct._opaque_pthread_t* %4)
          to label %invoke.cont12 unwind label %lpad6, !dbg !2038

invoke.cont12:                                    ; preds = %invoke.cont7
  call void @llvm.dbg.value(metadata %"class.std::__1::thread"* %c, i64 0, metadata !1960, metadata !1963), !dbg !2039
  tail call void @llvm.dbg.value(metadata %"class.std::__1::thread"* %c, i64 0, metadata !2011, metadata !1835), !dbg !2040
  %__t_.i = getelementptr inbounds %"class.std::__1::thread", %"class.std::__1::thread"* %c, i64 0, i32 0, !dbg !2042
  tail call void @llvm.dbg.value(metadata %struct._opaque_pthread_t** %__t_.i, i64 0, metadata !2018, metadata !1835), !dbg !2043
  %5 = load %struct._opaque_pthread_t*, %struct._opaque_pthread_t** %__t_.i, align 8, !dbg !2045, !tbaa !2028
  invoke void @checker_thread_create(%struct._opaque_pthread_t* %5)
          to label %invoke.cont17 unwind label %lpad6, !dbg !2046

invoke.cont17:                                    ; preds = %invoke.cont12
  %6 = load i32, i32* @data1, align 4, !dbg !2047, !tbaa !1859
  %cmp = icmp eq i32 %6, 1, !dbg !2047
  %7 = load i32, i32* @data2, align 4, !dbg !2048
  %8 = load i32, i32* @data3, align 4, !dbg !2049
  %9 = or i32 %8, %7, !dbg !2047
  %10 = icmp eq i32 %9, 0, !dbg !2047
  %11 = and i1 %cmp, %10, !dbg !2047
  %12 = load i32, i32* @data4, align 4, !dbg !2051
  %cmp21 = icmp eq i32 %12, 1, !dbg !2051
  %or.cond = and i1 %cmp21, %11, !dbg !2047
  br i1 %or.cond, label %cond.true, label %cond.end, !dbg !2047, !prof !2053

cond.true:                                        ; preds = %invoke.cont17
  invoke void @__assert_rtn(i8* getelementptr inbounds ([10 x i8], [10 x i8]* @__func__.user_main, i64 0, i64 0), i8* getelementptr inbounds ([12 x i8], [12 x i8]* @.str.4, i64 0, i64 0), i32 45, i8* getelementptr inbounds ([54 x i8], [54 x i8]* @.str.5, i64 0, i64 0)) #10
          to label %invoke.cont23 unwind label %lpad6, !dbg !2054

invoke.cont23:                                    ; preds = %cond.true
  unreachable, !dbg !2056

lpad:                                             ; preds = %entry
  %13 = landingpad { i8*, i32 }
          cleanup, !dbg !2058
  %14 = extractvalue { i8*, i32 } %13, 0, !dbg !2058
  %15 = extractvalue { i8*, i32 } %13, 1, !dbg !2058
  br label %ehcleanup30, !dbg !2058

lpad1:                                            ; preds = %invoke.cont
  %16 = landingpad { i8*, i32 }
          cleanup, !dbg !2059
  %17 = extractvalue { i8*, i32 } %16, 0, !dbg !2059
  %18 = extractvalue { i8*, i32 } %16, 1, !dbg !2059
  br label %ehcleanup, !dbg !2059

lpad6:                                            ; preds = %invoke.cont27, %invoke.cont26, %invoke.cont25, %invoke.cont24, %cond.end, %cond.true, %invoke.cont12, %invoke.cont7, %invoke.cont2
  %19 = landingpad { i8*, i32 }
          cleanup, !dbg !2060
  %20 = extractvalue { i8*, i32 } %19, 0, !dbg !2060
  %21 = extractvalue { i8*, i32 } %19, 1, !dbg !2060
  call void @llvm.dbg.value(metadata %"class.std::__1::thread"* %c, i64 0, metadata !1960, metadata !1963), !dbg !2039
  call void @_ZNSt3__16threadD1Ev(%"class.std::__1::thread"* nonnull %c) #9, !dbg !2060
  call void @llvm.lifetime.end(i64 8, i8* nonnull %2) #9, !dbg !2058
  br label %ehcleanup, !dbg !2060

cond.end:                                         ; preds = %invoke.cont17
  invoke void @_ZNSt3__16thread4joinEv(%"class.std::__1::thread"* nonnull %a)
          to label %invoke.cont24 unwind label %lpad6, !dbg !2061

invoke.cont24:                                    ; preds = %cond.end
  invoke void @_ZNSt3__16thread4joinEv(%"class.std::__1::thread"* nonnull %b)
          to label %invoke.cont25 unwind label %lpad6, !dbg !2062

invoke.cont25:                                    ; preds = %invoke.cont24
  invoke void @_ZNSt3__16thread4joinEv(%"class.std::__1::thread"* nonnull %c)
          to label %invoke.cont26 unwind label %lpad6, !dbg !2063

invoke.cont26:                                    ; preds = %invoke.cont25
  invoke void @checker_thread_end()
          to label %invoke.cont27 unwind label %lpad6, !dbg !2064

invoke.cont27:                                    ; preds = %invoke.cont26
  invoke void @checker_solver()
          to label %invoke.cont28 unwind label %lpad6, !dbg !2065

invoke.cont28:                                    ; preds = %invoke.cont27
  unreachable, !dbg !2066

ehcleanup:                                        ; preds = %lpad6, %lpad1
  %ehselector.slot.0 = phi i32 [ %21, %lpad6 ], [ %18, %lpad1 ]
  %exn.slot.0 = phi i8* [ %20, %lpad6 ], [ %17, %lpad1 ]
  call void @llvm.dbg.value(metadata %"class.std::__1::thread"* %b, i64 0, metadata !1959, metadata !1963), !dbg !2031
  call void @_ZNSt3__16threadD1Ev(%"class.std::__1::thread"* nonnull %b) #9, !dbg !2067
  call void @llvm.lifetime.end(i64 8, i8* nonnull %1) #9, !dbg !2058
  br label %ehcleanup30, !dbg !2067

ehcleanup30:                                      ; preds = %ehcleanup, %lpad
  %ehselector.slot.1 = phi i32 [ %ehselector.slot.0, %ehcleanup ], [ %15, %lpad ]
  %exn.slot.1 = phi i8* [ %exn.slot.0, %ehcleanup ], [ %14, %lpad ]
  call void @llvm.dbg.value(metadata %"class.std::__1::thread"* %a, i64 0, metadata !1883, metadata !1963), !dbg !1964
  call void @_ZNSt3__16threadD1Ev(%"class.std::__1::thread"* nonnull %a) #9, !dbg !2068
  call void @llvm.lifetime.end(i64 8, i8* nonnull %0) #9, !dbg !2058
  %lpad.val = insertvalue { i8*, i32 } undef, i8* %exn.slot.1, 0, !dbg !2070
  %lpad.val32 = insertvalue { i8*, i32 } %lpad.val, i32 %ehselector.slot.1, 1, !dbg !2070
  resume { i8*, i32 } %lpad.val32, !dbg !2070
}

; Function Attrs: argmemonly nounwind
declare void @llvm.lifetime.start(i64, i8* nocapture) #3

declare i32 @__gxx_personality_v0(...)

declare void @checker_thread_create(%struct._opaque_pthread_t*) local_unnamed_addr #1

; Function Attrs: noreturn
declare void @__assert_rtn(i8*, i8*, i32, i8*) local_unnamed_addr #4

declare void @_ZNSt3__16thread4joinEv(%"class.std::__1::thread"*) local_unnamed_addr #1

declare void @checker_solver() local_unnamed_addr #1

; Function Attrs: nounwind
declare void @_ZNSt3__16threadD1Ev(%"class.std::__1::thread"*) unnamed_addr #5

; Function Attrs: argmemonly nounwind
declare void @llvm.lifetime.end(i64, i8* nocapture) #3

; Function Attrs: ssp uwtable
define linkonce_odr hidden void @_ZNSt3__16threadC2IRFvvEJEvEEOT_DpOT0_(%"class.std::__1::thread"* %this, void ()* %__f) unnamed_addr #0 align 2 personality i8* bitcast (i32 (...)* @__gxx_personality_v0 to i8*) !dbg !2071 {
entry:
  tail call void @llvm.dbg.value(metadata %"class.std::__1::thread"* %this, i64 0, metadata !2073, metadata !1835), !dbg !2224
  tail call void @llvm.dbg.value(metadata void ()* %__f, i64 0, metadata !2074, metadata !1835), !dbg !2225
  %call = tail call i8* @_Znwm(i64 8) #11, !dbg !2226
  %0 = bitcast i8* %call to %"class.std::__1::__thread_struct"*, !dbg !2226
  invoke void @_ZNSt3__115__thread_structC1Ev(%"class.std::__1::__thread_struct"* nonnull %0)
          to label %invoke.cont unwind label %lpad, !dbg !2227

invoke.cont:                                      ; preds = %entry
  tail call void @llvm.dbg.value(metadata %"class.std::__1::unique_ptr"* undef, i64 0, metadata !2075, metadata !1963), !dbg !2228
  %call4 = invoke i8* @_Znwm(i64 16) #11
          to label %invoke.cont3 unwind label %_ZNKSt3__114default_deleteINS_15__thread_structEEclEPS1_.exit.i.i.i, !dbg !2229

invoke.cont3:                                     ; preds = %invoke.cont
  %1 = ptrtoint i8* %call to i64
  tail call void @llvm.dbg.value(metadata %"class.std::__1::unique_ptr"* undef, i64 0, metadata !2075, metadata !1963), !dbg !2228
  %2 = ptrtoint void ()* %__f to i64, !dbg !2230
  tail call void @llvm.dbg.value(metadata %"class.std::__1::unique_ptr"* undef, i64 0, metadata !2232, metadata !1835), !dbg !2244
  tail call void @llvm.dbg.value(metadata void ()** undef, i64 0, metadata !2243, metadata !1835), !dbg !2244
  tail call void @llvm.dbg.value(metadata %"class.std::__1::unique_ptr"* undef, i64 0, metadata !2247, metadata !1835), !dbg !2252
  tail call void @llvm.dbg.value(metadata void ()** undef, i64 0, metadata !2251, metadata !1835), !dbg !2252
  tail call void @llvm.dbg.value(metadata %"class.std::__1::unique_ptr"* undef, i64 0, metadata !2254, metadata !1835), !dbg !2279
  tail call void @llvm.dbg.value(metadata void ()** undef, i64 0, metadata !2278, metadata !1835), !dbg !2279
  tail call void @llvm.dbg.value(metadata %"class.std::__1::unique_ptr"* undef, i64 0, metadata !2281, metadata !1835), !dbg !2290
  tail call void @llvm.dbg.value(metadata void ()** undef, i64 0, metadata !2289, metadata !1835), !dbg !2290
  tail call void @llvm.dbg.value(metadata %"class.std::__1::unique_ptr"* undef, i64 0, metadata !2292, metadata !1835), !dbg !2302
  tail call void @llvm.dbg.value(metadata %"class.std::__1::unique_ptr"* undef, i64 0, metadata !2305, metadata !1835), !dbg !2310
  tail call void @llvm.dbg.value(metadata %"class.std::__1::unique_ptr"* undef, i64 0, metadata !2313, metadata !1835), !dbg !2317
  tail call void @llvm.dbg.value(metadata %"class.std::__1::__thread_struct"** undef, i64 0, metadata !2319, metadata !1835), !dbg !2333
  tail call void @llvm.dbg.value(metadata %"class.std::__1::__thread_struct"** undef, i64 0, metadata !2335, metadata !1835), !dbg !2340
  tail call void @llvm.dbg.value(metadata %"class.std::__1::__thread_struct"** undef, i64 0, metadata !2342, metadata !1835), !dbg !2352
  %3 = bitcast i8* %call4 to i64*, !dbg !2355
  store i64 %1, i64* %3, align 8, !dbg !2355, !tbaa !2356
  %4 = getelementptr inbounds i8, i8* %call4, i64 8, !dbg !2358
  tail call void @llvm.dbg.value(metadata void ()** undef, i64 0, metadata !2359, metadata !1835), !dbg !2369
  %5 = bitcast i8* %4 to i64*, !dbg !2372
  store i64 %2, i64* %5, align 8, !dbg !2372, !tbaa !2373
  tail call void @llvm.dbg.value(metadata %"class.std::__1::unique_ptr.2"* undef, i64 0, metadata !2078, metadata !1963), !dbg !2375
  %__t_ = getelementptr inbounds %"class.std::__1::thread", %"class.std::__1::thread"* %this, i64 0, i32 0, !dbg !2376
  tail call void @llvm.dbg.value(metadata %"class.std::__1::unique_ptr.2"* undef, i64 0, metadata !2078, metadata !1963), !dbg !2375
  tail call void @llvm.dbg.value(metadata %struct._opaque_pthread_t** %__t_, i64 0, metadata !2377, metadata !1835), !dbg !2388
  tail call void @llvm.dbg.value(metadata i8* (i8*)* @_ZNSt3__114__thread_proxyINS_5tupleIJNS_10unique_ptrINS_15__thread_structENS_14default_deleteIS3_EEEEPFvvEEEEEEPvSA_, i64 0, metadata !2386, metadata !1835), !dbg !2390
  tail call void @llvm.dbg.value(metadata i8* %call4, i64 0, metadata !2387, metadata !1835), !dbg !2391
  %call.i31 = invoke i32 @pthread_create(%struct._opaque_pthread_t** %__t_, %struct._opaque_pthread_attr_t* null, i8* (i8*)* nonnull @_ZNSt3__114__thread_proxyINS_5tupleIJNS_10unique_ptrINS_15__thread_structENS_14default_deleteIS3_EEEEPFvvEEEEEEPvSA_, i8* nonnull %call4)
          to label %invoke.cont12 unwind label %lpad11, !dbg !2392

invoke.cont12:                                    ; preds = %invoke.cont3
  tail call void @llvm.dbg.value(metadata i32 %call.i31, i64 0, metadata !2223, metadata !1835), !dbg !2393
  %cmp = icmp eq i32 %call.i31, 0, !dbg !2394
  br i1 %cmp, label %_ZNSt3__110unique_ptrINS_15__thread_structENS_14default_deleteIS1_EEED1Ev.exit30, label %if.else, !dbg !2396

_ZNSt3__110unique_ptrINS_15__thread_structENS_14default_deleteIS1_EEED1Ev.exit30: ; preds = %invoke.cont12
  tail call void @llvm.dbg.value(metadata %"class.std::__1::unique_ptr.2"* undef, i64 0, metadata !2078, metadata !1963), !dbg !2375
  tail call void @llvm.dbg.value(metadata %"class.std::__1::unique_ptr.2"* undef, i64 0, metadata !2078, metadata !1963), !dbg !2375
  tail call void @llvm.dbg.value(metadata %"class.std::__1::unique_ptr.2"* undef, i64 0, metadata !2397, metadata !1835) #9, !dbg !2401
  tail call void @llvm.dbg.value(metadata %"class.std::__1::unique_ptr.2"* undef, i64 0, metadata !2404, metadata !1835) #9, !dbg !2407
  tail call void @llvm.dbg.value(metadata %"class.std::__1::unique_ptr.2"* undef, i64 0, metadata !2409, metadata !1835) #9, !dbg !2414
  tail call void @llvm.dbg.value(metadata %"class.std::__1::tuple"* null, i64 0, metadata !2412, metadata !1835) #9, !dbg !2417
  tail call void @llvm.dbg.value(metadata %"class.std::__1::tuple"* null, i64 0, metadata !2413, metadata !1835) #9, !dbg !2418
  tail call void @llvm.dbg.value(metadata %"class.std::__1::unique_ptr"* undef, i64 0, metadata !2075, metadata !1963), !dbg !2228
  tail call void @llvm.dbg.value(metadata %"class.std::__1::unique_ptr"* undef, i64 0, metadata !2419, metadata !1835) #9, !dbg !2422
  tail call void @llvm.dbg.value(metadata %"class.std::__1::unique_ptr"* undef, i64 0, metadata !2425, metadata !1835) #9, !dbg !2428
  tail call void @llvm.dbg.value(metadata %"class.std::__1::unique_ptr"* undef, i64 0, metadata !2430, metadata !1835) #9, !dbg !2435
  tail call void @llvm.dbg.value(metadata %"class.std::__1::__thread_struct"* null, i64 0, metadata !2433, metadata !1835) #9, !dbg !2438
  tail call void @llvm.dbg.value(metadata %"class.std::__1::__thread_struct"* null, i64 0, metadata !2434, metadata !1835) #9, !dbg !2439
  ret void, !dbg !2440

lpad:                                             ; preds = %entry
  %6 = landingpad { i8*, i32 }
          cleanup, !dbg !2441
  %7 = extractvalue { i8*, i32 } %6, 0, !dbg !2441
  %8 = extractvalue { i8*, i32 } %6, 1, !dbg !2441
  tail call void @_ZdlPv(i8* nonnull %call) #12, !dbg !2442
  br label %eh.resume, !dbg !2442

lpad11:                                           ; preds = %invoke.cont3
  %9 = landingpad { i8*, i32 }
          cleanup, !dbg !2443
  br label %delete.notnull.i.i.i.i, !dbg !2443

if.else:                                          ; preds = %invoke.cont12
  invoke void @_ZNSt3__120__throw_system_errorEiPKc(i32 %call.i31, i8* getelementptr inbounds ([26 x i8], [26 x i8]* @.str.6, i64 0, i64 0)) #10
          to label %invoke.cont16 unwind label %lpad15, !dbg !2445

invoke.cont16:                                    ; preds = %if.else
  unreachable, !dbg !2446

lpad15:                                           ; preds = %if.else
  %10 = landingpad { i8*, i32 }
          cleanup, !dbg !2448
  br label %delete.notnull.i.i.i.i, !dbg !2450

delete.notnull.i.i.i.i:                           ; preds = %lpad11, %lpad15
  %.sink24 = phi { i8*, i32 } [ %10, %lpad15 ], [ %9, %lpad11 ]
  %11 = extractvalue { i8*, i32 } %.sink24, 0
  %12 = extractvalue { i8*, i32 } %.sink24, 1
  tail call void @llvm.dbg.value(metadata %"class.std::__1::unique_ptr.2"* undef, i64 0, metadata !2078, metadata !1963), !dbg !2375
  tail call void @llvm.dbg.value(metadata %"class.std::__1::unique_ptr.2"* undef, i64 0, metadata !2397, metadata !1835) #9, !dbg !2452
  tail call void @llvm.dbg.value(metadata %"class.std::__1::unique_ptr.2"* undef, i64 0, metadata !2404, metadata !1835) #9, !dbg !2455
  tail call void @llvm.dbg.value(metadata %"class.std::__1::unique_ptr.2"* undef, i64 0, metadata !2409, metadata !1835) #9, !dbg !2457
  tail call void @llvm.dbg.value(metadata %"class.std::__1::tuple"* null, i64 0, metadata !2412, metadata !1835) #9, !dbg !2459
  tail call void @llvm.dbg.value(metadata %"class.std::__1::__thread_struct"* null, i64 0, metadata !2433, metadata !1835) #9, !dbg !2460
  %__value_.i.i.i.i.i.i.i.i.i.i.i.i.i.i = bitcast i8* %call4 to %"class.std::__1::__thread_struct"**, !dbg !2501
  %13 = load %"class.std::__1::__thread_struct"*, %"class.std::__1::__thread_struct"** %__value_.i.i.i.i.i.i.i.i.i.i.i.i.i.i, align 8, !dbg !2510, !tbaa !2028
  tail call void @llvm.dbg.value(metadata %"class.std::__1::__thread_struct"* %13, i64 0, metadata !2434, metadata !1835) #9, !dbg !2511
  store %"class.std::__1::__thread_struct"* null, %"class.std::__1::__thread_struct"** %__value_.i.i.i.i.i.i.i.i.i.i.i.i.i.i, align 8, !dbg !2512, !tbaa !2028
  %tobool.i.i.i.i.i.i.i.i.i.i.i.i = icmp eq %"class.std::__1::__thread_struct"* %13, null, !dbg !2513
  br i1 %tobool.i.i.i.i.i.i.i.i.i.i.i.i, label %ehcleanup18.thread, label %_ZNKSt3__114default_deleteINS_15__thread_structEEclEPS1_.exit.i.i.i.i.i.i.i.i.i.i.i.i, !dbg !2515

_ZNKSt3__114default_deleteINS_15__thread_structEEclEPS1_.exit.i.i.i.i.i.i.i.i.i.i.i.i: ; preds = %delete.notnull.i.i.i.i
  tail call void @llvm.dbg.value(metadata %"class.std::__1::__thread_struct"* %13, i64 0, metadata !2516, metadata !1835) #9, !dbg !2521
  tail call void @_ZNSt3__115__thread_structD1Ev(%"class.std::__1::__thread_struct"* nonnull %13) #9, !dbg !2524
  %14 = bitcast %"class.std::__1::__thread_struct"* %13 to i8*, !dbg !2524
  tail call void @_ZdlPv(i8* %14) #12, !dbg !2526
  br label %ehcleanup18.thread, !dbg !2528

ehcleanup18.thread:                               ; preds = %_ZNKSt3__114default_deleteINS_15__thread_structEEclEPS1_.exit.i.i.i.i.i.i.i.i.i.i.i.i, %delete.notnull.i.i.i.i
  tail call void @_ZdlPv(i8* nonnull %call4) #12, !dbg !2529
  tail call void @llvm.dbg.value(metadata %"class.std::__1::unique_ptr"* undef, i64 0, metadata !2075, metadata !1963), !dbg !2228
  tail call void @llvm.dbg.value(metadata %"class.std::__1::unique_ptr"* undef, i64 0, metadata !2419, metadata !1835) #9, !dbg !2531
  tail call void @llvm.dbg.value(metadata %"class.std::__1::unique_ptr"* undef, i64 0, metadata !2425, metadata !1835) #9, !dbg !2534
  tail call void @llvm.dbg.value(metadata %"class.std::__1::unique_ptr"* undef, i64 0, metadata !2430, metadata !1835) #9, !dbg !2536
  tail call void @llvm.dbg.value(metadata %"class.std::__1::__thread_struct"* null, i64 0, metadata !2433, metadata !1835) #9, !dbg !2538
  tail call void @llvm.dbg.value(metadata %"class.std::__1::__thread_struct"* %0, i64 0, metadata !2434, metadata !1835) #9, !dbg !2539
  br label %eh.resume, !dbg !2540

_ZNKSt3__114default_deleteINS_15__thread_structEEclEPS1_.exit.i.i.i: ; preds = %invoke.cont
  %15 = landingpad { i8*, i32 }
          cleanup, !dbg !2541
  %16 = extractvalue { i8*, i32 } %15, 0, !dbg !2541
  %17 = extractvalue { i8*, i32 } %15, 1, !dbg !2541
  tail call void @llvm.dbg.value(metadata %"class.std::__1::unique_ptr"* undef, i64 0, metadata !2075, metadata !1963), !dbg !2228
  tail call void @llvm.dbg.value(metadata %"class.std::__1::unique_ptr"* undef, i64 0, metadata !2419, metadata !1835) #9, !dbg !2531
  tail call void @llvm.dbg.value(metadata %"class.std::__1::unique_ptr"* undef, i64 0, metadata !2425, metadata !1835) #9, !dbg !2534
  tail call void @llvm.dbg.value(metadata %"class.std::__1::unique_ptr"* undef, i64 0, metadata !2430, metadata !1835) #9, !dbg !2536
  tail call void @llvm.dbg.value(metadata %"class.std::__1::__thread_struct"* null, i64 0, metadata !2433, metadata !1835) #9, !dbg !2538
  tail call void @llvm.dbg.value(metadata %"class.std::__1::__thread_struct"* %0, i64 0, metadata !2434, metadata !1835) #9, !dbg !2539
  tail call void @llvm.dbg.value(metadata %"class.std::__1::__thread_struct"* %0, i64 0, metadata !2516, metadata !1835) #9, !dbg !2542
  tail call void @_ZNSt3__115__thread_structD1Ev(%"class.std::__1::__thread_struct"* nonnull %0) #9, !dbg !2544
  tail call void @_ZdlPv(i8* nonnull %call) #12, !dbg !2545
  br label %eh.resume, !dbg !2546

eh.resume:                                        ; preds = %ehcleanup18.thread, %_ZNKSt3__114default_deleteINS_15__thread_structEEclEPS1_.exit.i.i.i, %lpad
  %ehselector.slot.2 = phi i32 [ %8, %lpad ], [ %17, %_ZNKSt3__114default_deleteINS_15__thread_structEEclEPS1_.exit.i.i.i ], [ %12, %ehcleanup18.thread ]
  %exn.slot.2 = phi i8* [ %7, %lpad ], [ %16, %_ZNKSt3__114default_deleteINS_15__thread_structEEclEPS1_.exit.i.i.i ], [ %11, %ehcleanup18.thread ]
  %lpad.val = insertvalue { i8*, i32 } undef, i8* %exn.slot.2, 0, !dbg !2547
  %lpad.val20 = insertvalue { i8*, i32 } %lpad.val, i32 %ehselector.slot.2, 1, !dbg !2547
  resume { i8*, i32 } %lpad.val20, !dbg !2547
}

; Function Attrs: nobuiltin
declare noalias nonnull i8* @_Znwm(i64) local_unnamed_addr #6

declare void @_ZNSt3__115__thread_structC1Ev(%"class.std::__1::__thread_struct"*) unnamed_addr #1

; Function Attrs: nobuiltin nounwind
declare void @_ZdlPv(i8*) local_unnamed_addr #7

; Function Attrs: ssp uwtable
define linkonce_odr i8* @_ZNSt3__114__thread_proxyINS_5tupleIJNS_10unique_ptrINS_15__thread_structENS_14default_deleteIS3_EEEEPFvvEEEEEEPvSA_(i8* %__vp) #0 personality i8* bitcast (i32 (...)* @__gxx_personality_v0 to i8*) !dbg !2548 {
entry:
  tail call void @llvm.dbg.value(metadata i8* %__vp, i64 0, metadata !2552, metadata !1835), !dbg !2554
  tail call void @llvm.dbg.value(metadata %"class.std::__1::unique_ptr.2"* undef, i64 0, metadata !2553, metadata !1963), !dbg !2555
  %call = invoke dereferenceable(8) %"class.std::__1::__thread_specific_ptr"* @_ZNSt3__119__thread_local_dataEv()
          to label %invoke.cont unwind label %lpad, !dbg !2556

invoke.cont:                                      ; preds = %entry
  tail call void @llvm.dbg.value(metadata %"class.std::__1::unique_ptr.2"* undef, i64 0, metadata !2553, metadata !1963), !dbg !2555
  %__value_.i.i.i10 = bitcast i8* %__vp to %"class.std::__1::__thread_struct"**, !dbg !2557
  %0 = bitcast i8* %__vp to i8**, !dbg !2566
  %1 = load i8*, i8** %0, align 8, !dbg !2566, !tbaa !2028
  store %"class.std::__1::__thread_struct"* null, %"class.std::__1::__thread_struct"** %__value_.i.i.i10, align 8, !dbg !2567, !tbaa !2028
  tail call void @llvm.dbg.value(metadata %"class.std::__1::__thread_specific_ptr"* %call, i64 0, metadata !2568, metadata !1835), !dbg !2605
  %__key_.i = getelementptr inbounds %"class.std::__1::__thread_specific_ptr", %"class.std::__1::__thread_specific_ptr"* %call, i64 0, i32 0, !dbg !2608
  %2 = load i64, i64* %__key_.i, align 8, !dbg !2608, !tbaa !2609
  tail call void @llvm.dbg.value(metadata i64 %2, i64 0, metadata !2612, metadata !1835), !dbg !2618
  tail call void @llvm.dbg.value(metadata i8* %1, i64 0, metadata !2617, metadata !1835), !dbg !2620
  %call.i.i19 = invoke i32 @pthread_setspecific(i64 %2, i8* %1)
          to label %invoke.cont5 unwind label %lpad.thread, !dbg !2621

invoke.cont5:                                     ; preds = %invoke.cont
  tail call void @llvm.dbg.value(metadata %"class.std::__1::unique_ptr.2"* undef, i64 0, metadata !2553, metadata !1963), !dbg !2555
  %value.i.i.i = getelementptr inbounds i8, i8* %__vp, i64 8, !dbg !2622
  %3 = bitcast i8* %value.i.i.i to void ()**, !dbg !2622
  tail call void @llvm.dbg.value(metadata void ()** %3, i64 0, metadata !2654, metadata !1835), !dbg !2660
  %4 = load void ()*, void ()** %3, align 8, !dbg !2663, !tbaa !2028
  invoke void %4()
          to label %delete.notnull.i.i.i.i15 unwind label %lpad.thread, !dbg !2664

delete.notnull.i.i.i.i15:                         ; preds = %invoke.cont5
  tail call void @llvm.dbg.value(metadata %"class.std::__1::unique_ptr.2"* undef, i64 0, metadata !2553, metadata !1963), !dbg !2555
  tail call void @llvm.dbg.value(metadata %"class.std::__1::unique_ptr.2"* undef, i64 0, metadata !2397, metadata !1835) #9, !dbg !2666
  tail call void @llvm.dbg.value(metadata %"class.std::__1::unique_ptr.2"* undef, i64 0, metadata !2404, metadata !1835) #9, !dbg !2668
  tail call void @llvm.dbg.value(metadata %"class.std::__1::unique_ptr.2"* undef, i64 0, metadata !2409, metadata !1835) #9, !dbg !2670
  tail call void @llvm.dbg.value(metadata %"class.std::__1::tuple"* null, i64 0, metadata !2412, metadata !1835) #9, !dbg !2672
  tail call void @llvm.dbg.value(metadata %"class.std::__1::__thread_struct"* null, i64 0, metadata !2433, metadata !1835) #9, !dbg !2673
  %5 = load %"class.std::__1::__thread_struct"*, %"class.std::__1::__thread_struct"** %__value_.i.i.i10, align 8, !dbg !2683, !tbaa !2028
  tail call void @llvm.dbg.value(metadata %"class.std::__1::__thread_struct"* %5, i64 0, metadata !2434, metadata !1835) #9, !dbg !2684
  store %"class.std::__1::__thread_struct"* null, %"class.std::__1::__thread_struct"** %__value_.i.i.i10, align 8, !dbg !2685, !tbaa !2028
  %tobool.i.i.i.i.i.i.i.i.i.i.i.i14 = icmp eq %"class.std::__1::__thread_struct"* %5, null, !dbg !2686
  br i1 %tobool.i.i.i.i.i.i.i.i.i.i.i.i14, label %_ZNSt3__110unique_ptrINS_5tupleIJNS0_INS_15__thread_structENS_14default_deleteIS2_EEEEPFvvEEEENS3_IS8_EEED1Ev.exit18, label %_ZNKSt3__114default_deleteINS_15__thread_structEEclEPS1_.exit.i.i.i.i.i.i.i.i.i.i.i.i16, !dbg !2687

_ZNKSt3__114default_deleteINS_15__thread_structEEclEPS1_.exit.i.i.i.i.i.i.i.i.i.i.i.i16: ; preds = %delete.notnull.i.i.i.i15
  tail call void @llvm.dbg.value(metadata %"class.std::__1::__thread_struct"* %5, i64 0, metadata !2516, metadata !1835) #9, !dbg !2688
  tail call void @_ZNSt3__115__thread_structD1Ev(%"class.std::__1::__thread_struct"* nonnull %5) #9, !dbg !2690
  %6 = bitcast %"class.std::__1::__thread_struct"* %5 to i8*, !dbg !2690
  tail call void @_ZdlPv(i8* %6) #12, !dbg !2691
  br label %_ZNSt3__110unique_ptrINS_5tupleIJNS0_INS_15__thread_structENS_14default_deleteIS2_EEEEPFvvEEEENS3_IS8_EEED1Ev.exit18, !dbg !2692

_ZNSt3__110unique_ptrINS_5tupleIJNS0_INS_15__thread_structENS_14default_deleteIS2_EEEEPFvvEEEENS3_IS8_EEED1Ev.exit18: ; preds = %delete.notnull.i.i.i.i15, %_ZNKSt3__114default_deleteINS_15__thread_structEEclEPS1_.exit.i.i.i.i.i.i.i.i.i.i.i.i16
  tail call void @_ZdlPv(i8* nonnull %__vp) #12, !dbg !2693
  ret i8* null, !dbg !2694

lpad.thread:                                      ; preds = %invoke.cont5, %invoke.cont
  %lpad.thr_comm26 = landingpad { i8*, i32 }
          cleanup, !dbg !2695
  tail call void @llvm.dbg.value(metadata %"class.std::__1::unique_ptr.2"* undef, i64 0, metadata !2553, metadata !1963), !dbg !2555
  tail call void @llvm.dbg.value(metadata %"class.std::__1::unique_ptr.2"* undef, i64 0, metadata !2397, metadata !1835) #9, !dbg !2696
  tail call void @llvm.dbg.value(metadata %"class.std::__1::unique_ptr.2"* undef, i64 0, metadata !2404, metadata !1835) #9, !dbg !2698
  tail call void @llvm.dbg.value(metadata %"class.std::__1::unique_ptr.2"* undef, i64 0, metadata !2409, metadata !1835) #9, !dbg !2700
  tail call void @llvm.dbg.value(metadata %"class.std::__1::tuple"* null, i64 0, metadata !2412, metadata !1835) #9, !dbg !2702
  br label %delete.notnull.i.i.i.i, !dbg !2703

lpad:                                             ; preds = %entry
  %lpad.thr_comm.split-lp27 = landingpad { i8*, i32 }
          cleanup, !dbg !2695
  tail call void @llvm.dbg.value(metadata %"class.std::__1::unique_ptr.2"* undef, i64 0, metadata !2553, metadata !1963), !dbg !2555
  tail call void @llvm.dbg.value(metadata %"class.std::__1::unique_ptr.2"* undef, i64 0, metadata !2397, metadata !1835) #9, !dbg !2696
  tail call void @llvm.dbg.value(metadata %"class.std::__1::unique_ptr.2"* undef, i64 0, metadata !2404, metadata !1835) #9, !dbg !2698
  tail call void @llvm.dbg.value(metadata %"class.std::__1::unique_ptr.2"* undef, i64 0, metadata !2409, metadata !1835) #9, !dbg !2700
  tail call void @llvm.dbg.value(metadata %"class.std::__1::tuple"* null, i64 0, metadata !2412, metadata !1835) #9, !dbg !2702
  %tobool.i.i.i = icmp eq i8* %__vp, null, !dbg !2704
  br i1 %tobool.i.i.i, label %_ZNSt3__110unique_ptrINS_5tupleIJNS0_INS_15__thread_structENS_14default_deleteIS2_EEEEPFvvEEEENS3_IS8_EEED1Ev.exit, label %lpad.delete.notnull.i.i.i.i_crit_edge, !dbg !2703

lpad.delete.notnull.i.i.i.i_crit_edge:            ; preds = %lpad
  %.pre = bitcast i8* %__vp to %"class.std::__1::__thread_struct"**, !dbg !2705
  br label %delete.notnull.i.i.i.i, !dbg !2703

delete.notnull.i.i.i.i:                           ; preds = %lpad.delete.notnull.i.i.i.i_crit_edge, %lpad.thread
  %__value_.i.i.i.i.i.i.i.i.i.i.i.i.i.i.pre-phi = phi %"class.std::__1::__thread_struct"** [ %.pre, %lpad.delete.notnull.i.i.i.i_crit_edge ], [ %__value_.i.i.i10, %lpad.thread ], !dbg !2705
  %lpad.phi29 = phi { i8*, i32 } [ %lpad.thr_comm.split-lp27, %lpad.delete.notnull.i.i.i.i_crit_edge ], [ %lpad.thr_comm26, %lpad.thread ]
  tail call void @llvm.dbg.value(metadata %"class.std::__1::__thread_struct"* null, i64 0, metadata !2433, metadata !1835) #9, !dbg !2717
  %7 = load %"class.std::__1::__thread_struct"*, %"class.std::__1::__thread_struct"** %__value_.i.i.i.i.i.i.i.i.i.i.i.i.i.i.pre-phi, align 8, !dbg !2718, !tbaa !2028
  tail call void @llvm.dbg.value(metadata %"class.std::__1::__thread_struct"* %7, i64 0, metadata !2434, metadata !1835) #9, !dbg !2719
  store %"class.std::__1::__thread_struct"* null, %"class.std::__1::__thread_struct"** %__value_.i.i.i.i.i.i.i.i.i.i.i.i.i.i.pre-phi, align 8, !dbg !2720, !tbaa !2028
  %tobool.i.i.i.i.i.i.i.i.i.i.i.i = icmp eq %"class.std::__1::__thread_struct"* %7, null, !dbg !2721
  br i1 %tobool.i.i.i.i.i.i.i.i.i.i.i.i, label %_ZNKSt3__114default_deleteINS_5tupleIJNS_10unique_ptrINS_15__thread_structENS0_IS3_EEEEPFvvEEEEEclEPS8_.exit.i.i.i, label %_ZNKSt3__114default_deleteINS_15__thread_structEEclEPS1_.exit.i.i.i.i.i.i.i.i.i.i.i.i, !dbg !2722

_ZNKSt3__114default_deleteINS_15__thread_structEEclEPS1_.exit.i.i.i.i.i.i.i.i.i.i.i.i: ; preds = %delete.notnull.i.i.i.i
  tail call void @llvm.dbg.value(metadata %"class.std::__1::__thread_struct"* %7, i64 0, metadata !2516, metadata !1835) #9, !dbg !2723
  tail call void @_ZNSt3__115__thread_structD1Ev(%"class.std::__1::__thread_struct"* nonnull %7) #9, !dbg !2725
  %8 = bitcast %"class.std::__1::__thread_struct"* %7 to i8*, !dbg !2725
  tail call void @_ZdlPv(i8* %8) #12, !dbg !2726
  br label %_ZNKSt3__114default_deleteINS_5tupleIJNS_10unique_ptrINS_15__thread_structENS0_IS3_EEEEPFvvEEEEEclEPS8_.exit.i.i.i, !dbg !2727

_ZNKSt3__114default_deleteINS_5tupleIJNS_10unique_ptrINS_15__thread_structENS0_IS3_EEEEPFvvEEEEEclEPS8_.exit.i.i.i: ; preds = %_ZNKSt3__114default_deleteINS_15__thread_structEEclEPS1_.exit.i.i.i.i.i.i.i.i.i.i.i.i, %delete.notnull.i.i.i.i
  tail call void @_ZdlPv(i8* nonnull %__vp) #12, !dbg !2728
  br label %_ZNSt3__110unique_ptrINS_5tupleIJNS0_INS_15__thread_structENS_14default_deleteIS2_EEEEPFvvEEEENS3_IS8_EEED1Ev.exit, !dbg !2729

_ZNSt3__110unique_ptrINS_5tupleIJNS0_INS_15__thread_structENS_14default_deleteIS2_EEEEPFvvEEEENS3_IS8_EEED1Ev.exit: ; preds = %lpad, %_ZNKSt3__114default_deleteINS_5tupleIJNS_10unique_ptrINS_15__thread_structENS0_IS3_EEEEPFvvEEEEEclEPS8_.exit.i.i.i
  %lpad.phi30 = phi { i8*, i32 } [ %lpad.thr_comm.split-lp27, %lpad ], [ %lpad.phi29, %_ZNKSt3__114default_deleteINS_5tupleIJNS_10unique_ptrINS_15__thread_structENS0_IS3_EEEEPFvvEEEEEclEPS8_.exit.i.i.i ]
  resume { i8*, i32 } %lpad.phi30, !dbg !2730
}

; Function Attrs: noreturn
declare void @_ZNSt3__120__throw_system_errorEiPKc(i32, i8*) local_unnamed_addr #4

declare i32 @pthread_create(%struct._opaque_pthread_t**, %struct._opaque_pthread_attr_t*, i8* (i8*)*, i8*) local_unnamed_addr #1

declare dereferenceable(8) %"class.std::__1::__thread_specific_ptr"* @_ZNSt3__119__thread_local_dataEv() local_unnamed_addr #1

declare i32 @pthread_setspecific(i64, i8*) local_unnamed_addr #1

; Function Attrs: nounwind
declare void @_ZNSt3__115__thread_structD1Ev(%"class.std::__1::__thread_struct"*) unnamed_addr #5

; Function Attrs: nounwind readnone
declare void @llvm.dbg.value(metadata, i64, metadata, metadata) #8

attributes #0 = { ssp uwtable "correctly-rounded-divide-sqrt-fp-math"="false" "disable-tail-calls"="false" "less-precise-fpmad"="false" "no-frame-pointer-elim"="true" "no-frame-pointer-elim-non-leaf" "no-infs-fp-math"="false" "no-jump-tables"="false" "no-nans-fp-math"="false" "no-signed-zeros-fp-math"="false" "no-trapping-math"="false" "stack-protector-buffer-size"="8" "target-cpu"="core2" "target-features"="+cx16,+fxsr,+mmx,+sse,+sse2,+sse3,+ssse3,+x87" "unsafe-fp-math"="false" "use-soft-float"="false" }
attributes #1 = { "correctly-rounded-divide-sqrt-fp-math"="false" "disable-tail-calls"="false" "less-precise-fpmad"="false" "no-frame-pointer-elim"="true" "no-frame-pointer-elim-non-leaf" "no-infs-fp-math"="false" "no-nans-fp-math"="false" "no-signed-zeros-fp-math"="false" "no-trapping-math"="false" "stack-protector-buffer-size"="8" "target-cpu"="core2" "target-features"="+cx16,+fxsr,+mmx,+sse,+sse2,+sse3,+ssse3,+x87" "unsafe-fp-math"="false" "use-soft-float"="false" }
attributes #2 = { noreturn ssp uwtable "correctly-rounded-divide-sqrt-fp-math"="false" "disable-tail-calls"="false" "less-precise-fpmad"="false" "no-frame-pointer-elim"="true" "no-frame-pointer-elim-non-leaf" "no-infs-fp-math"="false" "no-jump-tables"="false" "no-nans-fp-math"="false" "no-signed-zeros-fp-math"="false" "no-trapping-math"="false" "stack-protector-buffer-size"="8" "target-cpu"="core2" "target-features"="+cx16,+fxsr,+mmx,+sse,+sse2,+sse3,+ssse3,+x87" "unsafe-fp-math"="false" "use-soft-float"="false" }
attributes #3 = { argmemonly nounwind }
attributes #4 = { noreturn "correctly-rounded-divide-sqrt-fp-math"="false" "disable-tail-calls"="false" "less-precise-fpmad"="false" "no-frame-pointer-elim"="true" "no-frame-pointer-elim-non-leaf" "no-infs-fp-math"="false" "no-nans-fp-math"="false" "no-signed-zeros-fp-math"="false" "no-trapping-math"="false" "stack-protector-buffer-size"="8" "target-cpu"="core2" "target-features"="+cx16,+fxsr,+mmx,+sse,+sse2,+sse3,+ssse3,+x87" "unsafe-fp-math"="false" "use-soft-float"="false" }
attributes #5 = { nounwind "correctly-rounded-divide-sqrt-fp-math"="false" "disable-tail-calls"="false" "less-precise-fpmad"="false" "no-frame-pointer-elim"="true" "no-frame-pointer-elim-non-leaf" "no-infs-fp-math"="false" "no-nans-fp-math"="false" "no-signed-zeros-fp-math"="false" "no-trapping-math"="false" "stack-protector-buffer-size"="8" "target-cpu"="core2" "target-features"="+cx16,+fxsr,+mmx,+sse,+sse2,+sse3,+ssse3,+x87" "unsafe-fp-math"="false" "use-soft-float"="false" }
attributes #6 = { nobuiltin "correctly-rounded-divide-sqrt-fp-math"="false" "disable-tail-calls"="false" "less-precise-fpmad"="false" "no-frame-pointer-elim"="true" "no-frame-pointer-elim-non-leaf" "no-infs-fp-math"="false" "no-nans-fp-math"="false" "no-signed-zeros-fp-math"="false" "no-trapping-math"="false" "stack-protector-buffer-size"="8" "target-cpu"="core2" "target-features"="+cx16,+fxsr,+mmx,+sse,+sse2,+sse3,+ssse3,+x87" "unsafe-fp-math"="false" "use-soft-float"="false" }
attributes #7 = { nobuiltin nounwind "correctly-rounded-divide-sqrt-fp-math"="false" "disable-tail-calls"="false" "less-precise-fpmad"="false" "no-frame-pointer-elim"="true" "no-frame-pointer-elim-non-leaf" "no-infs-fp-math"="false" "no-nans-fp-math"="false" "no-signed-zeros-fp-math"="false" "no-trapping-math"="false" "stack-protector-buffer-size"="8" "target-cpu"="core2" "target-features"="+cx16,+fxsr,+mmx,+sse,+sse2,+sse3,+ssse3,+x87" "unsafe-fp-math"="false" "use-soft-float"="false" }
attributes #8 = { nounwind readnone }
attributes #9 = { nounwind }
attributes #10 = { noreturn }
attributes #11 = { builtin }
attributes #12 = { builtin nounwind }

!llvm.dbg.cu = !{!2}
!llvm.module.flags = !{!1823, !1824, !1825}
!llvm.ident = !{!1826}

!0 = !DIGlobalVariableExpression(var: !1)
!1 = distinct !DIGlobalVariable(name: "data1", scope: !2, file: !3, line: 7, type: !252, isLocal: false, isDefinition: true)
!2 = distinct !DICompileUnit(language: DW_LANG_C_plus_plus, file: !3, producer: "clang version 4.0.0 (tags/RELEASE_400/final)", isOptimized: true, runtimeVersion: 0, emissionKind: FullDebug, enums: !4, retainedTypes: !17, globals: !739, imports: !900)
!3 = !DIFile(filename: "example.cpp", directory: "/Users/aser/Dropbox/papers/C++11/Checker11/examples/mo_release_acquire3")
!4 = !{!5}
!5 = !DICompositeType(tag: DW_TAG_enumeration_type, name: "memory_order", scope: !7, file: !6, line: 581, size: 32, elements: !10, identifier: "_ZTSNSt3__112memory_orderE")
!6 = !DIFile(filename: "/Users/aser/Documents/LLVM/llvm-4.0/build/bin/../include/c++/v1/atomic", directory: "/Users/aser/Dropbox/papers/C++11/Checker11/examples/mo_release_acquire3")
!7 = !DINamespace(name: "__1", scope: !9, file: !8, line: 438, exportSymbols: true)
!8 = !DIFile(filename: "/Users/aser/Documents/LLVM/llvm-4.0/build/bin/../include/c++/v1/__config", directory: "/Users/aser/Dropbox/papers/C++11/Checker11/examples/mo_release_acquire3")
!9 = !DINamespace(name: "std", scope: null, file: !8, line: 437)
!10 = !{!11, !12, !13, !14, !15, !16}
!11 = !DIEnumerator(name: "memory_order_relaxed", value: 0)
!12 = !DIEnumerator(name: "memory_order_consume", value: 1)
!13 = !DIEnumerator(name: "memory_order_acquire", value: 2)
!14 = !DIEnumerator(name: "memory_order_release", value: 3)
!15 = !DIEnumerator(name: "memory_order_acq_rel", value: 4)
!16 = !DIEnumerator(name: "memory_order_seq_cst", value: 5)
!17 = !{!18}
!18 = !DIDerivedType(tag: DW_TAG_pointer_type, baseType: !19, size: 64)
!19 = distinct !DICompositeType(tag: DW_TAG_class_type, name: "tuple<std::__1::unique_ptr<std::__1::__thread_struct, std::__1::default_delete<std::__1::__thread_struct> >, void (*)()>", scope: !7, file: !20, line: 474, size: 128, elements: !21, templateParams: !738, identifier: "_ZTSNSt3__15tupleIJNS_10unique_ptrINS_15__thread_structENS_14default_deleteIS2_EEEEPFvvEEEE")
!20 = !DIFile(filename: "/Users/aser/Documents/LLVM/llvm-4.0/build/bin/../include/c++/v1/tuple", directory: "/Users/aser/Dropbox/papers/C++11/Checker11/examples/mo_release_acquire3")
!21 = !{!22, !688, !689, !695, !699, !727, !735}
!22 = !DIDerivedType(tag: DW_TAG_member, name: "base_", scope: !19, file: !20, line: 478, baseType: !23, size: 128)
!23 = !DIDerivedType(tag: DW_TAG_typedef, name: "base", scope: !19, file: !20, line: 476, baseType: !24)
!24 = distinct !DICompositeType(tag: DW_TAG_structure_type, name: "__tuple_impl<std::__1::__tuple_indices<0, 1>, std::__1::unique_ptr<std::__1::__thread_struct, std::__1::default_delete<std::__1::__thread_struct> >, void (*)()>", scope: !7, file: !20, line: 369, size: 128, elements: !25, templateParams: !675, identifier: "_ZTSNSt3__112__tuple_implINS_15__tuple_indicesIJLm0ELm1EEEEJNS_10unique_ptrINS_15__thread_structENS_14default_deleteIS4_EEEEPFvvEEEE")
!25 = !{!26, !612, !652, !656, !661, !665, !669, !672}
!26 = !DIDerivedType(tag: DW_TAG_inheritance, scope: !24, baseType: !27)
!27 = distinct !DICompositeType(tag: DW_TAG_class_type, name: "__tuple_leaf<0, std::__1::unique_ptr<std::__1::__thread_struct, std::__1::default_delete<std::__1::__thread_struct> >, false>", scope: !7, file: !20, line: 170, size: 64, elements: !28, templateParams: !608, identifier: "_ZTSNSt3__112__tuple_leafILm0ENS_10unique_ptrINS_15__thread_structENS_14default_deleteIS2_EEEELb0EEE")
!28 = !{!29, !580, !587, !590, !593, !597, !600, !603}
!29 = !DIDerivedType(tag: DW_TAG_member, name: "value", scope: !27, file: !20, line: 172, baseType: !30, size: 64)
!30 = distinct !DICompositeType(tag: DW_TAG_class_type, name: "unique_ptr<std::__1::__thread_struct, std::__1::default_delete<std::__1::__thread_struct> >", scope: !7, file: !31, line: 2334, size: 64, elements: !32, templateParams: !550, identifier: "_ZTSNSt3__110unique_ptrINS_15__thread_structENS_14default_deleteIS1_EEEE")
!31 = !DIFile(filename: "/Users/aser/Documents/LLVM/llvm-4.0/build/bin/../include/c++/v1/memory", directory: "/Users/aser/Dropbox/papers/C++11/Checker11/examples/mo_release_acquire3")
!32 = !{!33, !514, !519, !523, !526, !532, !544, !557, !558, !563, !568, !571, !574, !577}
!33 = !DIDerivedType(tag: DW_TAG_member, name: "__ptr_", scope: !30, file: !31, line: 2344, baseType: !34, size: 64)
!34 = distinct !DICompositeType(tag: DW_TAG_class_type, name: "__compressed_pair<std::__1::__thread_struct *, std::__1::default_delete<std::__1::__thread_struct> >", scope: !7, file: !31, line: 2144, size: 64, elements: !35, templateParams: !511, identifier: "_ZTSNSt3__117__compressed_pairIPNS_15__thread_structENS_14default_deleteIS1_EEEE")
!35 = !{!36, !455, !492, !496, !501, !504, !507}
!36 = !DIDerivedType(tag: DW_TAG_inheritance, scope: !34, baseType: !37)
!37 = distinct !DICompositeType(tag: DW_TAG_structure_type, name: "__compressed_pair_elem<std::__1::__thread_struct *, 0, false>", scope: !7, file: !31, line: 2076, size: 64, elements: !38, templateParams: !451, identifier: "_ZTSNSt3__122__compressed_pair_elemIPNS_15__thread_structELi0ELb0EEE")
!38 = !{!39, !434, !438, !443}
!39 = !DIDerivedType(tag: DW_TAG_member, name: "__value_", scope: !37, file: !31, line: 2105, baseType: !40, size: 64, flags: DIFlagPrivate)
!40 = !DIDerivedType(tag: DW_TAG_pointer_type, baseType: !41, size: 64)
!41 = distinct !DICompositeType(tag: DW_TAG_class_type, name: "__thread_struct", scope: !7, file: !42, line: 123, size: 64, elements: !43, identifier: "_ZTSNSt3__115__thread_structE")
!42 = !DIFile(filename: "/Users/aser/Documents/LLVM/llvm-4.0/build/bin/../include/c++/v1/thread", directory: "/Users/aser/Dropbox/papers/C++11/Checker11/examples/mo_release_acquire3")
!43 = !{!44, !47, !53, !57, !60, !61, !429}
!44 = !DIDerivedType(tag: DW_TAG_member, name: "__p_", scope: !41, file: !42, line: 125, baseType: !45, size: 64)
!45 = !DIDerivedType(tag: DW_TAG_pointer_type, baseType: !46, size: 64)
!46 = !DICompositeType(tag: DW_TAG_class_type, name: "__thread_struct_imp", scope: !7, file: !42, line: 118, flags: DIFlagFwdDecl, identifier: "_ZTSNSt3__119__thread_struct_impE")
!47 = !DISubprogram(name: "__thread_struct", scope: !41, file: !42, line: 127, type: !48, isLocal: false, isDefinition: false, scopeLine: 127, flags: DIFlagPrototyped, isOptimized: true)
!48 = !DISubroutineType(types: !49)
!49 = !{null, !50, !51}
!50 = !DIDerivedType(tag: DW_TAG_pointer_type, baseType: !41, size: 64, flags: DIFlagArtificial | DIFlagObjectPointer)
!51 = !DIDerivedType(tag: DW_TAG_reference_type, baseType: !52, size: 64)
!52 = !DIDerivedType(tag: DW_TAG_const_type, baseType: !41)
!53 = !DISubprogram(name: "operator=", linkageName: "_ZNSt3__115__thread_structaSERKS0_", scope: !41, file: !42, line: 128, type: !54, isLocal: false, isDefinition: false, scopeLine: 128, flags: DIFlagPrototyped, isOptimized: true)
!54 = !DISubroutineType(types: !55)
!55 = !{!56, !50, !51}
!56 = !DIDerivedType(tag: DW_TAG_reference_type, baseType: !41, size: 64)
!57 = !DISubprogram(name: "__thread_struct", scope: !41, file: !42, line: 130, type: !58, isLocal: false, isDefinition: false, scopeLine: 130, flags: DIFlagPublic | DIFlagPrototyped, isOptimized: true)
!58 = !DISubroutineType(types: !59)
!59 = !{null, !50}
!60 = !DISubprogram(name: "~__thread_struct", scope: !41, file: !42, line: 131, type: !58, isLocal: false, isDefinition: false, scopeLine: 131, flags: DIFlagPublic | DIFlagPrototyped, isOptimized: true)
!61 = !DISubprogram(name: "notify_all_at_thread_exit", linkageName: "_ZNSt3__115__thread_struct25notify_all_at_thread_exitEPNS_18condition_variableEPNS_5mutexE", scope: !41, file: !42, line: 133, type: !62, isLocal: false, isDefinition: false, scopeLine: 133, flags: DIFlagPublic | DIFlagPrototyped, isOptimized: true)
!62 = !DISubroutineType(types: !63)
!63 = !{null, !50, !64, !428}
!64 = !DIDerivedType(tag: DW_TAG_pointer_type, baseType: !65, size: 64)
!65 = distinct !DICompositeType(tag: DW_TAG_class_type, name: "condition_variable", scope: !7, file: !66, line: 281, size: 384, elements: !67, identifier: "_ZTSNSt3__118condition_variableE")
!66 = !DIFile(filename: "/Users/aser/Documents/LLVM/llvm-4.0/build/bin/../include/c++/v1/__mutex_base", directory: "/Users/aser/Dropbox/papers/C++11/Checker11/examples/mo_release_acquire3")
!67 = !{!68, !84, !88, !89, !94, !98, !99, !100, !207, !212}
!68 = !DIDerivedType(tag: DW_TAG_member, name: "__cv_", scope: !65, file: !66, line: 284, baseType: !69, size: 384)
!69 = !DIDerivedType(tag: DW_TAG_typedef, name: "__libcpp_condvar_t", scope: !7, file: !70, line: 59, baseType: !71)
!70 = !DIFile(filename: "/Users/aser/Documents/LLVM/llvm-4.0/build/bin/../include/c++/v1/__threading_support", directory: "/Users/aser/Dropbox/papers/C++11/Checker11/examples/mo_release_acquire3")
!71 = !DIDerivedType(tag: DW_TAG_typedef, name: "pthread_cond_t", file: !72, line: 30, baseType: !73)
!72 = !DIFile(filename: "/usr/include/sys/_pthread/_pthread_cond_t.h", directory: "/Users/aser/Dropbox/papers/C++11/Checker11/examples/mo_release_acquire3")
!73 = !DIDerivedType(tag: DW_TAG_typedef, name: "__darwin_pthread_cond_t", file: !74, line: 110, baseType: !75)
!74 = !DIFile(filename: "/usr/include/sys/_pthread/_pthread_types.h", directory: "/Users/aser/Dropbox/papers/C++11/Checker11/examples/mo_release_acquire3")
!75 = distinct !DICompositeType(tag: DW_TAG_structure_type, name: "_opaque_pthread_cond_t", file: !74, line: 68, size: 384, elements: !76, identifier: "_ZTS22_opaque_pthread_cond_t")
!76 = !{!77, !79}
!77 = !DIDerivedType(tag: DW_TAG_member, name: "__sig", scope: !75, file: !74, line: 69, baseType: !78, size: 64)
!78 = !DIBasicType(name: "long int", size: 64, encoding: DW_ATE_signed)
!79 = !DIDerivedType(tag: DW_TAG_member, name: "__opaque", scope: !75, file: !74, line: 70, baseType: !80, size: 320, offset: 64)
!80 = !DICompositeType(tag: DW_TAG_array_type, baseType: !81, size: 320, elements: !82)
!81 = !DIBasicType(name: "char", size: 8, encoding: DW_ATE_signed_char)
!82 = !{!83}
!83 = !DISubrange(count: 40)
!84 = !DISubprogram(name: "condition_variable", scope: !65, file: !66, line: 292, type: !85, isLocal: false, isDefinition: false, scopeLine: 292, flags: DIFlagPublic | DIFlagPrototyped, isOptimized: true)
!85 = !DISubroutineType(types: !86)
!86 = !{null, !87}
!87 = !DIDerivedType(tag: DW_TAG_pointer_type, baseType: !65, size: 64, flags: DIFlagArtificial | DIFlagObjectPointer)
!88 = !DISubprogram(name: "~condition_variable", scope: !65, file: !66, line: 296, type: !85, isLocal: false, isDefinition: false, scopeLine: 296, flags: DIFlagPublic | DIFlagPrototyped, isOptimized: true)
!89 = !DISubprogram(name: "condition_variable", scope: !65, file: !66, line: 299, type: !90, isLocal: false, isDefinition: false, scopeLine: 299, flags: DIFlagPrototyped, isOptimized: true)
!90 = !DISubroutineType(types: !91)
!91 = !{null, !87, !92}
!92 = !DIDerivedType(tag: DW_TAG_reference_type, baseType: !93, size: 64)
!93 = !DIDerivedType(tag: DW_TAG_const_type, baseType: !65)
!94 = !DISubprogram(name: "operator=", linkageName: "_ZNSt3__118condition_variableaSERKS0_", scope: !65, file: !66, line: 300, type: !95, isLocal: false, isDefinition: false, scopeLine: 300, flags: DIFlagPrototyped, isOptimized: true)
!95 = !DISubroutineType(types: !96)
!96 = !{!97, !87, !92}
!97 = !DIDerivedType(tag: DW_TAG_reference_type, baseType: !65, size: 64)
!98 = !DISubprogram(name: "notify_one", linkageName: "_ZNSt3__118condition_variable10notify_oneEv", scope: !65, file: !66, line: 303, type: !85, isLocal: false, isDefinition: false, scopeLine: 303, flags: DIFlagPublic | DIFlagPrototyped, isOptimized: true)
!99 = !DISubprogram(name: "notify_all", linkageName: "_ZNSt3__118condition_variable10notify_allEv", scope: !65, file: !66, line: 304, type: !85, isLocal: false, isDefinition: false, scopeLine: 304, flags: DIFlagPublic | DIFlagPrototyped, isOptimized: true)
!100 = !DISubprogram(name: "wait", linkageName: "_ZNSt3__118condition_variable4waitERNS_11unique_lockINS_5mutexEEE", scope: !65, file: !66, line: 306, type: !101, isLocal: false, isDefinition: false, scopeLine: 306, flags: DIFlagPublic | DIFlagPrototyped, isOptimized: true)
!101 = !DISubroutineType(types: !102)
!102 = !{null, !87, !103}
!103 = !DIDerivedType(tag: DW_TAG_reference_type, baseType: !104, size: 64)
!104 = distinct !DICompositeType(tag: DW_TAG_class_type, name: "unique_lock<std::__1::mutex>", scope: !7, file: !66, line: 110, size: 128, elements: !105, templateParams: !205, identifier: "_ZTSNSt3__111unique_lockINS_5mutexEEE")
!105 = !{!106, !148, !149, !153, !157, !162, !166, !170, !171, !176, !179, !183, !186, !187, !190, !191, !194, !197, !201, !202}
!106 = !DIDerivedType(tag: DW_TAG_member, name: "__m_", scope: !104, file: !66, line: 116, baseType: !107, size: 64)
!107 = !DIDerivedType(tag: DW_TAG_pointer_type, baseType: !108, size: 64)
!108 = !DIDerivedType(tag: DW_TAG_typedef, name: "mutex_type", scope: !104, file: !66, line: 113, baseType: !109)
!109 = distinct !DICompositeType(tag: DW_TAG_class_type, name: "mutex", scope: !7, file: !66, line: 36, size: 512, elements: !110, identifier: "_ZTSNSt3__15mutexE")
!110 = !{!111, !123, !127, !128, !133, !137, !138, !142, !143}
!111 = !DIDerivedType(tag: DW_TAG_member, name: "__m_", scope: !109, file: !66, line: 39, baseType: !112, size: 512)
!112 = !DIDerivedType(tag: DW_TAG_typedef, name: "__libcpp_mutex_t", scope: !7, file: !70, line: 53, baseType: !113)
!113 = !DIDerivedType(tag: DW_TAG_typedef, name: "pthread_mutex_t", file: !114, line: 30, baseType: !115)
!114 = !DIFile(filename: "/usr/include/sys/_pthread/_pthread_mutex_t.h", directory: "/Users/aser/Dropbox/papers/C++11/Checker11/examples/mo_release_acquire3")
!115 = !DIDerivedType(tag: DW_TAG_typedef, name: "__darwin_pthread_mutex_t", file: !74, line: 113, baseType: !116)
!116 = distinct !DICompositeType(tag: DW_TAG_structure_type, name: "_opaque_pthread_mutex_t", file: !74, line: 78, size: 512, elements: !117, identifier: "_ZTS23_opaque_pthread_mutex_t")
!117 = !{!118, !119}
!118 = !DIDerivedType(tag: DW_TAG_member, name: "__sig", scope: !116, file: !74, line: 79, baseType: !78, size: 64)
!119 = !DIDerivedType(tag: DW_TAG_member, name: "__opaque", scope: !116, file: !74, line: 80, baseType: !120, size: 448, offset: 64)
!120 = !DICompositeType(tag: DW_TAG_array_type, baseType: !81, size: 448, elements: !121)
!121 = !{!122}
!122 = !DISubrange(count: 56)
!123 = !DISubprogram(name: "mutex", scope: !109, file: !66, line: 47, type: !124, isLocal: false, isDefinition: false, scopeLine: 47, flags: DIFlagPublic | DIFlagPrototyped, isOptimized: true)
!124 = !DISubroutineType(types: !125)
!125 = !{null, !126}
!126 = !DIDerivedType(tag: DW_TAG_pointer_type, baseType: !109, size: 64, flags: DIFlagArtificial | DIFlagObjectPointer)
!127 = !DISubprogram(name: "~mutex", scope: !109, file: !66, line: 51, type: !124, isLocal: false, isDefinition: false, scopeLine: 51, flags: DIFlagPublic | DIFlagPrototyped, isOptimized: true)
!128 = !DISubprogram(name: "mutex", scope: !109, file: !66, line: 54, type: !129, isLocal: false, isDefinition: false, scopeLine: 54, flags: DIFlagPrototyped, isOptimized: true)
!129 = !DISubroutineType(types: !130)
!130 = !{null, !126, !131}
!131 = !DIDerivedType(tag: DW_TAG_reference_type, baseType: !132, size: 64)
!132 = !DIDerivedType(tag: DW_TAG_const_type, baseType: !109)
!133 = !DISubprogram(name: "operator=", linkageName: "_ZNSt3__15mutexaSERKS0_", scope: !109, file: !66, line: 55, type: !134, isLocal: false, isDefinition: false, scopeLine: 55, flags: DIFlagPrototyped, isOptimized: true)
!134 = !DISubroutineType(types: !135)
!135 = !{!136, !126, !131}
!136 = !DIDerivedType(tag: DW_TAG_reference_type, baseType: !109, size: 64)
!137 = !DISubprogram(name: "lock", linkageName: "_ZNSt3__15mutex4lockEv", scope: !109, file: !66, line: 58, type: !124, isLocal: false, isDefinition: false, scopeLine: 58, flags: DIFlagPublic | DIFlagPrototyped, isOptimized: true)
!138 = !DISubprogram(name: "try_lock", linkageName: "_ZNSt3__15mutex8try_lockEv", scope: !109, file: !66, line: 59, type: !139, isLocal: false, isDefinition: false, scopeLine: 59, flags: DIFlagPublic | DIFlagPrototyped, isOptimized: true)
!139 = !DISubroutineType(types: !140)
!140 = !{!141, !126}
!141 = !DIBasicType(name: "bool", size: 8, encoding: DW_ATE_boolean)
!142 = !DISubprogram(name: "unlock", linkageName: "_ZNSt3__15mutex6unlockEv", scope: !109, file: !66, line: 60, type: !124, isLocal: false, isDefinition: false, scopeLine: 60, flags: DIFlagPublic | DIFlagPrototyped, isOptimized: true)
!143 = !DISubprogram(name: "native_handle", linkageName: "_ZNSt3__15mutex13native_handleEv", scope: !109, file: !66, line: 63, type: !144, isLocal: false, isDefinition: false, scopeLine: 63, flags: DIFlagPublic | DIFlagPrototyped, isOptimized: true)
!144 = !DISubroutineType(types: !145)
!145 = !{!146, !126}
!146 = !DIDerivedType(tag: DW_TAG_typedef, name: "native_handle_type", scope: !109, file: !66, line: 62, baseType: !147)
!147 = !DIDerivedType(tag: DW_TAG_pointer_type, baseType: !112, size: 64)
!148 = !DIDerivedType(tag: DW_TAG_member, name: "__owns_", scope: !104, file: !66, line: 117, baseType: !141, size: 8, offset: 64)
!149 = !DISubprogram(name: "unique_lock", scope: !104, file: !66, line: 121, type: !150, isLocal: false, isDefinition: false, scopeLine: 121, flags: DIFlagPublic | DIFlagPrototyped, isOptimized: true)
!150 = !DISubroutineType(types: !151)
!151 = !{null, !152}
!152 = !DIDerivedType(tag: DW_TAG_pointer_type, baseType: !104, size: 64, flags: DIFlagArtificial | DIFlagObjectPointer)
!153 = !DISubprogram(name: "unique_lock", scope: !104, file: !66, line: 123, type: !154, isLocal: false, isDefinition: false, scopeLine: 123, flags: DIFlagPublic | DIFlagExplicit | DIFlagPrototyped, isOptimized: true)
!154 = !DISubroutineType(types: !155)
!155 = !{null, !152, !156}
!156 = !DIDerivedType(tag: DW_TAG_reference_type, baseType: !108, size: 64)
!157 = !DISubprogram(name: "unique_lock", scope: !104, file: !66, line: 126, type: !158, isLocal: false, isDefinition: false, scopeLine: 126, flags: DIFlagPublic | DIFlagPrototyped, isOptimized: true)
!158 = !DISubroutineType(types: !159)
!159 = !{null, !152, !156, !160}
!160 = distinct !DICompositeType(tag: DW_TAG_structure_type, name: "defer_lock_t", scope: !7, file: !66, line: 66, size: 8, elements: !161, identifier: "_ZTSNSt3__112defer_lock_tE")
!161 = !{}
!162 = !DISubprogram(name: "unique_lock", scope: !104, file: !66, line: 129, type: !163, isLocal: false, isDefinition: false, scopeLine: 129, flags: DIFlagPublic | DIFlagPrototyped, isOptimized: true)
!163 = !DISubroutineType(types: !164)
!164 = !{null, !152, !156, !165}
!165 = distinct !DICompositeType(tag: DW_TAG_structure_type, name: "try_to_lock_t", scope: !7, file: !66, line: 67, size: 8, elements: !161, identifier: "_ZTSNSt3__113try_to_lock_tE")
!166 = !DISubprogram(name: "unique_lock", scope: !104, file: !66, line: 132, type: !167, isLocal: false, isDefinition: false, scopeLine: 132, flags: DIFlagPublic | DIFlagPrototyped, isOptimized: true)
!167 = !DISubroutineType(types: !168)
!168 = !{null, !152, !156, !169}
!169 = distinct !DICompositeType(tag: DW_TAG_structure_type, name: "adopt_lock_t", scope: !7, file: !66, line: 68, size: 8, elements: !161, identifier: "_ZTSNSt3__112adopt_lock_tE")
!170 = !DISubprogram(name: "~unique_lock", scope: !104, file: !66, line: 143, type: !150, isLocal: false, isDefinition: false, scopeLine: 143, flags: DIFlagPublic | DIFlagPrototyped, isOptimized: true)
!171 = !DISubprogram(name: "unique_lock", scope: !104, file: !66, line: 150, type: !172, isLocal: false, isDefinition: false, scopeLine: 150, flags: DIFlagPrototyped, isOptimized: true)
!172 = !DISubroutineType(types: !173)
!173 = !{null, !152, !174}
!174 = !DIDerivedType(tag: DW_TAG_reference_type, baseType: !175, size: 64)
!175 = !DIDerivedType(tag: DW_TAG_const_type, baseType: !104)
!176 = !DISubprogram(name: "operator=", linkageName: "_ZNSt3__111unique_lockINS_5mutexEEaSERKS2_", scope: !104, file: !66, line: 151, type: !177, isLocal: false, isDefinition: false, scopeLine: 151, flags: DIFlagPrototyped, isOptimized: true)
!177 = !DISubroutineType(types: !178)
!178 = !{!103, !152, !174}
!179 = !DISubprogram(name: "unique_lock", scope: !104, file: !66, line: 156, type: !180, isLocal: false, isDefinition: false, scopeLine: 156, flags: DIFlagPublic | DIFlagPrototyped, isOptimized: true)
!180 = !DISubroutineType(types: !181)
!181 = !{null, !152, !182}
!182 = !DIDerivedType(tag: DW_TAG_rvalue_reference_type, baseType: !104, size: 64)
!183 = !DISubprogram(name: "operator=", linkageName: "_ZNSt3__111unique_lockINS_5mutexEEaSEOS2_", scope: !104, file: !66, line: 160, type: !184, isLocal: false, isDefinition: false, scopeLine: 160, flags: DIFlagPublic | DIFlagPrototyped, isOptimized: true)
!184 = !DISubroutineType(types: !185)
!185 = !{!103, !152, !182}
!186 = !DISubprogram(name: "lock", linkageName: "_ZNSt3__111unique_lockINS_5mutexEE4lockEv", scope: !104, file: !66, line: 173, type: !150, isLocal: false, isDefinition: false, scopeLine: 173, flags: DIFlagPublic | DIFlagPrototyped, isOptimized: true)
!187 = !DISubprogram(name: "try_lock", linkageName: "_ZNSt3__111unique_lockINS_5mutexEE8try_lockEv", scope: !104, file: !66, line: 174, type: !188, isLocal: false, isDefinition: false, scopeLine: 174, flags: DIFlagPublic | DIFlagPrototyped, isOptimized: true)
!188 = !DISubroutineType(types: !189)
!189 = !{!141, !152}
!190 = !DISubprogram(name: "unlock", linkageName: "_ZNSt3__111unique_lockINS_5mutexEE6unlockEv", scope: !104, file: !66, line: 181, type: !150, isLocal: false, isDefinition: false, scopeLine: 181, flags: DIFlagPublic | DIFlagPrototyped, isOptimized: true)
!191 = !DISubprogram(name: "swap", linkageName: "_ZNSt3__111unique_lockINS_5mutexEE4swapERS2_", scope: !104, file: !66, line: 184, type: !192, isLocal: false, isDefinition: false, scopeLine: 184, flags: DIFlagPublic | DIFlagPrototyped, isOptimized: true)
!192 = !DISubroutineType(types: !193)
!193 = !{null, !152, !103}
!194 = !DISubprogram(name: "release", linkageName: "_ZNSt3__111unique_lockINS_5mutexEE7releaseEv", scope: !104, file: !66, line: 190, type: !195, isLocal: false, isDefinition: false, scopeLine: 190, flags: DIFlagPublic | DIFlagPrototyped, isOptimized: true)
!195 = !DISubroutineType(types: !196)
!196 = !{!107, !152}
!197 = !DISubprogram(name: "owns_lock", linkageName: "_ZNKSt3__111unique_lockINS_5mutexEE9owns_lockEv", scope: !104, file: !66, line: 199, type: !198, isLocal: false, isDefinition: false, scopeLine: 199, flags: DIFlagPublic | DIFlagPrototyped, isOptimized: true)
!198 = !DISubroutineType(types: !199)
!199 = !{!141, !200}
!200 = !DIDerivedType(tag: DW_TAG_pointer_type, baseType: !175, size: 64, flags: DIFlagArtificial | DIFlagObjectPointer)
!201 = !DISubprogram(name: "operator bool", linkageName: "_ZNKSt3__111unique_lockINS_5mutexEEcvbEv", scope: !104, file: !66, line: 202, type: !198, isLocal: false, isDefinition: false, scopeLine: 202, flags: DIFlagPublic | DIFlagExplicit | DIFlagPrototyped, isOptimized: true)
!202 = !DISubprogram(name: "mutex", linkageName: "_ZNKSt3__111unique_lockINS_5mutexEE5mutexEv", scope: !104, file: !66, line: 204, type: !203, isLocal: false, isDefinition: false, scopeLine: 204, flags: DIFlagPublic | DIFlagPrototyped, isOptimized: true)
!203 = !DISubroutineType(types: !204)
!204 = !{!107, !200}
!205 = !{!206}
!206 = !DITemplateTypeParameter(name: "_Mutex", type: !109)
!207 = !DISubprogram(name: "native_handle", linkageName: "_ZNSt3__118condition_variable13native_handleEv", scope: !65, file: !66, line: 338, type: !208, isLocal: false, isDefinition: false, scopeLine: 338, flags: DIFlagPublic | DIFlagPrototyped, isOptimized: true)
!208 = !DISubroutineType(types: !209)
!209 = !{!210, !87}
!210 = !DIDerivedType(tag: DW_TAG_typedef, name: "native_handle_type", scope: !65, file: !66, line: 337, baseType: !211)
!211 = !DIDerivedType(tag: DW_TAG_pointer_type, baseType: !69, size: 64)
!212 = !DISubprogram(name: "__do_timed_wait", linkageName: "_ZNSt3__118condition_variable15__do_timed_waitERNS_11unique_lockINS_5mutexEEENS_6chrono10time_pointINS5_12system_clockENS5_8durationIxNS_5ratioILl1ELl1000000000EEEEEEE", scope: !65, file: !66, line: 341, type: !213, isLocal: false, isDefinition: false, scopeLine: 341, flags: DIFlagPrototyped, isOptimized: true)
!213 = !DISubroutineType(types: !214)
!214 = !{null, !87, !103, !215}
!215 = distinct !DICompositeType(tag: DW_TAG_class_type, name: "time_point<std::__1::chrono::system_clock, std::__1::chrono::duration<long long, std::__1::ratio<1, 1000000000> > >", scope: !217, file: !216, line: 831, size: 64, elements: !218, templateParams: !314, identifier: "_ZTSNSt3__16chrono10time_pointINS0_12system_clockENS0_8durationIxNS_5ratioILl1ELl1000000000EEEEEEE")
!216 = !DIFile(filename: "/Users/aser/Documents/LLVM/llvm-4.0/build/bin/../include/c++/v1/chrono", directory: "/Users/aser/Dropbox/papers/C++11/Checker11/examples/mo_release_acquire3")
!217 = !DINamespace(name: "chrono", scope: !7, file: !216, line: 316)
!218 = !{!219, !291, !295, !300, !305, !309, !310, !313}
!219 = !DIDerivedType(tag: DW_TAG_member, name: "__d_", scope: !215, file: !216, line: 841, baseType: !220, size: 64)
!220 = !DIDerivedType(tag: DW_TAG_typedef, name: "duration", scope: !215, file: !216, line: 837, baseType: !221)
!221 = distinct !DICompositeType(tag: DW_TAG_class_type, name: "duration<long long, std::__1::ratio<1, 1000000000> >", scope: !217, file: !216, line: 488, size: 64, elements: !222, templateParams: !273, identifier: "_ZTSNSt3__16chrono8durationIxNS_5ratioILl1ELl1000000000EEEEE")
!222 = !{!223, !226, !230, !235, !244, !245, !249, !253, !254, !255, !259, !260, !265, !266, !267, !268, !271, !272}
!223 = !DIDerivedType(tag: DW_TAG_member, name: "__rep_", scope: !221, file: !216, line: 528, baseType: !224, size: 64)
!224 = !DIDerivedType(tag: DW_TAG_typedef, name: "rep", scope: !221, file: !216, line: 525, baseType: !225)
!225 = !DIBasicType(name: "long long int", size: 64, encoding: DW_ATE_signed)
!226 = !DISubprogram(name: "duration", scope: !221, file: !216, line: 533, type: !227, isLocal: false, isDefinition: false, scopeLine: 533, flags: DIFlagPublic | DIFlagPrototyped, isOptimized: true)
!227 = !DISubroutineType(types: !228)
!228 = !{null, !229}
!229 = !DIDerivedType(tag: DW_TAG_pointer_type, baseType: !221, size: 64, flags: DIFlagArtificial | DIFlagObjectPointer)
!230 = !DISubprogram(name: "count", linkageName: "_ZNKSt3__16chrono8durationIxNS_5ratioILl1ELl1000000000EEEE5countEv", scope: !221, file: !216, line: 564, type: !231, isLocal: false, isDefinition: false, scopeLine: 564, flags: DIFlagPublic | DIFlagPrototyped, isOptimized: true)
!231 = !DISubroutineType(types: !232)
!232 = !{!224, !233}
!233 = !DIDerivedType(tag: DW_TAG_pointer_type, baseType: !234, size: 64, flags: DIFlagArtificial | DIFlagObjectPointer)
!234 = !DIDerivedType(tag: DW_TAG_const_type, baseType: !221)
!235 = !DISubprogram(name: "operator+", linkageName: "_ZNKSt3__16chrono8durationIxNS_5ratioILl1ELl1000000000EEEEpsEv", scope: !221, file: !216, line: 568, type: !236, isLocal: false, isDefinition: false, scopeLine: 568, flags: DIFlagPublic | DIFlagPrototyped, isOptimized: true)
!236 = !DISubroutineType(types: !237)
!237 = !{!238, !233}
!238 = !DIDerivedType(tag: DW_TAG_typedef, name: "type", scope: !239, file: !216, line: 343, baseType: !221)
!239 = distinct !DICompositeType(tag: DW_TAG_structure_type, name: "common_type<std::__1::chrono::duration<long long, std::__1::ratio<1, 1000000000> >, std::__1::chrono::duration<long long, std::__1::ratio<1, 1000000000> > >", scope: !7, file: !216, line: 339, size: 8, elements: !161, templateParams: !240, identifier: "_ZTSNSt3__111common_typeIJNS_6chrono8durationIxNS_5ratioILl1ELl1000000000EEEEES5_EEE")
!240 = !{!241}
!241 = !DITemplateValueParameter(tag: DW_TAG_GNU_template_parameter_pack, name: "_Tp", value: !242)
!242 = !{!243, !243}
!243 = !DITemplateTypeParameter(type: !221)
!244 = !DISubprogram(name: "operator-", linkageName: "_ZNKSt3__16chrono8durationIxNS_5ratioILl1ELl1000000000EEEEngEv", scope: !221, file: !216, line: 569, type: !236, isLocal: false, isDefinition: false, scopeLine: 569, flags: DIFlagPublic | DIFlagPrototyped, isOptimized: true)
!245 = !DISubprogram(name: "operator++", linkageName: "_ZNSt3__16chrono8durationIxNS_5ratioILl1ELl1000000000EEEEppEv", scope: !221, file: !216, line: 570, type: !246, isLocal: false, isDefinition: false, scopeLine: 570, flags: DIFlagPublic | DIFlagPrototyped, isOptimized: true)
!246 = !DISubroutineType(types: !247)
!247 = !{!248, !229}
!248 = !DIDerivedType(tag: DW_TAG_reference_type, baseType: !221, size: 64)
!249 = !DISubprogram(name: "operator++", linkageName: "_ZNSt3__16chrono8durationIxNS_5ratioILl1ELl1000000000EEEEppEi", scope: !221, file: !216, line: 571, type: !250, isLocal: false, isDefinition: false, scopeLine: 571, flags: DIFlagPublic | DIFlagPrototyped, isOptimized: true)
!250 = !DISubroutineType(types: !251)
!251 = !{!221, !229, !252}
!252 = !DIBasicType(name: "int", size: 32, encoding: DW_ATE_signed)
!253 = !DISubprogram(name: "operator--", linkageName: "_ZNSt3__16chrono8durationIxNS_5ratioILl1ELl1000000000EEEEmmEv", scope: !221, file: !216, line: 572, type: !246, isLocal: false, isDefinition: false, scopeLine: 572, flags: DIFlagPublic | DIFlagPrototyped, isOptimized: true)
!254 = !DISubprogram(name: "operator--", linkageName: "_ZNSt3__16chrono8durationIxNS_5ratioILl1ELl1000000000EEEEmmEi", scope: !221, file: !216, line: 573, type: !250, isLocal: false, isDefinition: false, scopeLine: 573, flags: DIFlagPublic | DIFlagPrototyped, isOptimized: true)
!255 = !DISubprogram(name: "operator+=", linkageName: "_ZNSt3__16chrono8durationIxNS_5ratioILl1ELl1000000000EEEEpLERKS4_", scope: !221, file: !216, line: 575, type: !256, isLocal: false, isDefinition: false, scopeLine: 575, flags: DIFlagPublic | DIFlagPrototyped, isOptimized: true)
!256 = !DISubroutineType(types: !257)
!257 = !{!248, !229, !258}
!258 = !DIDerivedType(tag: DW_TAG_reference_type, baseType: !234, size: 64)
!259 = !DISubprogram(name: "operator-=", linkageName: "_ZNSt3__16chrono8durationIxNS_5ratioILl1ELl1000000000EEEEmIERKS4_", scope: !221, file: !216, line: 576, type: !256, isLocal: false, isDefinition: false, scopeLine: 576, flags: DIFlagPublic | DIFlagPrototyped, isOptimized: true)
!260 = !DISubprogram(name: "operator*=", linkageName: "_ZNSt3__16chrono8durationIxNS_5ratioILl1ELl1000000000EEEEmLERKx", scope: !221, file: !216, line: 578, type: !261, isLocal: false, isDefinition: false, scopeLine: 578, flags: DIFlagPublic | DIFlagPrototyped, isOptimized: true)
!261 = !DISubroutineType(types: !262)
!262 = !{!248, !229, !263}
!263 = !DIDerivedType(tag: DW_TAG_reference_type, baseType: !264, size: 64)
!264 = !DIDerivedType(tag: DW_TAG_const_type, baseType: !224)
!265 = !DISubprogram(name: "operator/=", linkageName: "_ZNSt3__16chrono8durationIxNS_5ratioILl1ELl1000000000EEEEdVERKx", scope: !221, file: !216, line: 579, type: !261, isLocal: false, isDefinition: false, scopeLine: 579, flags: DIFlagPublic | DIFlagPrototyped, isOptimized: true)
!266 = !DISubprogram(name: "operator%=", linkageName: "_ZNSt3__16chrono8durationIxNS_5ratioILl1ELl1000000000EEEErMERKx", scope: !221, file: !216, line: 580, type: !261, isLocal: false, isDefinition: false, scopeLine: 580, flags: DIFlagPublic | DIFlagPrototyped, isOptimized: true)
!267 = !DISubprogram(name: "operator%=", linkageName: "_ZNSt3__16chrono8durationIxNS_5ratioILl1ELl1000000000EEEErMERKS4_", scope: !221, file: !216, line: 581, type: !256, isLocal: false, isDefinition: false, scopeLine: 581, flags: DIFlagPublic | DIFlagPrototyped, isOptimized: true)
!268 = !DISubprogram(name: "zero", linkageName: "_ZNSt3__16chrono8durationIxNS_5ratioILl1ELl1000000000EEEE4zeroEv", scope: !221, file: !216, line: 585, type: !269, isLocal: false, isDefinition: false, scopeLine: 585, flags: DIFlagPublic | DIFlagPrototyped, isOptimized: true)
!269 = !DISubroutineType(types: !270)
!270 = !{!221}
!271 = !DISubprogram(name: "min", linkageName: "_ZNSt3__16chrono8durationIxNS_5ratioILl1ELl1000000000EEEE3minEv", scope: !221, file: !216, line: 586, type: !269, isLocal: false, isDefinition: false, scopeLine: 586, flags: DIFlagPublic | DIFlagPrototyped, isOptimized: true)
!272 = !DISubprogram(name: "max", linkageName: "_ZNSt3__16chrono8durationIxNS_5ratioILl1ELl1000000000EEEE3maxEv", scope: !221, file: !216, line: 587, type: !269, isLocal: false, isDefinition: false, scopeLine: 587, flags: DIFlagPublic | DIFlagPrototyped, isOptimized: true)
!273 = !{!274, !275}
!274 = !DITemplateTypeParameter(name: "_Rep", type: !225)
!275 = !DITemplateTypeParameter(name: "_Period", type: !276)
!276 = distinct !DICompositeType(tag: DW_TAG_class_type, name: "ratio<1, 1000000000>", scope: !7, file: !277, line: 247, size: 8, elements: !278, templateParams: !288, identifier: "_ZTSNSt3__15ratioILl1ELl1000000000EEE")
!277 = !DIFile(filename: "/Users/aser/Documents/LLVM/llvm-4.0/build/bin/../include/c++/v1/ratio", directory: "/Users/aser/Dropbox/papers/C++11/Checker11/examples/mo_release_acquire3")
!278 = !{!279, !283, !284, !285, !286, !287}
!279 = !DIDerivedType(tag: DW_TAG_member, name: "__na", scope: !276, file: !277, line: 252, baseType: !280, flags: DIFlagStaticMember, extraData: i64 1)
!280 = !DIDerivedType(tag: DW_TAG_const_type, baseType: !281)
!281 = !DIDerivedType(tag: DW_TAG_typedef, name: "intmax_t", file: !282, line: 32, baseType: !78)
!282 = !DIFile(filename: "/usr/include/_types/_intmax_t.h", directory: "/Users/aser/Dropbox/papers/C++11/Checker11/examples/mo_release_acquire3")
!283 = !DIDerivedType(tag: DW_TAG_member, name: "__da", scope: !276, file: !277, line: 253, baseType: !280, flags: DIFlagStaticMember, extraData: i64 1000000000)
!284 = !DIDerivedType(tag: DW_TAG_member, name: "__s", scope: !276, file: !277, line: 254, baseType: !280, flags: DIFlagStaticMember, extraData: i64 1)
!285 = !DIDerivedType(tag: DW_TAG_member, name: "__gcd", scope: !276, file: !277, line: 255, baseType: !280, flags: DIFlagStaticMember, extraData: i64 1)
!286 = !DIDerivedType(tag: DW_TAG_member, name: "num", scope: !276, file: !277, line: 257, baseType: !280, flags: DIFlagPublic | DIFlagStaticMember, extraData: i64 1)
!287 = !DIDerivedType(tag: DW_TAG_member, name: "den", scope: !276, file: !277, line: 258, baseType: !280, flags: DIFlagPublic | DIFlagStaticMember, extraData: i64 1000000000)
!288 = !{!289, !290}
!289 = !DITemplateValueParameter(name: "_Num", type: !78, value: i64 1)
!290 = !DITemplateValueParameter(name: "_Den", type: !78, value: i64 1000000000)
!291 = !DISubprogram(name: "time_point", scope: !215, file: !216, line: 844, type: !292, isLocal: false, isDefinition: false, scopeLine: 844, flags: DIFlagPublic | DIFlagPrototyped, isOptimized: true)
!292 = !DISubroutineType(types: !293)
!293 = !{null, !294}
!294 = !DIDerivedType(tag: DW_TAG_pointer_type, baseType: !215, size: 64, flags: DIFlagArtificial | DIFlagObjectPointer)
!295 = !DISubprogram(name: "time_point", scope: !215, file: !216, line: 845, type: !296, isLocal: false, isDefinition: false, scopeLine: 845, flags: DIFlagPublic | DIFlagExplicit | DIFlagPrototyped, isOptimized: true)
!296 = !DISubroutineType(types: !297)
!297 = !{null, !294, !298}
!298 = !DIDerivedType(tag: DW_TAG_reference_type, baseType: !299, size: 64)
!299 = !DIDerivedType(tag: DW_TAG_const_type, baseType: !220)
!300 = !DISubprogram(name: "time_since_epoch", linkageName: "_ZNKSt3__16chrono10time_pointINS0_12system_clockENS0_8durationIxNS_5ratioILl1ELl1000000000EEEEEE16time_since_epochEv", scope: !215, file: !216, line: 859, type: !301, isLocal: false, isDefinition: false, scopeLine: 859, flags: DIFlagPublic | DIFlagPrototyped, isOptimized: true)
!301 = !DISubroutineType(types: !302)
!302 = !{!220, !303}
!303 = !DIDerivedType(tag: DW_TAG_pointer_type, baseType: !304, size: 64, flags: DIFlagArtificial | DIFlagObjectPointer)
!304 = !DIDerivedType(tag: DW_TAG_const_type, baseType: !215)
!305 = !DISubprogram(name: "operator+=", linkageName: "_ZNSt3__16chrono10time_pointINS0_12system_clockENS0_8durationIxNS_5ratioILl1ELl1000000000EEEEEEpLERKS6_", scope: !215, file: !216, line: 863, type: !306, isLocal: false, isDefinition: false, scopeLine: 863, flags: DIFlagPublic | DIFlagPrototyped, isOptimized: true)
!306 = !DISubroutineType(types: !307)
!307 = !{!308, !294, !298}
!308 = !DIDerivedType(tag: DW_TAG_reference_type, baseType: !215, size: 64)
!309 = !DISubprogram(name: "operator-=", linkageName: "_ZNSt3__16chrono10time_pointINS0_12system_clockENS0_8durationIxNS_5ratioILl1ELl1000000000EEEEEEmIERKS6_", scope: !215, file: !216, line: 864, type: !306, isLocal: false, isDefinition: false, scopeLine: 864, flags: DIFlagPublic | DIFlagPrototyped, isOptimized: true)
!310 = !DISubprogram(name: "min", linkageName: "_ZNSt3__16chrono10time_pointINS0_12system_clockENS0_8durationIxNS_5ratioILl1ELl1000000000EEEEEE3minEv", scope: !215, file: !216, line: 868, type: !311, isLocal: false, isDefinition: false, scopeLine: 868, flags: DIFlagPublic | DIFlagPrototyped, isOptimized: true)
!311 = !DISubroutineType(types: !312)
!312 = !{!215}
!313 = !DISubprogram(name: "max", linkageName: "_ZNSt3__16chrono10time_pointINS0_12system_clockENS0_8durationIxNS_5ratioILl1ELl1000000000EEEEEE3maxEv", scope: !215, file: !216, line: 869, type: !311, isLocal: false, isDefinition: false, scopeLine: 869, flags: DIFlagPublic | DIFlagPrototyped, isOptimized: true)
!314 = !{!315, !427}
!315 = !DITemplateTypeParameter(name: "_Clock", type: !316)
!316 = distinct !DICompositeType(tag: DW_TAG_class_type, name: "system_clock", scope: !217, file: !216, line: 1047, size: 8, elements: !317, identifier: "_ZTSNSt3__16chrono12system_clockE")
!317 = !{!318, !320, !415, !424}
!318 = !DIDerivedType(tag: DW_TAG_member, name: "is_steady", scope: !316, file: !216, line: 1054, baseType: !319, flags: DIFlagPublic | DIFlagStaticMember, extraData: i1 false)
!319 = !DIDerivedType(tag: DW_TAG_const_type, baseType: !141)
!320 = !DISubprogram(name: "now", linkageName: "_ZNSt3__16chrono12system_clock3nowEv", scope: !316, file: !216, line: 1056, type: !321, isLocal: false, isDefinition: false, scopeLine: 1056, flags: DIFlagPublic | DIFlagPrototyped, isOptimized: true)
!321 = !DISubroutineType(types: !322)
!322 = !{!323}
!323 = !DIDerivedType(tag: DW_TAG_typedef, name: "time_point", scope: !316, file: !216, line: 1053, baseType: !324)
!324 = distinct !DICompositeType(tag: DW_TAG_class_type, name: "time_point<std::__1::chrono::system_clock, std::__1::chrono::duration<long long, std::__1::ratio<1, 1000000> > >", scope: !217, file: !216, line: 831, size: 64, elements: !325, templateParams: !413, identifier: "_ZTSNSt3__16chrono10time_pointINS0_12system_clockENS0_8durationIxNS_5ratioILl1ELl1000000EEEEEEE")
!325 = !{!326, !390, !394, !399, !404, !408, !409, !412}
!326 = !DIDerivedType(tag: DW_TAG_member, name: "__d_", scope: !324, file: !216, line: 841, baseType: !327, size: 64)
!327 = !DIDerivedType(tag: DW_TAG_typedef, name: "duration", scope: !324, file: !216, line: 837, baseType: !328)
!328 = distinct !DICompositeType(tag: DW_TAG_class_type, name: "duration<long long, std::__1::ratio<1, 1000000> >", scope: !217, file: !216, line: 488, size: 64, elements: !329, templateParams: !378, identifier: "_ZTSNSt3__16chrono8durationIxNS_5ratioILl1ELl1000000EEEEE")
!329 = !{!330, !332, !336, !341, !350, !351, !355, !358, !359, !360, !364, !365, !370, !371, !372, !373, !376, !377}
!330 = !DIDerivedType(tag: DW_TAG_member, name: "__rep_", scope: !328, file: !216, line: 528, baseType: !331, size: 64)
!331 = !DIDerivedType(tag: DW_TAG_typedef, name: "rep", scope: !328, file: !216, line: 525, baseType: !225)
!332 = !DISubprogram(name: "duration", scope: !328, file: !216, line: 533, type: !333, isLocal: false, isDefinition: false, scopeLine: 533, flags: DIFlagPublic | DIFlagPrototyped, isOptimized: true)
!333 = !DISubroutineType(types: !334)
!334 = !{null, !335}
!335 = !DIDerivedType(tag: DW_TAG_pointer_type, baseType: !328, size: 64, flags: DIFlagArtificial | DIFlagObjectPointer)
!336 = !DISubprogram(name: "count", linkageName: "_ZNKSt3__16chrono8durationIxNS_5ratioILl1ELl1000000EEEE5countEv", scope: !328, file: !216, line: 564, type: !337, isLocal: false, isDefinition: false, scopeLine: 564, flags: DIFlagPublic | DIFlagPrototyped, isOptimized: true)
!337 = !DISubroutineType(types: !338)
!338 = !{!331, !339}
!339 = !DIDerivedType(tag: DW_TAG_pointer_type, baseType: !340, size: 64, flags: DIFlagArtificial | DIFlagObjectPointer)
!340 = !DIDerivedType(tag: DW_TAG_const_type, baseType: !328)
!341 = !DISubprogram(name: "operator+", linkageName: "_ZNKSt3__16chrono8durationIxNS_5ratioILl1ELl1000000EEEEpsEv", scope: !328, file: !216, line: 568, type: !342, isLocal: false, isDefinition: false, scopeLine: 568, flags: DIFlagPublic | DIFlagPrototyped, isOptimized: true)
!342 = !DISubroutineType(types: !343)
!343 = !{!344, !339}
!344 = !DIDerivedType(tag: DW_TAG_typedef, name: "type", scope: !345, file: !216, line: 343, baseType: !328)
!345 = distinct !DICompositeType(tag: DW_TAG_structure_type, name: "common_type<std::__1::chrono::duration<long long, std::__1::ratio<1, 1000000> >, std::__1::chrono::duration<long long, std::__1::ratio<1, 1000000> > >", scope: !7, file: !216, line: 339, size: 8, elements: !161, templateParams: !346, identifier: "_ZTSNSt3__111common_typeIJNS_6chrono8durationIxNS_5ratioILl1ELl1000000EEEEES5_EEE")
!346 = !{!347}
!347 = !DITemplateValueParameter(tag: DW_TAG_GNU_template_parameter_pack, name: "_Tp", value: !348)
!348 = !{!349, !349}
!349 = !DITemplateTypeParameter(type: !328)
!350 = !DISubprogram(name: "operator-", linkageName: "_ZNKSt3__16chrono8durationIxNS_5ratioILl1ELl1000000EEEEngEv", scope: !328, file: !216, line: 569, type: !342, isLocal: false, isDefinition: false, scopeLine: 569, flags: DIFlagPublic | DIFlagPrototyped, isOptimized: true)
!351 = !DISubprogram(name: "operator++", linkageName: "_ZNSt3__16chrono8durationIxNS_5ratioILl1ELl1000000EEEEppEv", scope: !328, file: !216, line: 570, type: !352, isLocal: false, isDefinition: false, scopeLine: 570, flags: DIFlagPublic | DIFlagPrototyped, isOptimized: true)
!352 = !DISubroutineType(types: !353)
!353 = !{!354, !335}
!354 = !DIDerivedType(tag: DW_TAG_reference_type, baseType: !328, size: 64)
!355 = !DISubprogram(name: "operator++", linkageName: "_ZNSt3__16chrono8durationIxNS_5ratioILl1ELl1000000EEEEppEi", scope: !328, file: !216, line: 571, type: !356, isLocal: false, isDefinition: false, scopeLine: 571, flags: DIFlagPublic | DIFlagPrototyped, isOptimized: true)
!356 = !DISubroutineType(types: !357)
!357 = !{!328, !335, !252}
!358 = !DISubprogram(name: "operator--", linkageName: "_ZNSt3__16chrono8durationIxNS_5ratioILl1ELl1000000EEEEmmEv", scope: !328, file: !216, line: 572, type: !352, isLocal: false, isDefinition: false, scopeLine: 572, flags: DIFlagPublic | DIFlagPrototyped, isOptimized: true)
!359 = !DISubprogram(name: "operator--", linkageName: "_ZNSt3__16chrono8durationIxNS_5ratioILl1ELl1000000EEEEmmEi", scope: !328, file: !216, line: 573, type: !356, isLocal: false, isDefinition: false, scopeLine: 573, flags: DIFlagPublic | DIFlagPrototyped, isOptimized: true)
!360 = !DISubprogram(name: "operator+=", linkageName: "_ZNSt3__16chrono8durationIxNS_5ratioILl1ELl1000000EEEEpLERKS4_", scope: !328, file: !216, line: 575, type: !361, isLocal: false, isDefinition: false, scopeLine: 575, flags: DIFlagPublic | DIFlagPrototyped, isOptimized: true)
!361 = !DISubroutineType(types: !362)
!362 = !{!354, !335, !363}
!363 = !DIDerivedType(tag: DW_TAG_reference_type, baseType: !340, size: 64)
!364 = !DISubprogram(name: "operator-=", linkageName: "_ZNSt3__16chrono8durationIxNS_5ratioILl1ELl1000000EEEEmIERKS4_", scope: !328, file: !216, line: 576, type: !361, isLocal: false, isDefinition: false, scopeLine: 576, flags: DIFlagPublic | DIFlagPrototyped, isOptimized: true)
!365 = !DISubprogram(name: "operator*=", linkageName: "_ZNSt3__16chrono8durationIxNS_5ratioILl1ELl1000000EEEEmLERKx", scope: !328, file: !216, line: 578, type: !366, isLocal: false, isDefinition: false, scopeLine: 578, flags: DIFlagPublic | DIFlagPrototyped, isOptimized: true)
!366 = !DISubroutineType(types: !367)
!367 = !{!354, !335, !368}
!368 = !DIDerivedType(tag: DW_TAG_reference_type, baseType: !369, size: 64)
!369 = !DIDerivedType(tag: DW_TAG_const_type, baseType: !331)
!370 = !DISubprogram(name: "operator/=", linkageName: "_ZNSt3__16chrono8durationIxNS_5ratioILl1ELl1000000EEEEdVERKx", scope: !328, file: !216, line: 579, type: !366, isLocal: false, isDefinition: false, scopeLine: 579, flags: DIFlagPublic | DIFlagPrototyped, isOptimized: true)
!371 = !DISubprogram(name: "operator%=", linkageName: "_ZNSt3__16chrono8durationIxNS_5ratioILl1ELl1000000EEEErMERKx", scope: !328, file: !216, line: 580, type: !366, isLocal: false, isDefinition: false, scopeLine: 580, flags: DIFlagPublic | DIFlagPrototyped, isOptimized: true)
!372 = !DISubprogram(name: "operator%=", linkageName: "_ZNSt3__16chrono8durationIxNS_5ratioILl1ELl1000000EEEErMERKS4_", scope: !328, file: !216, line: 581, type: !361, isLocal: false, isDefinition: false, scopeLine: 581, flags: DIFlagPublic | DIFlagPrototyped, isOptimized: true)
!373 = !DISubprogram(name: "zero", linkageName: "_ZNSt3__16chrono8durationIxNS_5ratioILl1ELl1000000EEEE4zeroEv", scope: !328, file: !216, line: 585, type: !374, isLocal: false, isDefinition: false, scopeLine: 585, flags: DIFlagPublic | DIFlagPrototyped, isOptimized: true)
!374 = !DISubroutineType(types: !375)
!375 = !{!328}
!376 = !DISubprogram(name: "min", linkageName: "_ZNSt3__16chrono8durationIxNS_5ratioILl1ELl1000000EEEE3minEv", scope: !328, file: !216, line: 586, type: !374, isLocal: false, isDefinition: false, scopeLine: 586, flags: DIFlagPublic | DIFlagPrototyped, isOptimized: true)
!377 = !DISubprogram(name: "max", linkageName: "_ZNSt3__16chrono8durationIxNS_5ratioILl1ELl1000000EEEE3maxEv", scope: !328, file: !216, line: 587, type: !374, isLocal: false, isDefinition: false, scopeLine: 587, flags: DIFlagPublic | DIFlagPrototyped, isOptimized: true)
!378 = !{!274, !379}
!379 = !DITemplateTypeParameter(name: "_Period", type: !380)
!380 = distinct !DICompositeType(tag: DW_TAG_class_type, name: "ratio<1, 1000000>", scope: !7, file: !277, line: 247, size: 8, elements: !381, templateParams: !388, identifier: "_ZTSNSt3__15ratioILl1ELl1000000EEE")
!381 = !{!382, !383, !384, !385, !386, !387}
!382 = !DIDerivedType(tag: DW_TAG_member, name: "__na", scope: !380, file: !277, line: 252, baseType: !280, flags: DIFlagStaticMember, extraData: i64 1)
!383 = !DIDerivedType(tag: DW_TAG_member, name: "__da", scope: !380, file: !277, line: 253, baseType: !280, flags: DIFlagStaticMember, extraData: i64 1000000)
!384 = !DIDerivedType(tag: DW_TAG_member, name: "__s", scope: !380, file: !277, line: 254, baseType: !280, flags: DIFlagStaticMember, extraData: i64 1)
!385 = !DIDerivedType(tag: DW_TAG_member, name: "__gcd", scope: !380, file: !277, line: 255, baseType: !280, flags: DIFlagStaticMember, extraData: i64 1)
!386 = !DIDerivedType(tag: DW_TAG_member, name: "num", scope: !380, file: !277, line: 257, baseType: !280, flags: DIFlagPublic | DIFlagStaticMember, extraData: i64 1)
!387 = !DIDerivedType(tag: DW_TAG_member, name: "den", scope: !380, file: !277, line: 258, baseType: !280, flags: DIFlagPublic | DIFlagStaticMember, extraData: i64 1000000)
!388 = !{!289, !389}
!389 = !DITemplateValueParameter(name: "_Den", type: !78, value: i64 1000000)
!390 = !DISubprogram(name: "time_point", scope: !324, file: !216, line: 844, type: !391, isLocal: false, isDefinition: false, scopeLine: 844, flags: DIFlagPublic | DIFlagPrototyped, isOptimized: true)
!391 = !DISubroutineType(types: !392)
!392 = !{null, !393}
!393 = !DIDerivedType(tag: DW_TAG_pointer_type, baseType: !324, size: 64, flags: DIFlagArtificial | DIFlagObjectPointer)
!394 = !DISubprogram(name: "time_point", scope: !324, file: !216, line: 845, type: !395, isLocal: false, isDefinition: false, scopeLine: 845, flags: DIFlagPublic | DIFlagExplicit | DIFlagPrototyped, isOptimized: true)
!395 = !DISubroutineType(types: !396)
!396 = !{null, !393, !397}
!397 = !DIDerivedType(tag: DW_TAG_reference_type, baseType: !398, size: 64)
!398 = !DIDerivedType(tag: DW_TAG_const_type, baseType: !327)
!399 = !DISubprogram(name: "time_since_epoch", linkageName: "_ZNKSt3__16chrono10time_pointINS0_12system_clockENS0_8durationIxNS_5ratioILl1ELl1000000EEEEEE16time_since_epochEv", scope: !324, file: !216, line: 859, type: !400, isLocal: false, isDefinition: false, scopeLine: 859, flags: DIFlagPublic | DIFlagPrototyped, isOptimized: true)
!400 = !DISubroutineType(types: !401)
!401 = !{!327, !402}
!402 = !DIDerivedType(tag: DW_TAG_pointer_type, baseType: !403, size: 64, flags: DIFlagArtificial | DIFlagObjectPointer)
!403 = !DIDerivedType(tag: DW_TAG_const_type, baseType: !324)
!404 = !DISubprogram(name: "operator+=", linkageName: "_ZNSt3__16chrono10time_pointINS0_12system_clockENS0_8durationIxNS_5ratioILl1ELl1000000EEEEEEpLERKS6_", scope: !324, file: !216, line: 863, type: !405, isLocal: false, isDefinition: false, scopeLine: 863, flags: DIFlagPublic | DIFlagPrototyped, isOptimized: true)
!405 = !DISubroutineType(types: !406)
!406 = !{!407, !393, !397}
!407 = !DIDerivedType(tag: DW_TAG_reference_type, baseType: !324, size: 64)
!408 = !DISubprogram(name: "operator-=", linkageName: "_ZNSt3__16chrono10time_pointINS0_12system_clockENS0_8durationIxNS_5ratioILl1ELl1000000EEEEEEmIERKS6_", scope: !324, file: !216, line: 864, type: !405, isLocal: false, isDefinition: false, scopeLine: 864, flags: DIFlagPublic | DIFlagPrototyped, isOptimized: true)
!409 = !DISubprogram(name: "min", linkageName: "_ZNSt3__16chrono10time_pointINS0_12system_clockENS0_8durationIxNS_5ratioILl1ELl1000000EEEEEE3minEv", scope: !324, file: !216, line: 868, type: !410, isLocal: false, isDefinition: false, scopeLine: 868, flags: DIFlagPublic | DIFlagPrototyped, isOptimized: true)
!410 = !DISubroutineType(types: !411)
!411 = !{!324}
!412 = !DISubprogram(name: "max", linkageName: "_ZNSt3__16chrono10time_pointINS0_12system_clockENS0_8durationIxNS_5ratioILl1ELl1000000EEEEEE3maxEv", scope: !324, file: !216, line: 869, type: !410, isLocal: false, isDefinition: false, scopeLine: 869, flags: DIFlagPublic | DIFlagPrototyped, isOptimized: true)
!413 = !{!315, !414}
!414 = !DITemplateTypeParameter(name: "_Duration", type: !328)
!415 = !DISubprogram(name: "to_time_t", linkageName: "_ZNSt3__16chrono12system_clock9to_time_tERKNS0_10time_pointIS1_NS0_8durationIxNS_5ratioILl1ELl1000000EEEEEEE", scope: !316, file: !216, line: 1057, type: !416, isLocal: false, isDefinition: false, scopeLine: 1057, flags: DIFlagPublic | DIFlagPrototyped, isOptimized: true)
!416 = !DISubroutineType(types: !417)
!417 = !{!418, !422}
!418 = !DIDerivedType(tag: DW_TAG_typedef, name: "time_t", file: !419, line: 30, baseType: !420)
!419 = !DIFile(filename: "/usr/include/sys/_types/_time_t.h", directory: "/Users/aser/Dropbox/papers/C++11/Checker11/examples/mo_release_acquire3")
!420 = !DIDerivedType(tag: DW_TAG_typedef, name: "__darwin_time_t", file: !421, line: 120, baseType: !78)
!421 = !DIFile(filename: "/usr/include/i386/_types.h", directory: "/Users/aser/Dropbox/papers/C++11/Checker11/examples/mo_release_acquire3")
!422 = !DIDerivedType(tag: DW_TAG_reference_type, baseType: !423, size: 64)
!423 = !DIDerivedType(tag: DW_TAG_const_type, baseType: !323)
!424 = !DISubprogram(name: "from_time_t", linkageName: "_ZNSt3__16chrono12system_clock11from_time_tEl", scope: !316, file: !216, line: 1058, type: !425, isLocal: false, isDefinition: false, scopeLine: 1058, flags: DIFlagPublic | DIFlagPrototyped, isOptimized: true)
!425 = !DISubroutineType(types: !426)
!426 = !{!323, !418}
!427 = !DITemplateTypeParameter(name: "_Duration", type: !221)
!428 = !DIDerivedType(tag: DW_TAG_pointer_type, baseType: !109, size: 64)
!429 = !DISubprogram(name: "__make_ready_at_thread_exit", linkageName: "_ZNSt3__115__thread_struct27__make_ready_at_thread_exitEPNS_17__assoc_sub_stateE", scope: !41, file: !42, line: 134, type: !430, isLocal: false, isDefinition: false, scopeLine: 134, flags: DIFlagPublic | DIFlagPrototyped, isOptimized: true)
!430 = !DISubroutineType(types: !431)
!431 = !{null, !50, !432}
!432 = !DIDerivedType(tag: DW_TAG_pointer_type, baseType: !433, size: 64)
!433 = !DICompositeType(tag: DW_TAG_class_type, name: "__assoc_sub_state", scope: !7, file: !42, line: 119, flags: DIFlagFwdDecl, identifier: "_ZTSNSt3__117__assoc_sub_stateE")
!434 = !DISubprogram(name: "__compressed_pair_elem", scope: !37, file: !31, line: 2082, type: !435, isLocal: false, isDefinition: false, scopeLine: 2082, flags: DIFlagPrototyped, isOptimized: true)
!435 = !DISubroutineType(types: !436)
!436 = !{null, !437}
!437 = !DIDerivedType(tag: DW_TAG_pointer_type, baseType: !37, size: 64, flags: DIFlagArtificial | DIFlagObjectPointer)
!438 = !DISubprogram(name: "__get", linkageName: "_ZNSt3__122__compressed_pair_elemIPNS_15__thread_structELi0ELb0EE5__getEv", scope: !37, file: !31, line: 2101, type: !439, isLocal: false, isDefinition: false, scopeLine: 2101, flags: DIFlagPrototyped, isOptimized: true)
!439 = !DISubroutineType(types: !440)
!440 = !{!441, !437}
!441 = !DIDerivedType(tag: DW_TAG_typedef, name: "reference", scope: !37, file: !31, line: 2078, baseType: !442)
!442 = !DIDerivedType(tag: DW_TAG_reference_type, baseType: !40, size: 64)
!443 = !DISubprogram(name: "__get", linkageName: "_ZNKSt3__122__compressed_pair_elemIPNS_15__thread_structELi0ELb0EE5__getEv", scope: !37, file: !31, line: 2102, type: !444, isLocal: false, isDefinition: false, scopeLine: 2102, flags: DIFlagPrototyped, isOptimized: true)
!444 = !DISubroutineType(types: !445)
!445 = !{!446, !449}
!446 = !DIDerivedType(tag: DW_TAG_typedef, name: "const_reference", scope: !37, file: !31, line: 2079, baseType: !447)
!447 = !DIDerivedType(tag: DW_TAG_reference_type, baseType: !448, size: 64)
!448 = !DIDerivedType(tag: DW_TAG_const_type, baseType: !40)
!449 = !DIDerivedType(tag: DW_TAG_pointer_type, baseType: !450, size: 64, flags: DIFlagArtificial | DIFlagObjectPointer)
!450 = !DIDerivedType(tag: DW_TAG_const_type, baseType: !37)
!451 = !{!452, !453, !454}
!452 = !DITemplateTypeParameter(name: "_Tp", type: !40)
!453 = !DITemplateValueParameter(name: "_Idx", type: !252, value: i32 0)
!454 = !DITemplateValueParameter(name: "_CanBeEmptyBase", type: !141, value: i8 0)
!455 = !DIDerivedType(tag: DW_TAG_inheritance, scope: !34, baseType: !456)
!456 = distinct !DICompositeType(tag: DW_TAG_structure_type, name: "__compressed_pair_elem<std::__1::default_delete<std::__1::__thread_struct>, 1, true>", scope: !7, file: !31, line: 2109, size: 8, elements: !457, templateParams: !488, identifier: "_ZTSNSt3__122__compressed_pair_elemINS_14default_deleteINS_15__thread_structEEELi1ELb1EEE")
!457 = !{!458, !472, !476, !481}
!458 = !DIDerivedType(tag: DW_TAG_inheritance, scope: !456, baseType: !459, flags: DIFlagPrivate)
!459 = distinct !DICompositeType(tag: DW_TAG_structure_type, name: "default_delete<std::__1::__thread_struct>", scope: !7, file: !31, line: 2253, size: 8, elements: !460, templateParams: !470, identifier: "_ZTSNSt3__114default_deleteINS_15__thread_structEEE")
!460 = !{!461, !465}
!461 = !DISubprogram(name: "default_delete", scope: !459, file: !31, line: 2257, type: !462, isLocal: false, isDefinition: false, scopeLine: 2257, flags: DIFlagPrototyped, isOptimized: true)
!462 = !DISubroutineType(types: !463)
!463 = !{null, !464}
!464 = !DIDerivedType(tag: DW_TAG_pointer_type, baseType: !459, size: 64, flags: DIFlagArtificial | DIFlagObjectPointer)
!465 = !DISubprogram(name: "operator()", linkageName: "_ZNKSt3__114default_deleteINS_15__thread_structEEclEPS1_", scope: !459, file: !31, line: 2267, type: !466, isLocal: false, isDefinition: false, scopeLine: 2267, flags: DIFlagPrototyped, isOptimized: true)
!466 = !DISubroutineType(types: !467)
!467 = !{null, !468, !40}
!468 = !DIDerivedType(tag: DW_TAG_pointer_type, baseType: !469, size: 64, flags: DIFlagArtificial | DIFlagObjectPointer)
!469 = !DIDerivedType(tag: DW_TAG_const_type, baseType: !459)
!470 = !{!471}
!471 = !DITemplateTypeParameter(name: "_Tp", type: !41)
!472 = !DISubprogram(name: "__compressed_pair_elem", scope: !456, file: !31, line: 2116, type: !473, isLocal: false, isDefinition: false, scopeLine: 2116, flags: DIFlagPrototyped, isOptimized: true)
!473 = !DISubroutineType(types: !474)
!474 = !{null, !475}
!475 = !DIDerivedType(tag: DW_TAG_pointer_type, baseType: !456, size: 64, flags: DIFlagArtificial | DIFlagObjectPointer)
!476 = !DISubprogram(name: "__get", linkageName: "_ZNSt3__122__compressed_pair_elemINS_14default_deleteINS_15__thread_structEEELi1ELb1EE5__getEv", scope: !456, file: !31, line: 2136, type: !477, isLocal: false, isDefinition: false, scopeLine: 2136, flags: DIFlagPrototyped, isOptimized: true)
!477 = !DISubroutineType(types: !478)
!478 = !{!479, !475}
!479 = !DIDerivedType(tag: DW_TAG_typedef, name: "reference", scope: !456, file: !31, line: 2111, baseType: !480)
!480 = !DIDerivedType(tag: DW_TAG_reference_type, baseType: !459, size: 64)
!481 = !DISubprogram(name: "__get", linkageName: "_ZNKSt3__122__compressed_pair_elemINS_14default_deleteINS_15__thread_structEEELi1ELb1EE5__getEv", scope: !456, file: !31, line: 2137, type: !482, isLocal: false, isDefinition: false, scopeLine: 2137, flags: DIFlagPrototyped, isOptimized: true)
!482 = !DISubroutineType(types: !483)
!483 = !{!484, !486}
!484 = !DIDerivedType(tag: DW_TAG_typedef, name: "const_reference", scope: !456, file: !31, line: 2112, baseType: !485)
!485 = !DIDerivedType(tag: DW_TAG_reference_type, baseType: !469, size: 64)
!486 = !DIDerivedType(tag: DW_TAG_pointer_type, baseType: !487, size: 64, flags: DIFlagArtificial | DIFlagObjectPointer)
!487 = !DIDerivedType(tag: DW_TAG_const_type, baseType: !456)
!488 = !{!489, !490, !491}
!489 = !DITemplateTypeParameter(name: "_Tp", type: !459)
!490 = !DITemplateValueParameter(name: "_Idx", type: !252, value: i32 1)
!491 = !DITemplateValueParameter(name: "_CanBeEmptyBase", type: !141, value: i8 1)
!492 = !DISubprogram(name: "first", linkageName: "_ZNSt3__117__compressed_pairIPNS_15__thread_structENS_14default_deleteIS1_EEE5firstEv", scope: !34, file: !31, line: 2212, type: !493, isLocal: false, isDefinition: false, scopeLine: 2212, flags: DIFlagPublic | DIFlagPrototyped, isOptimized: true)
!493 = !DISubroutineType(types: !494)
!494 = !{!441, !495}
!495 = !DIDerivedType(tag: DW_TAG_pointer_type, baseType: !34, size: 64, flags: DIFlagArtificial | DIFlagObjectPointer)
!496 = !DISubprogram(name: "first", linkageName: "_ZNKSt3__117__compressed_pairIPNS_15__thread_structENS_14default_deleteIS1_EEE5firstEv", scope: !34, file: !31, line: 2217, type: !497, isLocal: false, isDefinition: false, scopeLine: 2217, flags: DIFlagPublic | DIFlagPrototyped, isOptimized: true)
!497 = !DISubroutineType(types: !498)
!498 = !{!446, !499}
!499 = !DIDerivedType(tag: DW_TAG_pointer_type, baseType: !500, size: 64, flags: DIFlagArtificial | DIFlagObjectPointer)
!500 = !DIDerivedType(tag: DW_TAG_const_type, baseType: !34)
!501 = !DISubprogram(name: "second", linkageName: "_ZNSt3__117__compressed_pairIPNS_15__thread_structENS_14default_deleteIS1_EEE6secondEv", scope: !34, file: !31, line: 2222, type: !502, isLocal: false, isDefinition: false, scopeLine: 2222, flags: DIFlagPublic | DIFlagPrototyped, isOptimized: true)
!502 = !DISubroutineType(types: !503)
!503 = !{!479, !495}
!504 = !DISubprogram(name: "second", linkageName: "_ZNKSt3__117__compressed_pairIPNS_15__thread_structENS_14default_deleteIS1_EEE6secondEv", scope: !34, file: !31, line: 2227, type: !505, isLocal: false, isDefinition: false, scopeLine: 2227, flags: DIFlagPublic | DIFlagPrototyped, isOptimized: true)
!505 = !DISubroutineType(types: !506)
!506 = !{!484, !499}
!507 = !DISubprogram(name: "swap", linkageName: "_ZNSt3__117__compressed_pairIPNS_15__thread_structENS_14default_deleteIS1_EEE4swapERS5_", scope: !34, file: !31, line: 2232, type: !508, isLocal: false, isDefinition: false, scopeLine: 2232, flags: DIFlagPublic | DIFlagPrototyped, isOptimized: true)
!508 = !DISubroutineType(types: !509)
!509 = !{null, !495, !510}
!510 = !DIDerivedType(tag: DW_TAG_reference_type, baseType: !34, size: 64)
!511 = !{!512, !513}
!512 = !DITemplateTypeParameter(name: "_T1", type: !40)
!513 = !DITemplateTypeParameter(name: "_T2", type: !459)
!514 = !DISubprogram(name: "unique_ptr", scope: !30, file: !31, line: 2427, type: !515, isLocal: false, isDefinition: false, scopeLine: 2427, flags: DIFlagPublic | DIFlagPrototyped, isOptimized: true)
!515 = !DISubroutineType(types: !516)
!516 = !{null, !517, !518}
!517 = !DIDerivedType(tag: DW_TAG_pointer_type, baseType: !30, size: 64, flags: DIFlagArtificial | DIFlagObjectPointer)
!518 = !DIDerivedType(tag: DW_TAG_rvalue_reference_type, baseType: !30, size: 64)
!519 = !DISubprogram(name: "operator=", linkageName: "_ZNSt3__110unique_ptrINS_15__thread_structENS_14default_deleteIS1_EEEaSEOS4_", scope: !30, file: !31, line: 2450, type: !520, isLocal: false, isDefinition: false, scopeLine: 2450, flags: DIFlagPublic | DIFlagPrototyped, isOptimized: true)
!520 = !DISubroutineType(types: !521)
!521 = !{!522, !517, !518}
!522 = !DIDerivedType(tag: DW_TAG_reference_type, baseType: !30, size: 64)
!523 = !DISubprogram(name: "~unique_ptr", scope: !30, file: !31, line: 2539, type: !524, isLocal: false, isDefinition: false, scopeLine: 2539, flags: DIFlagPublic | DIFlagPrototyped, isOptimized: true)
!524 = !DISubroutineType(types: !525)
!525 = !{null, !517}
!526 = !DISubprogram(name: "operator=", linkageName: "_ZNSt3__110unique_ptrINS_15__thread_structENS_14default_deleteIS1_EEEaSEDn", scope: !30, file: !31, line: 2542, type: !527, isLocal: false, isDefinition: false, scopeLine: 2542, flags: DIFlagPublic | DIFlagPrototyped, isOptimized: true)
!527 = !DISubroutineType(types: !528)
!528 = !{!522, !517, !529}
!529 = !DIDerivedType(tag: DW_TAG_typedef, name: "nullptr_t", scope: !9, file: !530, line: 57, baseType: !531)
!530 = !DIFile(filename: "/Users/aser/Documents/LLVM/llvm-4.0/build/bin/../include/c++/v1/__nullptr", directory: "/Users/aser/Dropbox/papers/C++11/Checker11/examples/mo_release_acquire3")
!531 = !DIBasicType(tag: DW_TAG_unspecified_type, name: "decltype(nullptr)")
!532 = !DISubprogram(name: "operator*", linkageName: "_ZNKSt3__110unique_ptrINS_15__thread_structENS_14default_deleteIS1_EEEdeEv", scope: !30, file: !31, line: 2549, type: !533, isLocal: false, isDefinition: false, scopeLine: 2549, flags: DIFlagPublic | DIFlagPrototyped, isOptimized: true)
!533 = !DISubroutineType(types: !534)
!534 = !{!535, !542}
!535 = !DIDerivedType(tag: DW_TAG_typedef, name: "type", scope: !537, file: !536, line: 1084, baseType: !538)
!536 = !DIFile(filename: "/Users/aser/Documents/LLVM/llvm-4.0/build/bin/../include/c++/v1/type_traits", directory: "/Users/aser/Dropbox/papers/C++11/Checker11/examples/mo_release_acquire3")
!537 = distinct !DICompositeType(tag: DW_TAG_structure_type, name: "add_lvalue_reference<std::__1::__thread_struct>", scope: !7, file: !536, line: 1083, size: 8, elements: !161, templateParams: !470, identifier: "_ZTSNSt3__120add_lvalue_referenceINS_15__thread_structEEE")
!538 = !DIDerivedType(tag: DW_TAG_typedef, name: "type", scope: !539, file: !536, line: 1081, baseType: !56)
!539 = distinct !DICompositeType(tag: DW_TAG_structure_type, name: "__add_lvalue_reference_impl<std::__1::__thread_struct, true>", scope: !7, file: !536, line: 1081, size: 8, elements: !161, templateParams: !540, identifier: "_ZTSNSt3__127__add_lvalue_reference_implINS_15__thread_structELb1EEE")
!540 = !{!471, !541}
!541 = !DITemplateValueParameter(type: !141, value: i8 1)
!542 = !DIDerivedType(tag: DW_TAG_pointer_type, baseType: !543, size: 64, flags: DIFlagArtificial | DIFlagObjectPointer)
!543 = !DIDerivedType(tag: DW_TAG_const_type, baseType: !30)
!544 = !DISubprogram(name: "operator->", linkageName: "_ZNKSt3__110unique_ptrINS_15__thread_structENS_14default_deleteIS1_EEEptEv", scope: !30, file: !31, line: 2553, type: !545, isLocal: false, isDefinition: false, scopeLine: 2553, flags: DIFlagPublic | DIFlagPrototyped, isOptimized: true)
!545 = !DISubroutineType(types: !546)
!546 = !{!547, !542}
!547 = !DIDerivedType(tag: DW_TAG_typedef, name: "pointer", scope: !30, file: !31, line: 2338, baseType: !548)
!548 = !DIDerivedType(tag: DW_TAG_typedef, name: "type", scope: !549, file: !31, line: 1031, baseType: !552)
!549 = distinct !DICompositeType(tag: DW_TAG_structure_type, name: "__pointer_type<std::__1::__thread_struct, std::__1::default_delete<std::__1::__thread_struct> >", scope: !7, file: !31, line: 1029, size: 8, elements: !161, templateParams: !550, identifier: "_ZTSNSt3__114__pointer_typeINS_15__thread_structENS_14default_deleteIS1_EEEE")
!550 = !{!471, !551}
!551 = !DITemplateTypeParameter(name: "_Dp", type: !459)
!552 = !DIDerivedType(tag: DW_TAG_typedef, name: "type", scope: !553, file: !31, line: 1023, baseType: !40)
!553 = distinct !DICompositeType(tag: DW_TAG_structure_type, name: "__pointer_type<std::__1::__thread_struct, std::__1::default_delete<std::__1::__thread_struct>, false>", scope: !554, file: !31, line: 1021, size: 8, elements: !161, templateParams: !555, identifier: "_ZTSNSt3__118__pointer_type_imp14__pointer_typeINS_15__thread_structENS_14default_deleteIS2_EELb0EEE")
!554 = !DINamespace(name: "__pointer_type_imp", scope: !7, file: !31, line: 1011)
!555 = !{!471, !551, !556}
!556 = !DITemplateValueParameter(type: !141, value: i8 0)
!557 = !DISubprogram(name: "get", linkageName: "_ZNKSt3__110unique_ptrINS_15__thread_structENS_14default_deleteIS1_EEE3getEv", scope: !30, file: !31, line: 2557, type: !545, isLocal: false, isDefinition: false, scopeLine: 2557, flags: DIFlagPublic | DIFlagPrototyped, isOptimized: true)
!558 = !DISubprogram(name: "get_deleter", linkageName: "_ZNSt3__110unique_ptrINS_15__thread_structENS_14default_deleteIS1_EEE11get_deleterEv", scope: !30, file: !31, line: 2561, type: !559, isLocal: false, isDefinition: false, scopeLine: 2561, flags: DIFlagPublic | DIFlagPrototyped, isOptimized: true)
!559 = !DISubroutineType(types: !560)
!560 = !{!561, !517}
!561 = !DIDerivedType(tag: DW_TAG_reference_type, baseType: !562, size: 64)
!562 = !DIDerivedType(tag: DW_TAG_typedef, name: "deleter_type", scope: !30, file: !31, line: 2337, baseType: !459)
!563 = !DISubprogram(name: "get_deleter", linkageName: "_ZNKSt3__110unique_ptrINS_15__thread_structENS_14default_deleteIS1_EEE11get_deleterEv", scope: !30, file: !31, line: 2565, type: !564, isLocal: false, isDefinition: false, scopeLine: 2565, flags: DIFlagPublic | DIFlagPrototyped, isOptimized: true)
!564 = !DISubroutineType(types: !565)
!565 = !{!566, !542}
!566 = !DIDerivedType(tag: DW_TAG_reference_type, baseType: !567, size: 64)
!567 = !DIDerivedType(tag: DW_TAG_const_type, baseType: !562)
!568 = !DISubprogram(name: "operator bool", linkageName: "_ZNKSt3__110unique_ptrINS_15__thread_structENS_14default_deleteIS1_EEEcvbEv", scope: !30, file: !31, line: 2569, type: !569, isLocal: false, isDefinition: false, scopeLine: 2569, flags: DIFlagPublic | DIFlagExplicit | DIFlagPrototyped, isOptimized: true)
!569 = !DISubroutineType(types: !570)
!570 = !{!141, !542}
!571 = !DISubprogram(name: "release", linkageName: "_ZNSt3__110unique_ptrINS_15__thread_structENS_14default_deleteIS1_EEE7releaseEv", scope: !30, file: !31, line: 2574, type: !572, isLocal: false, isDefinition: false, scopeLine: 2574, flags: DIFlagPublic | DIFlagPrototyped, isOptimized: true)
!572 = !DISubroutineType(types: !573)
!573 = !{!547, !517}
!574 = !DISubprogram(name: "reset", linkageName: "_ZNSt3__110unique_ptrINS_15__thread_structENS_14default_deleteIS1_EEE5resetEPS1_", scope: !30, file: !31, line: 2581, type: !575, isLocal: false, isDefinition: false, scopeLine: 2581, flags: DIFlagPublic | DIFlagPrototyped, isOptimized: true)
!575 = !DISubroutineType(types: !576)
!576 = !{null, !517, !547}
!577 = !DISubprogram(name: "swap", linkageName: "_ZNSt3__110unique_ptrINS_15__thread_structENS_14default_deleteIS1_EEE4swapERS4_", scope: !30, file: !31, line: 2589, type: !578, isLocal: false, isDefinition: false, scopeLine: 2589, flags: DIFlagPublic | DIFlagPrototyped, isOptimized: true)
!578 = !DISubroutineType(types: !579)
!579 = !{null, !517, !522}
!580 = !DISubprogram(name: "operator=", linkageName: "_ZNSt3__112__tuple_leafILm0ENS_10unique_ptrINS_15__thread_structENS_14default_deleteIS2_EEEELb0EEaSERKS6_", scope: !27, file: !20, line: 188, type: !581, isLocal: false, isDefinition: false, scopeLine: 188, flags: DIFlagPrototyped, isOptimized: true)
!581 = !DISubroutineType(types: !582)
!582 = !{!583, !584, !585}
!583 = !DIDerivedType(tag: DW_TAG_reference_type, baseType: !27, size: 64)
!584 = !DIDerivedType(tag: DW_TAG_pointer_type, baseType: !27, size: 64, flags: DIFlagArtificial | DIFlagObjectPointer)
!585 = !DIDerivedType(tag: DW_TAG_reference_type, baseType: !586, size: 64)
!586 = !DIDerivedType(tag: DW_TAG_const_type, baseType: !27)
!587 = !DISubprogram(name: "__tuple_leaf", scope: !27, file: !20, line: 190, type: !588, isLocal: false, isDefinition: false, scopeLine: 190, flags: DIFlagPublic | DIFlagPrototyped, isOptimized: true)
!588 = !DISubroutineType(types: !589)
!589 = !{null, !584}
!590 = !DISubprogram(name: "__tuple_leaf", scope: !27, file: !20, line: 251, type: !591, isLocal: false, isDefinition: false, scopeLine: 251, flags: DIFlagPublic | DIFlagPrototyped, isOptimized: true)
!591 = !DISubroutineType(types: !592)
!592 = !{null, !584, !585}
!593 = !DISubprogram(name: "__tuple_leaf", scope: !27, file: !20, line: 252, type: !594, isLocal: false, isDefinition: false, scopeLine: 252, flags: DIFlagPublic | DIFlagPrototyped, isOptimized: true)
!594 = !DISubroutineType(types: !595)
!595 = !{null, !584, !596}
!596 = !DIDerivedType(tag: DW_TAG_rvalue_reference_type, baseType: !27, size: 64)
!597 = !DISubprogram(name: "swap", linkageName: "_ZNSt3__112__tuple_leafILm0ENS_10unique_ptrINS_15__thread_structENS_14default_deleteIS2_EEEELb0EE4swapERS6_", scope: !27, file: !20, line: 264, type: !598, isLocal: false, isDefinition: false, scopeLine: 264, flags: DIFlagPublic | DIFlagPrototyped, isOptimized: true)
!598 = !DISubroutineType(types: !599)
!599 = !{!252, !584, !583}
!600 = !DISubprogram(name: "get", linkageName: "_ZNSt3__112__tuple_leafILm0ENS_10unique_ptrINS_15__thread_structENS_14default_deleteIS2_EEEELb0EE3getEv", scope: !27, file: !20, line: 270, type: !601, isLocal: false, isDefinition: false, scopeLine: 270, flags: DIFlagPublic | DIFlagPrototyped, isOptimized: true)
!601 = !DISubroutineType(types: !602)
!602 = !{!522, !584}
!603 = !DISubprogram(name: "get", linkageName: "_ZNKSt3__112__tuple_leafILm0ENS_10unique_ptrINS_15__thread_structENS_14default_deleteIS2_EEEELb0EE3getEv", scope: !27, file: !20, line: 271, type: !604, isLocal: false, isDefinition: false, scopeLine: 271, flags: DIFlagPublic | DIFlagPrototyped, isOptimized: true)
!604 = !DISubroutineType(types: !605)
!605 = !{!606, !607}
!606 = !DIDerivedType(tag: DW_TAG_reference_type, baseType: !543, size: 64)
!607 = !DIDerivedType(tag: DW_TAG_pointer_type, baseType: !586, size: 64, flags: DIFlagArtificial | DIFlagObjectPointer)
!608 = !{!609, !611, !556}
!609 = !DITemplateValueParameter(name: "_Ip", type: !610, value: i64 0)
!610 = !DIBasicType(name: "long unsigned int", size: 64, encoding: DW_ATE_unsigned)
!611 = !DITemplateTypeParameter(name: "_Hp", type: !30)
!612 = !DIDerivedType(tag: DW_TAG_inheritance, scope: !24, baseType: !613, offset: 64)
!613 = distinct !DICompositeType(tag: DW_TAG_class_type, name: "__tuple_leaf<1, void (*)(), false>", scope: !7, file: !20, line: 170, size: 64, elements: !614, templateParams: !649, identifier: "_ZTSNSt3__112__tuple_leafILm1EPFvvELb0EEE")
!614 = !{!615, !619, !626, !629, !632, !636, !639, !643}
!615 = !DIDerivedType(tag: DW_TAG_member, name: "value", scope: !613, file: !20, line: 172, baseType: !616, size: 64)
!616 = !DIDerivedType(tag: DW_TAG_pointer_type, baseType: !617, size: 64)
!617 = !DISubroutineType(types: !618)
!618 = !{null}
!619 = !DISubprogram(name: "operator=", linkageName: "_ZNSt3__112__tuple_leafILm1EPFvvELb0EEaSERKS3_", scope: !613, file: !20, line: 188, type: !620, isLocal: false, isDefinition: false, scopeLine: 188, flags: DIFlagPrototyped, isOptimized: true)
!620 = !DISubroutineType(types: !621)
!621 = !{!622, !623, !624}
!622 = !DIDerivedType(tag: DW_TAG_reference_type, baseType: !613, size: 64)
!623 = !DIDerivedType(tag: DW_TAG_pointer_type, baseType: !613, size: 64, flags: DIFlagArtificial | DIFlagObjectPointer)
!624 = !DIDerivedType(tag: DW_TAG_reference_type, baseType: !625, size: 64)
!625 = !DIDerivedType(tag: DW_TAG_const_type, baseType: !613)
!626 = !DISubprogram(name: "__tuple_leaf", scope: !613, file: !20, line: 190, type: !627, isLocal: false, isDefinition: false, scopeLine: 190, flags: DIFlagPublic | DIFlagPrototyped, isOptimized: true)
!627 = !DISubroutineType(types: !628)
!628 = !{null, !623}
!629 = !DISubprogram(name: "__tuple_leaf", scope: !613, file: !20, line: 251, type: !630, isLocal: false, isDefinition: false, scopeLine: 251, flags: DIFlagPublic | DIFlagPrototyped, isOptimized: true)
!630 = !DISubroutineType(types: !631)
!631 = !{null, !623, !624}
!632 = !DISubprogram(name: "__tuple_leaf", scope: !613, file: !20, line: 252, type: !633, isLocal: false, isDefinition: false, scopeLine: 252, flags: DIFlagPublic | DIFlagPrototyped, isOptimized: true)
!633 = !DISubroutineType(types: !634)
!634 = !{null, !623, !635}
!635 = !DIDerivedType(tag: DW_TAG_rvalue_reference_type, baseType: !613, size: 64)
!636 = !DISubprogram(name: "swap", linkageName: "_ZNSt3__112__tuple_leafILm1EPFvvELb0EE4swapERS3_", scope: !613, file: !20, line: 264, type: !637, isLocal: false, isDefinition: false, scopeLine: 264, flags: DIFlagPublic | DIFlagPrototyped, isOptimized: true)
!637 = !DISubroutineType(types: !638)
!638 = !{!252, !623, !622}
!639 = !DISubprogram(name: "get", linkageName: "_ZNSt3__112__tuple_leafILm1EPFvvELb0EE3getEv", scope: !613, file: !20, line: 270, type: !640, isLocal: false, isDefinition: false, scopeLine: 270, flags: DIFlagPublic | DIFlagPrototyped, isOptimized: true)
!640 = !DISubroutineType(types: !641)
!641 = !{!642, !623}
!642 = !DIDerivedType(tag: DW_TAG_reference_type, baseType: !616, size: 64)
!643 = !DISubprogram(name: "get", linkageName: "_ZNKSt3__112__tuple_leafILm1EPFvvELb0EE3getEv", scope: !613, file: !20, line: 271, type: !644, isLocal: false, isDefinition: false, scopeLine: 271, flags: DIFlagPublic | DIFlagPrototyped, isOptimized: true)
!644 = !DISubroutineType(types: !645)
!645 = !{!646, !648}
!646 = !DIDerivedType(tag: DW_TAG_reference_type, baseType: !647, size: 64)
!647 = !DIDerivedType(tag: DW_TAG_const_type, baseType: !616)
!648 = !DIDerivedType(tag: DW_TAG_pointer_type, baseType: !625, size: 64, flags: DIFlagArtificial | DIFlagObjectPointer)
!649 = !{!650, !651, !556}
!650 = !DITemplateValueParameter(name: "_Ip", type: !610, value: i64 1)
!651 = !DITemplateTypeParameter(name: "_Hp", type: !616)
!652 = !DISubprogram(name: "__tuple_impl", scope: !24, file: !20, line: 373, type: !653, isLocal: false, isDefinition: false, scopeLine: 373, flags: DIFlagPrototyped, isOptimized: true)
!653 = !DISubroutineType(types: !654)
!654 = !{null, !655}
!655 = !DIDerivedType(tag: DW_TAG_pointer_type, baseType: !24, size: 64, flags: DIFlagArtificial | DIFlagObjectPointer)
!656 = !DISubprogram(name: "__tuple_impl", scope: !24, file: !20, line: 444, type: !657, isLocal: false, isDefinition: false, scopeLine: 444, flags: DIFlagPrototyped, isOptimized: true)
!657 = !DISubroutineType(types: !658)
!658 = !{null, !655, !659}
!659 = !DIDerivedType(tag: DW_TAG_reference_type, baseType: !660, size: 64)
!660 = !DIDerivedType(tag: DW_TAG_const_type, baseType: !24)
!661 = !DISubprogram(name: "__tuple_impl", scope: !24, file: !20, line: 445, type: !662, isLocal: false, isDefinition: false, scopeLine: 445, flags: DIFlagPrototyped, isOptimized: true)
!662 = !DISubroutineType(types: !663)
!663 = !{null, !655, !664}
!664 = !DIDerivedType(tag: DW_TAG_rvalue_reference_type, baseType: !24, size: 64)
!665 = !DISubprogram(name: "operator=", linkageName: "_ZNSt3__112__tuple_implINS_15__tuple_indicesIJLm0ELm1EEEEJNS_10unique_ptrINS_15__thread_structENS_14default_deleteIS4_EEEEPFvvEEEaSERKSA_", scope: !24, file: !20, line: 449, type: !666, isLocal: false, isDefinition: false, scopeLine: 449, flags: DIFlagPrototyped, isOptimized: true)
!666 = !DISubroutineType(types: !667)
!667 = !{!668, !655, !659}
!668 = !DIDerivedType(tag: DW_TAG_reference_type, baseType: !24, size: 64)
!669 = !DISubprogram(name: "operator=", linkageName: "_ZNSt3__112__tuple_implINS_15__tuple_indicesIJLm0ELm1EEEEJNS_10unique_ptrINS_15__thread_structENS_14default_deleteIS4_EEEEPFvvEEEaSEOSA_", scope: !24, file: !20, line: 457, type: !670, isLocal: false, isDefinition: false, scopeLine: 457, flags: DIFlagPrototyped, isOptimized: true)
!670 = !DISubroutineType(types: !671)
!671 = !{!668, !655, !664}
!672 = !DISubprogram(name: "swap", linkageName: "_ZNSt3__112__tuple_implINS_15__tuple_indicesIJLm0ELm1EEEEJNS_10unique_ptrINS_15__thread_structENS_14default_deleteIS4_EEEEPFvvEEE4swapERSA_", scope: !24, file: !20, line: 464, type: !673, isLocal: false, isDefinition: false, scopeLine: 464, flags: DIFlagPrototyped, isOptimized: true)
!673 = !DISubroutineType(types: !674)
!674 = !{null, !655, !668}
!675 = !{!676, !684}
!676 = !DITemplateTypeParameter(name: "_Indx", type: !677)
!677 = distinct !DICompositeType(tag: DW_TAG_structure_type, name: "__tuple_indices<0, 1>", scope: !7, file: !678, line: 90, size: 8, elements: !161, templateParams: !679, identifier: "_ZTSNSt3__115__tuple_indicesIJLm0ELm1EEEE")
!678 = !DIFile(filename: "/Users/aser/Documents/LLVM/llvm-4.0/build/bin/../include/c++/v1/__tuple", directory: "/Users/aser/Dropbox/papers/C++11/Checker11/examples/mo_release_acquire3")
!679 = !{!680}
!680 = !DITemplateValueParameter(tag: DW_TAG_GNU_template_parameter_pack, value: !681)
!681 = !{!682, !683}
!682 = !DITemplateValueParameter(type: !610, value: i64 0)
!683 = !DITemplateValueParameter(type: !610, value: i64 1)
!684 = !DITemplateValueParameter(tag: DW_TAG_GNU_template_parameter_pack, name: "_Tp", value: !685)
!685 = !{!686, !687}
!686 = !DITemplateTypeParameter(type: !30)
!687 = !DITemplateTypeParameter(type: !616)
!688 = !DIDerivedType(tag: DW_TAG_member, name: "_EnableImplicitReducedArityExtension", scope: !19, file: !20, line: 483, baseType: !319, flags: DIFlagStaticMember, extraData: i1 false)
!689 = !DISubprogram(name: "tuple", scope: !19, file: !20, line: 620, type: !690, isLocal: false, isDefinition: false, scopeLine: 620, flags: DIFlagPublic | DIFlagPrototyped, isOptimized: true)
!690 = !DISubroutineType(types: !691)
!691 = !{null, !692, !693}
!692 = !DIDerivedType(tag: DW_TAG_pointer_type, baseType: !19, size: 64, flags: DIFlagArtificial | DIFlagObjectPointer)
!693 = !DIDerivedType(tag: DW_TAG_reference_type, baseType: !694, size: 64)
!694 = !DIDerivedType(tag: DW_TAG_const_type, baseType: !19)
!695 = !DISubprogram(name: "tuple", scope: !19, file: !20, line: 621, type: !696, isLocal: false, isDefinition: false, scopeLine: 621, flags: DIFlagPublic | DIFlagPrototyped, isOptimized: true)
!696 = !DISubroutineType(types: !697)
!697 = !{null, !692, !698}
!698 = !DIDerivedType(tag: DW_TAG_rvalue_reference_type, baseType: !19, size: 64)
!699 = !DISubprogram(name: "operator=", linkageName: "_ZNSt3__15tupleIJNS_10unique_ptrINS_15__thread_structENS_14default_deleteIS2_EEEEPFvvEEEaSERKNS_5__natE", scope: !19, file: !20, line: 876, type: !700, isLocal: false, isDefinition: false, scopeLine: 876, flags: DIFlagPublic | DIFlagPrototyped, isOptimized: true)
!700 = !DISubroutineType(types: !701)
!701 = !{!702, !692, !703}
!702 = !DIDerivedType(tag: DW_TAG_reference_type, baseType: !19, size: 64)
!703 = !DIDerivedType(tag: DW_TAG_reference_type, baseType: !704, size: 64)
!704 = !DIDerivedType(tag: DW_TAG_const_type, baseType: !705)
!705 = !DIDerivedType(tag: DW_TAG_typedef, name: "type", scope: !706, file: !536, line: 414, baseType: !711)
!706 = distinct !DICompositeType(tag: DW_TAG_structure_type, name: "conditional<false, std::__1::tuple<std::__1::unique_ptr<std::__1::__thread_struct, std::__1::default_delete<std::__1::__thread_struct> >, void (*)()>, std::__1::__nat>", scope: !7, file: !536, line: 414, size: 8, elements: !161, templateParams: !707, identifier: "_ZTSNSt3__111conditionalILb0ENS_5tupleIJNS_10unique_ptrINS_15__thread_structENS_14default_deleteIS3_EEEEPFvvEEEENS_5__natEEE")
!707 = !{!708, !709, !710}
!708 = !DITemplateValueParameter(name: "_Bp", type: !141, value: i8 0)
!709 = !DITemplateTypeParameter(name: "_If", type: !19)
!710 = !DITemplateTypeParameter(name: "_Then", type: !711)
!711 = distinct !DICompositeType(tag: DW_TAG_structure_type, name: "__nat", scope: !7, file: !536, line: 1584, size: 8, elements: !712, identifier: "_ZTSNSt3__15__natE")
!712 = !{!713, !717, !722, !726}
!713 = !DISubprogram(name: "__nat", scope: !711, file: !536, line: 1587, type: !714, isLocal: false, isDefinition: false, scopeLine: 1587, flags: DIFlagPrototyped, isOptimized: true)
!714 = !DISubroutineType(types: !715)
!715 = !{null, !716}
!716 = !DIDerivedType(tag: DW_TAG_pointer_type, baseType: !711, size: 64, flags: DIFlagArtificial | DIFlagObjectPointer)
!717 = !DISubprogram(name: "__nat", scope: !711, file: !536, line: 1588, type: !718, isLocal: false, isDefinition: false, scopeLine: 1588, flags: DIFlagPrototyped, isOptimized: true)
!718 = !DISubroutineType(types: !719)
!719 = !{null, !716, !720}
!720 = !DIDerivedType(tag: DW_TAG_reference_type, baseType: !721, size: 64)
!721 = !DIDerivedType(tag: DW_TAG_const_type, baseType: !711)
!722 = !DISubprogram(name: "operator=", linkageName: "_ZNSt3__15__nataSERKS0_", scope: !711, file: !536, line: 1589, type: !723, isLocal: false, isDefinition: false, scopeLine: 1589, flags: DIFlagPrototyped, isOptimized: true)
!723 = !DISubroutineType(types: !724)
!724 = !{!725, !716, !720}
!725 = !DIDerivedType(tag: DW_TAG_reference_type, baseType: !711, size: 64)
!726 = !DISubprogram(name: "~__nat", scope: !711, file: !536, line: 1590, type: !714, isLocal: false, isDefinition: false, scopeLine: 1590, flags: DIFlagPrototyped, isOptimized: true)
!727 = !DISubprogram(name: "operator=", linkageName: "_ZNSt3__15tupleIJNS_10unique_ptrINS_15__thread_structENS_14default_deleteIS2_EEEEPFvvEEEaSEOS8_", scope: !19, file: !20, line: 884, type: !728, isLocal: false, isDefinition: false, scopeLine: 884, flags: DIFlagPublic | DIFlagPrototyped, isOptimized: true)
!728 = !DISubroutineType(types: !729)
!729 = !{!702, !692, !730}
!730 = !DIDerivedType(tag: DW_TAG_rvalue_reference_type, baseType: !731, size: 64)
!731 = !DIDerivedType(tag: DW_TAG_typedef, name: "type", scope: !732, file: !536, line: 412, baseType: !19)
!732 = distinct !DICompositeType(tag: DW_TAG_structure_type, name: "conditional<true, std::__1::tuple<std::__1::unique_ptr<std::__1::__thread_struct, std::__1::default_delete<std::__1::__thread_struct> >, void (*)()>, std::__1::__nat>", scope: !7, file: !536, line: 412, size: 8, elements: !161, templateParams: !733, identifier: "_ZTSNSt3__111conditionalILb1ENS_5tupleIJNS_10unique_ptrINS_15__thread_structENS_14default_deleteIS3_EEEEPFvvEEEENS_5__natEEE")
!733 = !{!734, !709, !710}
!734 = !DITemplateValueParameter(name: "_Bp", type: !141, value: i8 1)
!735 = !DISubprogram(name: "swap", linkageName: "_ZNSt3__15tupleIJNS_10unique_ptrINS_15__thread_structENS_14default_deleteIS2_EEEEPFvvEEE4swapERS8_", scope: !19, file: !20, line: 906, type: !736, isLocal: false, isDefinition: false, scopeLine: 906, flags: DIFlagPublic | DIFlagPrototyped, isOptimized: true)
!736 = !DISubroutineType(types: !737)
!737 = !{null, !692, !702}
!738 = !{!684}
!739 = !{!0, !740, !742, !744, !746, !898}
!740 = !DIGlobalVariableExpression(var: !741)
!741 = distinct !DIGlobalVariable(name: "data2", scope: !2, file: !3, line: 7, type: !252, isLocal: false, isDefinition: true)
!742 = !DIGlobalVariableExpression(var: !743)
!743 = distinct !DIGlobalVariable(name: "data3", scope: !2, file: !3, line: 7, type: !252, isLocal: false, isDefinition: true)
!744 = !DIGlobalVariableExpression(var: !745)
!745 = distinct !DIGlobalVariable(name: "data4", scope: !2, file: !3, line: 7, type: !252, isLocal: false, isDefinition: true)
!746 = !DIGlobalVariableExpression(var: !747)
!747 = distinct !DIGlobalVariable(name: "x", scope: !2, file: !3, line: 8, type: !748, isLocal: false, isDefinition: true)
!748 = distinct !DICompositeType(tag: DW_TAG_structure_type, name: "atomic<int>", scope: !7, file: !6, line: 1084, size: 32, elements: !749, templateParams: !897, identifier: "_ZTSNSt3__16atomicIiEE")
!749 = !{!750, !882, !886, !889, !894}
!750 = !DIDerivedType(tag: DW_TAG_inheritance, scope: !748, baseType: !751)
!751 = distinct !DICompositeType(tag: DW_TAG_structure_type, name: "__atomic_base<int, true>", scope: !7, file: !6, line: 1003, size: 32, elements: !752, templateParams: !881, identifier: "_ZTSNSt3__113__atomic_baseIiLb1EEE")
!752 = !{!753, !832, !836, !839, !844, !847, !848, !849, !850, !851, !852, !853, !854, !855, !858, !861, !862, !863, !866, !869, !870, !871, !872, !873, !874, !875, !876, !877, !878, !879, !880}
!753 = !DIDerivedType(tag: DW_TAG_inheritance, scope: !751, baseType: !754)
!754 = distinct !DICompositeType(tag: DW_TAG_structure_type, name: "__atomic_base<int, false>", scope: !7, file: !6, line: 891, size: 32, elements: !755, templateParams: !830, identifier: "_ZTSNSt3__113__atomic_baseIiLb0EEE")
!755 = !{!756, !758, !764, !769, !774, !778, !781, !784, !787, !790, !793, !796, !800, !803, !804, !805, !808, !811, !812, !813, !816, !819, !823, !827}
!756 = !DIDerivedType(tag: DW_TAG_member, name: "__a_", scope: !754, file: !6, line: 893, baseType: !757, size: 32)
!757 = !DIDerivedType(tag: DW_TAG_atomic_type, baseType: !252)
!758 = !DISubprogram(name: "is_lock_free", linkageName: "_ZNVKSt3__113__atomic_baseIiLb0EE12is_lock_freeEv", scope: !754, file: !6, line: 900, type: !759, isLocal: false, isDefinition: false, scopeLine: 900, flags: DIFlagPrototyped, isOptimized: true)
!759 = !DISubroutineType(types: !760)
!760 = !{!141, !761}
!761 = !DIDerivedType(tag: DW_TAG_pointer_type, baseType: !762, size: 64, flags: DIFlagArtificial | DIFlagObjectPointer)
!762 = !DIDerivedType(tag: DW_TAG_const_type, baseType: !763)
!763 = !DIDerivedType(tag: DW_TAG_volatile_type, baseType: !754)
!764 = !DISubprogram(name: "is_lock_free", linkageName: "_ZNKSt3__113__atomic_baseIiLb0EE12is_lock_freeEv", scope: !754, file: !6, line: 909, type: !765, isLocal: false, isDefinition: false, scopeLine: 909, flags: DIFlagPrototyped, isOptimized: true)
!765 = !DISubroutineType(types: !766)
!766 = !{!141, !767}
!767 = !DIDerivedType(tag: DW_TAG_pointer_type, baseType: !768, size: 64, flags: DIFlagArtificial | DIFlagObjectPointer)
!768 = !DIDerivedType(tag: DW_TAG_const_type, baseType: !754)
!769 = !DISubprogram(name: "store", linkageName: "_ZNVSt3__113__atomic_baseIiLb0EE5storeEiNS_12memory_orderE", scope: !754, file: !6, line: 912, type: !770, isLocal: false, isDefinition: false, scopeLine: 912, flags: DIFlagPrototyped, isOptimized: true)
!770 = !DISubroutineType(types: !771)
!771 = !{null, !772, !252, !773}
!772 = !DIDerivedType(tag: DW_TAG_pointer_type, baseType: !763, size: 64, flags: DIFlagArtificial | DIFlagObjectPointer)
!773 = !DIDerivedType(tag: DW_TAG_typedef, name: "memory_order", scope: !7, file: !6, line: 585, baseType: !5)
!774 = !DISubprogram(name: "store", linkageName: "_ZNSt3__113__atomic_baseIiLb0EE5storeEiNS_12memory_orderE", scope: !754, file: !6, line: 916, type: !775, isLocal: false, isDefinition: false, scopeLine: 916, flags: DIFlagPrototyped, isOptimized: true)
!775 = !DISubroutineType(types: !776)
!776 = !{null, !777, !252, !773}
!777 = !DIDerivedType(tag: DW_TAG_pointer_type, baseType: !754, size: 64, flags: DIFlagArtificial | DIFlagObjectPointer)
!778 = !DISubprogram(name: "load", linkageName: "_ZNVKSt3__113__atomic_baseIiLb0EE4loadENS_12memory_orderE", scope: !754, file: !6, line: 920, type: !779, isLocal: false, isDefinition: false, scopeLine: 920, flags: DIFlagPrototyped, isOptimized: true)
!779 = !DISubroutineType(types: !780)
!780 = !{!252, !761, !773}
!781 = !DISubprogram(name: "load", linkageName: "_ZNKSt3__113__atomic_baseIiLb0EE4loadENS_12memory_orderE", scope: !754, file: !6, line: 924, type: !782, isLocal: false, isDefinition: false, scopeLine: 924, flags: DIFlagPrototyped, isOptimized: true)
!782 = !DISubroutineType(types: !783)
!783 = !{!252, !767, !773}
!784 = !DISubprogram(name: "operator int", linkageName: "_ZNVKSt3__113__atomic_baseIiLb0EEcviEv", scope: !754, file: !6, line: 928, type: !785, isLocal: false, isDefinition: false, scopeLine: 928, flags: DIFlagPrototyped, isOptimized: true)
!785 = !DISubroutineType(types: !786)
!786 = !{!252, !761}
!787 = !DISubprogram(name: "operator int", linkageName: "_ZNKSt3__113__atomic_baseIiLb0EEcviEv", scope: !754, file: !6, line: 930, type: !788, isLocal: false, isDefinition: false, scopeLine: 930, flags: DIFlagPrototyped, isOptimized: true)
!788 = !DISubroutineType(types: !789)
!789 = !{!252, !767}
!790 = !DISubprogram(name: "exchange", linkageName: "_ZNVSt3__113__atomic_baseIiLb0EE8exchangeEiNS_12memory_orderE", scope: !754, file: !6, line: 932, type: !791, isLocal: false, isDefinition: false, scopeLine: 932, flags: DIFlagPrototyped, isOptimized: true)
!791 = !DISubroutineType(types: !792)
!792 = !{!252, !772, !252, !773}
!793 = !DISubprogram(name: "exchange", linkageName: "_ZNSt3__113__atomic_baseIiLb0EE8exchangeEiNS_12memory_orderE", scope: !754, file: !6, line: 935, type: !794, isLocal: false, isDefinition: false, scopeLine: 935, flags: DIFlagPrototyped, isOptimized: true)
!794 = !DISubroutineType(types: !795)
!795 = !{!252, !777, !252, !773}
!796 = !DISubprogram(name: "compare_exchange_weak", linkageName: "_ZNVSt3__113__atomic_baseIiLb0EE21compare_exchange_weakERiiNS_12memory_orderES3_", scope: !754, file: !6, line: 938, type: !797, isLocal: false, isDefinition: false, scopeLine: 938, flags: DIFlagPrototyped, isOptimized: true)
!797 = !DISubroutineType(types: !798)
!798 = !{!141, !772, !799, !252, !773, !773}
!799 = !DIDerivedType(tag: DW_TAG_reference_type, baseType: !252, size: 64)
!800 = !DISubprogram(name: "compare_exchange_weak", linkageName: "_ZNSt3__113__atomic_baseIiLb0EE21compare_exchange_weakERiiNS_12memory_orderES3_", scope: !754, file: !6, line: 943, type: !801, isLocal: false, isDefinition: false, scopeLine: 943, flags: DIFlagPrototyped, isOptimized: true)
!801 = !DISubroutineType(types: !802)
!802 = !{!141, !777, !799, !252, !773, !773}
!803 = !DISubprogram(name: "compare_exchange_strong", linkageName: "_ZNVSt3__113__atomic_baseIiLb0EE23compare_exchange_strongERiiNS_12memory_orderES3_", scope: !754, file: !6, line: 948, type: !797, isLocal: false, isDefinition: false, scopeLine: 948, flags: DIFlagPrototyped, isOptimized: true)
!804 = !DISubprogram(name: "compare_exchange_strong", linkageName: "_ZNSt3__113__atomic_baseIiLb0EE23compare_exchange_strongERiiNS_12memory_orderES3_", scope: !754, file: !6, line: 953, type: !801, isLocal: false, isDefinition: false, scopeLine: 953, flags: DIFlagPrototyped, isOptimized: true)
!805 = !DISubprogram(name: "compare_exchange_weak", linkageName: "_ZNVSt3__113__atomic_baseIiLb0EE21compare_exchange_weakERiiNS_12memory_orderE", scope: !754, file: !6, line: 958, type: !806, isLocal: false, isDefinition: false, scopeLine: 958, flags: DIFlagPrototyped, isOptimized: true)
!806 = !DISubroutineType(types: !807)
!807 = !{!141, !772, !799, !252, !773}
!808 = !DISubprogram(name: "compare_exchange_weak", linkageName: "_ZNSt3__113__atomic_baseIiLb0EE21compare_exchange_weakERiiNS_12memory_orderE", scope: !754, file: !6, line: 962, type: !809, isLocal: false, isDefinition: false, scopeLine: 962, flags: DIFlagPrototyped, isOptimized: true)
!809 = !DISubroutineType(types: !810)
!810 = !{!141, !777, !799, !252, !773}
!811 = !DISubprogram(name: "compare_exchange_strong", linkageName: "_ZNVSt3__113__atomic_baseIiLb0EE23compare_exchange_strongERiiNS_12memory_orderE", scope: !754, file: !6, line: 966, type: !806, isLocal: false, isDefinition: false, scopeLine: 966, flags: DIFlagPrototyped, isOptimized: true)
!812 = !DISubprogram(name: "compare_exchange_strong", linkageName: "_ZNSt3__113__atomic_baseIiLb0EE23compare_exchange_strongERiiNS_12memory_orderE", scope: !754, file: !6, line: 970, type: !809, isLocal: false, isDefinition: false, scopeLine: 970, flags: DIFlagPrototyped, isOptimized: true)
!813 = !DISubprogram(name: "__atomic_base", scope: !754, file: !6, line: 976, type: !814, isLocal: false, isDefinition: false, scopeLine: 976, flags: DIFlagPrototyped, isOptimized: true)
!814 = !DISubroutineType(types: !815)
!815 = !{null, !777}
!816 = !DISubprogram(name: "__atomic_base", scope: !754, file: !6, line: 982, type: !817, isLocal: false, isDefinition: false, scopeLine: 982, flags: DIFlagPrototyped, isOptimized: true)
!817 = !DISubroutineType(types: !818)
!818 = !{null, !777, !252}
!819 = !DISubprogram(name: "__atomic_base", scope: !754, file: !6, line: 984, type: !820, isLocal: false, isDefinition: false, scopeLine: 984, flags: DIFlagPrototyped, isOptimized: true)
!820 = !DISubroutineType(types: !821)
!821 = !{null, !777, !822}
!822 = !DIDerivedType(tag: DW_TAG_reference_type, baseType: !768, size: 64)
!823 = !DISubprogram(name: "operator=", linkageName: "_ZNSt3__113__atomic_baseIiLb0EEaSERKS1_", scope: !754, file: !6, line: 985, type: !824, isLocal: false, isDefinition: false, scopeLine: 985, flags: DIFlagPrototyped, isOptimized: true)
!824 = !DISubroutineType(types: !825)
!825 = !{!826, !777, !822}
!826 = !DIDerivedType(tag: DW_TAG_reference_type, baseType: !754, size: 64)
!827 = !DISubprogram(name: "operator=", linkageName: "_ZNVSt3__113__atomic_baseIiLb0EEaSERKS1_", scope: !754, file: !6, line: 986, type: !828, isLocal: false, isDefinition: false, scopeLine: 986, flags: DIFlagPrototyped, isOptimized: true)
!828 = !DISubroutineType(types: !829)
!829 = !{!826, !772, !822}
!830 = !{!831, !556}
!831 = !DITemplateTypeParameter(name: "_Tp", type: !252)
!832 = !DISubprogram(name: "__atomic_base", scope: !751, file: !6, line: 1008, type: !833, isLocal: false, isDefinition: false, scopeLine: 1008, flags: DIFlagPrototyped, isOptimized: true)
!833 = !DISubroutineType(types: !834)
!834 = !{null, !835}
!835 = !DIDerivedType(tag: DW_TAG_pointer_type, baseType: !751, size: 64, flags: DIFlagArtificial | DIFlagObjectPointer)
!836 = !DISubprogram(name: "__atomic_base", scope: !751, file: !6, line: 1010, type: !837, isLocal: false, isDefinition: false, scopeLine: 1010, flags: DIFlagPrototyped, isOptimized: true)
!837 = !DISubroutineType(types: !838)
!838 = !{null, !835, !252}
!839 = !DISubprogram(name: "fetch_add", linkageName: "_ZNVSt3__113__atomic_baseIiLb1EE9fetch_addEiNS_12memory_orderE", scope: !751, file: !6, line: 1013, type: !840, isLocal: false, isDefinition: false, scopeLine: 1013, flags: DIFlagPrototyped, isOptimized: true)
!840 = !DISubroutineType(types: !841)
!841 = !{!252, !842, !252, !773}
!842 = !DIDerivedType(tag: DW_TAG_pointer_type, baseType: !843, size: 64, flags: DIFlagArtificial | DIFlagObjectPointer)
!843 = !DIDerivedType(tag: DW_TAG_volatile_type, baseType: !751)
!844 = !DISubprogram(name: "fetch_add", linkageName: "_ZNSt3__113__atomic_baseIiLb1EE9fetch_addEiNS_12memory_orderE", scope: !751, file: !6, line: 1016, type: !845, isLocal: false, isDefinition: false, scopeLine: 1016, flags: DIFlagPrototyped, isOptimized: true)
!845 = !DISubroutineType(types: !846)
!846 = !{!252, !835, !252, !773}
!847 = !DISubprogram(name: "fetch_sub", linkageName: "_ZNVSt3__113__atomic_baseIiLb1EE9fetch_subEiNS_12memory_orderE", scope: !751, file: !6, line: 1019, type: !840, isLocal: false, isDefinition: false, scopeLine: 1019, flags: DIFlagPrototyped, isOptimized: true)
!848 = !DISubprogram(name: "fetch_sub", linkageName: "_ZNSt3__113__atomic_baseIiLb1EE9fetch_subEiNS_12memory_orderE", scope: !751, file: !6, line: 1022, type: !845, isLocal: false, isDefinition: false, scopeLine: 1022, flags: DIFlagPrototyped, isOptimized: true)
!849 = !DISubprogram(name: "fetch_and", linkageName: "_ZNVSt3__113__atomic_baseIiLb1EE9fetch_andEiNS_12memory_orderE", scope: !751, file: !6, line: 1025, type: !840, isLocal: false, isDefinition: false, scopeLine: 1025, flags: DIFlagPrototyped, isOptimized: true)
!850 = !DISubprogram(name: "fetch_and", linkageName: "_ZNSt3__113__atomic_baseIiLb1EE9fetch_andEiNS_12memory_orderE", scope: !751, file: !6, line: 1028, type: !845, isLocal: false, isDefinition: false, scopeLine: 1028, flags: DIFlagPrototyped, isOptimized: true)
!851 = !DISubprogram(name: "fetch_or", linkageName: "_ZNVSt3__113__atomic_baseIiLb1EE8fetch_orEiNS_12memory_orderE", scope: !751, file: !6, line: 1031, type: !840, isLocal: false, isDefinition: false, scopeLine: 1031, flags: DIFlagPrototyped, isOptimized: true)
!852 = !DISubprogram(name: "fetch_or", linkageName: "_ZNSt3__113__atomic_baseIiLb1EE8fetch_orEiNS_12memory_orderE", scope: !751, file: !6, line: 1034, type: !845, isLocal: false, isDefinition: false, scopeLine: 1034, flags: DIFlagPrototyped, isOptimized: true)
!853 = !DISubprogram(name: "fetch_xor", linkageName: "_ZNVSt3__113__atomic_baseIiLb1EE9fetch_xorEiNS_12memory_orderE", scope: !751, file: !6, line: 1037, type: !840, isLocal: false, isDefinition: false, scopeLine: 1037, flags: DIFlagPrototyped, isOptimized: true)
!854 = !DISubprogram(name: "fetch_xor", linkageName: "_ZNSt3__113__atomic_baseIiLb1EE9fetch_xorEiNS_12memory_orderE", scope: !751, file: !6, line: 1040, type: !845, isLocal: false, isDefinition: false, scopeLine: 1040, flags: DIFlagPrototyped, isOptimized: true)
!855 = !DISubprogram(name: "operator++", linkageName: "_ZNVSt3__113__atomic_baseIiLb1EEppEi", scope: !751, file: !6, line: 1044, type: !856, isLocal: false, isDefinition: false, scopeLine: 1044, flags: DIFlagPrototyped, isOptimized: true)
!856 = !DISubroutineType(types: !857)
!857 = !{!252, !842, !252}
!858 = !DISubprogram(name: "operator++", linkageName: "_ZNSt3__113__atomic_baseIiLb1EEppEi", scope: !751, file: !6, line: 1046, type: !859, isLocal: false, isDefinition: false, scopeLine: 1046, flags: DIFlagPrototyped, isOptimized: true)
!859 = !DISubroutineType(types: !860)
!860 = !{!252, !835, !252}
!861 = !DISubprogram(name: "operator--", linkageName: "_ZNVSt3__113__atomic_baseIiLb1EEmmEi", scope: !751, file: !6, line: 1048, type: !856, isLocal: false, isDefinition: false, scopeLine: 1048, flags: DIFlagPrototyped, isOptimized: true)
!862 = !DISubprogram(name: "operator--", linkageName: "_ZNSt3__113__atomic_baseIiLb1EEmmEi", scope: !751, file: !6, line: 1050, type: !859, isLocal: false, isDefinition: false, scopeLine: 1050, flags: DIFlagPrototyped, isOptimized: true)
!863 = !DISubprogram(name: "operator++", linkageName: "_ZNVSt3__113__atomic_baseIiLb1EEppEv", scope: !751, file: !6, line: 1052, type: !864, isLocal: false, isDefinition: false, scopeLine: 1052, flags: DIFlagPrototyped, isOptimized: true)
!864 = !DISubroutineType(types: !865)
!865 = !{!252, !842}
!866 = !DISubprogram(name: "operator++", linkageName: "_ZNSt3__113__atomic_baseIiLb1EEppEv", scope: !751, file: !6, line: 1054, type: !867, isLocal: false, isDefinition: false, scopeLine: 1054, flags: DIFlagPrototyped, isOptimized: true)
!867 = !DISubroutineType(types: !868)
!868 = !{!252, !835}
!869 = !DISubprogram(name: "operator--", linkageName: "_ZNVSt3__113__atomic_baseIiLb1EEmmEv", scope: !751, file: !6, line: 1056, type: !864, isLocal: false, isDefinition: false, scopeLine: 1056, flags: DIFlagPrototyped, isOptimized: true)
!870 = !DISubprogram(name: "operator--", linkageName: "_ZNSt3__113__atomic_baseIiLb1EEmmEv", scope: !751, file: !6, line: 1058, type: !867, isLocal: false, isDefinition: false, scopeLine: 1058, flags: DIFlagPrototyped, isOptimized: true)
!871 = !DISubprogram(name: "operator+=", linkageName: "_ZNVSt3__113__atomic_baseIiLb1EEpLEi", scope: !751, file: !6, line: 1060, type: !856, isLocal: false, isDefinition: false, scopeLine: 1060, flags: DIFlagPrototyped, isOptimized: true)
!872 = !DISubprogram(name: "operator+=", linkageName: "_ZNSt3__113__atomic_baseIiLb1EEpLEi", scope: !751, file: !6, line: 1062, type: !859, isLocal: false, isDefinition: false, scopeLine: 1062, flags: DIFlagPrototyped, isOptimized: true)
!873 = !DISubprogram(name: "operator-=", linkageName: "_ZNVSt3__113__atomic_baseIiLb1EEmIEi", scope: !751, file: !6, line: 1064, type: !856, isLocal: false, isDefinition: false, scopeLine: 1064, flags: DIFlagPrototyped, isOptimized: true)
!874 = !DISubprogram(name: "operator-=", linkageName: "_ZNSt3__113__atomic_baseIiLb1EEmIEi", scope: !751, file: !6, line: 1066, type: !859, isLocal: false, isDefinition: false, scopeLine: 1066, flags: DIFlagPrototyped, isOptimized: true)
!875 = !DISubprogram(name: "operator&=", linkageName: "_ZNVSt3__113__atomic_baseIiLb1EEaNEi", scope: !751, file: !6, line: 1068, type: !856, isLocal: false, isDefinition: false, scopeLine: 1068, flags: DIFlagPrototyped, isOptimized: true)
!876 = !DISubprogram(name: "operator&=", linkageName: "_ZNSt3__113__atomic_baseIiLb1EEaNEi", scope: !751, file: !6, line: 1070, type: !859, isLocal: false, isDefinition: false, scopeLine: 1070, flags: DIFlagPrototyped, isOptimized: true)
!877 = !DISubprogram(name: "operator|=", linkageName: "_ZNVSt3__113__atomic_baseIiLb1EEoREi", scope: !751, file: !6, line: 1072, type: !856, isLocal: false, isDefinition: false, scopeLine: 1072, flags: DIFlagPrototyped, isOptimized: true)
!878 = !DISubprogram(name: "operator|=", linkageName: "_ZNSt3__113__atomic_baseIiLb1EEoREi", scope: !751, file: !6, line: 1074, type: !859, isLocal: false, isDefinition: false, scopeLine: 1074, flags: DIFlagPrototyped, isOptimized: true)
!879 = !DISubprogram(name: "operator^=", linkageName: "_ZNVSt3__113__atomic_baseIiLb1EEeOEi", scope: !751, file: !6, line: 1076, type: !856, isLocal: false, isDefinition: false, scopeLine: 1076, flags: DIFlagPrototyped, isOptimized: true)
!880 = !DISubprogram(name: "operator^=", linkageName: "_ZNSt3__113__atomic_baseIiLb1EEeOEi", scope: !751, file: !6, line: 1078, type: !859, isLocal: false, isDefinition: false, scopeLine: 1078, flags: DIFlagPrototyped, isOptimized: true)
!881 = !{!831, !541}
!882 = !DISubprogram(name: "atomic", scope: !748, file: !6, line: 1089, type: !883, isLocal: false, isDefinition: false, scopeLine: 1089, flags: DIFlagPrototyped, isOptimized: true)
!883 = !DISubroutineType(types: !884)
!884 = !{null, !885}
!885 = !DIDerivedType(tag: DW_TAG_pointer_type, baseType: !748, size: 64, flags: DIFlagArtificial | DIFlagObjectPointer)
!886 = !DISubprogram(name: "atomic", scope: !748, file: !6, line: 1091, type: !887, isLocal: false, isDefinition: false, scopeLine: 1091, flags: DIFlagPrototyped, isOptimized: true)
!887 = !DISubroutineType(types: !888)
!888 = !{null, !885, !252}
!889 = !DISubprogram(name: "operator=", linkageName: "_ZNVSt3__16atomicIiEaSEi", scope: !748, file: !6, line: 1094, type: !890, isLocal: false, isDefinition: false, scopeLine: 1094, flags: DIFlagPrototyped, isOptimized: true)
!890 = !DISubroutineType(types: !891)
!891 = !{!252, !892, !252}
!892 = !DIDerivedType(tag: DW_TAG_pointer_type, baseType: !893, size: 64, flags: DIFlagArtificial | DIFlagObjectPointer)
!893 = !DIDerivedType(tag: DW_TAG_volatile_type, baseType: !748)
!894 = !DISubprogram(name: "operator=", linkageName: "_ZNSt3__16atomicIiEaSEi", scope: !748, file: !6, line: 1097, type: !895, isLocal: false, isDefinition: false, scopeLine: 1097, flags: DIFlagPrototyped, isOptimized: true)
!895 = !DISubroutineType(types: !896)
!896 = !{!252, !885, !252}
!897 = !{!831}
!898 = !DIGlobalVariableExpression(var: !899)
!899 = distinct !DIGlobalVariable(name: "y", scope: !2, file: !3, line: 8, type: !748, isLocal: false, isDefinition: true)
!900 = !{!901, !904, !908, !912, !913, !921, !923, !930, !934, !936, !938, !942, !946, !950, !952, !956, !961, !965, !969, !971, !973, !975, !977, !979, !981, !985, !989, !993, !997, !1000, !1003, !1007, !1011, !1015, !1019, !1022, !1024, !1026, !1028, !1030, !1032, !1034, !1036, !1038, !1040, !1042, !1044, !1046, !1048, !1050, !1052, !1056, !1059, !1060, !1063, !1064, !1071, !1077, !1083, !1088, !1092, !1096, !1100, !1105, !1110, !1114, !1118, !1122, !1126, !1130, !1134, !1138, !1142, !1146, !1150, !1154, !1156, !1160, !1164, !1166, !1170, !1172, !1179, !1183, !1188, !1192, !1194, !1198, !1202, !1204, !1208, !1214, !1218, !1222, !1228, !1282, !1283, !1284, !1289, !1291, !1295, !1299, !1303, !1305, !1309, !1313, !1317, !1328, !1330, !1334, !1338, !1342, !1344, !1348, !1352, !1356, !1358, !1360, !1362, !1366, !1370, !1375, !1379, !1385, !1389, !1393, !1395, !1397, !1399, !1403, !1407, !1411, !1413, !1415, !1419, !1423, !1425, !1427, !1431, !1435, !1437, !1441, !1443, !1445, !1448, !1450, !1452, !1454, !1456, !1458, !1460, !1462, !1464, !1466, !1468, !1470, !1472, !1474, !1478, !1483, !1488, !1493, !1495, !1498, !1500, !1502, !1504, !1506, !1508, !1510, !1512, !1514, !1516, !1520, !1524, !1528, !1530, !1534, !1538, !1550, !1551, !1566, !1567, !1568, !1573, !1575, !1579, !1583, !1587, !1591, !1593, !1597, !1601, !1605, !1609, !1613, !1617, !1619, !1621, !1625, !1630, !1634, !1638, !1642, !1646, !1650, !1654, !1658, !1662, !1664, !1666, !1670, !1672, !1676, !1680, !1685, !1687, !1689, !1691, !1695, !1699, !1703, !1705, !1709, !1711, !1713, !1715, !1717, !1723, !1727, !1729, !1735, !1740, !1744, !1748, !1753, !1758, !1762, !1766, !1770, !1774, !1776, !1778, !1782, !1783, !1784, !1785, !1789, !1793, !1798, !1803, !1807, !1813, !1817, !1819}
!901 = !DIImportedEntity(tag: DW_TAG_imported_declaration, scope: !7, entity: !902, line: 49)
!902 = !DIDerivedType(tag: DW_TAG_typedef, name: "ptrdiff_t", file: !903, line: 51, baseType: !78)
!903 = !DIFile(filename: "/Users/aser/Documents/LLVM/llvm-4.0/build/bin/../lib/clang/4.0.0/include/stddef.h", directory: "/Users/aser/Dropbox/papers/C++11/Checker11/examples/mo_release_acquire3")
!904 = !DIImportedEntity(tag: DW_TAG_imported_declaration, scope: !7, entity: !905, line: 50)
!905 = !DIDerivedType(tag: DW_TAG_typedef, name: "size_t", file: !906, line: 30, baseType: !907)
!906 = !DIFile(filename: "/usr/include/sys/_types/_size_t.h", directory: "/Users/aser/Dropbox/papers/C++11/Checker11/examples/mo_release_acquire3")
!907 = !DIDerivedType(tag: DW_TAG_typedef, name: "__darwin_size_t", file: !421, line: 92, baseType: !610)
!908 = !DIImportedEntity(tag: DW_TAG_imported_declaration, scope: !7, entity: !909, line: 55)
!909 = !DIDerivedType(tag: DW_TAG_typedef, name: "max_align_t", file: !910, line: 32, baseType: !911)
!910 = !DIFile(filename: "/Users/aser/Documents/LLVM/llvm-4.0/build/bin/../lib/clang/4.0.0/include/__stddef_max_align_t.h", directory: "/Users/aser/Dropbox/papers/C++11/Checker11/examples/mo_release_acquire3")
!911 = !DIBasicType(name: "long double", size: 128, encoding: DW_ATE_float)
!912 = !DIImportedEntity(tag: DW_TAG_imported_declaration, scope: !7, entity: !905, line: 69)
!913 = !DIImportedEntity(tag: DW_TAG_imported_declaration, scope: !7, entity: !914, line: 70)
!914 = !DISubprogram(name: "memcpy", scope: !915, file: !915, line: 72, type: !916, isLocal: false, isDefinition: false, flags: DIFlagPrototyped, isOptimized: true)
!915 = !DIFile(filename: "/usr/include/string.h", directory: "/Users/aser/Dropbox/papers/C++11/Checker11/examples/mo_release_acquire3")
!916 = !DISubroutineType(types: !917)
!917 = !{!918, !918, !919, !905}
!918 = !DIDerivedType(tag: DW_TAG_pointer_type, baseType: null, size: 64)
!919 = !DIDerivedType(tag: DW_TAG_pointer_type, baseType: !920, size: 64)
!920 = !DIDerivedType(tag: DW_TAG_const_type, baseType: null)
!921 = !DIImportedEntity(tag: DW_TAG_imported_declaration, scope: !7, entity: !922, line: 71)
!922 = !DISubprogram(name: "memmove", scope: !915, file: !915, line: 73, type: !916, isLocal: false, isDefinition: false, flags: DIFlagPrototyped, isOptimized: true)
!923 = !DIImportedEntity(tag: DW_TAG_imported_declaration, scope: !7, entity: !924, line: 72)
!924 = !DISubprogram(name: "strcpy", scope: !915, file: !915, line: 79, type: !925, isLocal: false, isDefinition: false, flags: DIFlagPrototyped, isOptimized: true)
!925 = !DISubroutineType(types: !926)
!926 = !{!927, !927, !928}
!927 = !DIDerivedType(tag: DW_TAG_pointer_type, baseType: !81, size: 64)
!928 = !DIDerivedType(tag: DW_TAG_pointer_type, baseType: !929, size: 64)
!929 = !DIDerivedType(tag: DW_TAG_const_type, baseType: !81)
!930 = !DIImportedEntity(tag: DW_TAG_imported_declaration, scope: !7, entity: !931, line: 73)
!931 = !DISubprogram(name: "strncpy", scope: !915, file: !915, line: 85, type: !932, isLocal: false, isDefinition: false, flags: DIFlagPrototyped, isOptimized: true)
!932 = !DISubroutineType(types: !933)
!933 = !{!927, !927, !928, !905}
!934 = !DIImportedEntity(tag: DW_TAG_imported_declaration, scope: !7, entity: !935, line: 74)
!935 = !DISubprogram(name: "strcat", scope: !915, file: !915, line: 75, type: !925, isLocal: false, isDefinition: false, flags: DIFlagPrototyped, isOptimized: true)
!936 = !DIImportedEntity(tag: DW_TAG_imported_declaration, scope: !7, entity: !937, line: 75)
!937 = !DISubprogram(name: "strncat", scope: !915, file: !915, line: 83, type: !932, isLocal: false, isDefinition: false, flags: DIFlagPrototyped, isOptimized: true)
!938 = !DIImportedEntity(tag: DW_TAG_imported_declaration, scope: !7, entity: !939, line: 76)
!939 = !DISubprogram(name: "memcmp", scope: !915, file: !915, line: 71, type: !940, isLocal: false, isDefinition: false, flags: DIFlagPrototyped, isOptimized: true)
!940 = !DISubroutineType(types: !941)
!941 = !{!252, !919, !919, !905}
!942 = !DIImportedEntity(tag: DW_TAG_imported_declaration, scope: !7, entity: !943, line: 77)
!943 = !DISubprogram(name: "strcmp", scope: !915, file: !915, line: 77, type: !944, isLocal: false, isDefinition: false, flags: DIFlagPrototyped, isOptimized: true)
!944 = !DISubroutineType(types: !945)
!945 = !{!252, !928, !928}
!946 = !DIImportedEntity(tag: DW_TAG_imported_declaration, scope: !7, entity: !947, line: 78)
!947 = !DISubprogram(name: "strncmp", scope: !915, file: !915, line: 84, type: !948, isLocal: false, isDefinition: false, flags: DIFlagPrototyped, isOptimized: true)
!948 = !DISubroutineType(types: !949)
!949 = !{!252, !928, !928, !905}
!950 = !DIImportedEntity(tag: DW_TAG_imported_declaration, scope: !7, entity: !951, line: 79)
!951 = !DISubprogram(name: "strcoll", scope: !915, file: !915, line: 78, type: !944, isLocal: false, isDefinition: false, flags: DIFlagPrototyped, isOptimized: true)
!952 = !DIImportedEntity(tag: DW_TAG_imported_declaration, scope: !7, entity: !953, line: 80)
!953 = !DISubprogram(name: "strxfrm", scope: !915, file: !915, line: 91, type: !954, isLocal: false, isDefinition: false, flags: DIFlagPrototyped, isOptimized: true)
!954 = !DISubroutineType(types: !955)
!955 = !{!905, !927, !928, !905}
!956 = !DIImportedEntity(tag: DW_TAG_imported_declaration, scope: !7, entity: !957, line: 81)
!957 = !DISubprogram(name: "memchr", linkageName: "_Z6memchrUa9enable_ifIXLb1EEEPvim", scope: !958, file: !958, line: 99, type: !959, isLocal: false, isDefinition: false, flags: DIFlagPrototyped, isOptimized: true)
!958 = !DIFile(filename: "/Users/aser/Documents/LLVM/llvm-4.0/build/bin/../include/c++/v1/string.h", directory: "/Users/aser/Dropbox/papers/C++11/Checker11/examples/mo_release_acquire3")
!959 = !DISubroutineType(types: !960)
!960 = !{!918, !918, !252, !905}
!961 = !DIImportedEntity(tag: DW_TAG_imported_declaration, scope: !7, entity: !962, line: 82)
!962 = !DISubprogram(name: "strchr", linkageName: "_Z6strchrUa9enable_ifIXLb1EEEPci", scope: !958, file: !958, line: 78, type: !963, isLocal: false, isDefinition: false, flags: DIFlagPrototyped, isOptimized: true)
!963 = !DISubroutineType(types: !964)
!964 = !{!927, !927, !252}
!965 = !DIImportedEntity(tag: DW_TAG_imported_declaration, scope: !7, entity: !966, line: 83)
!966 = !DISubprogram(name: "strcspn", scope: !915, file: !915, line: 80, type: !967, isLocal: false, isDefinition: false, flags: DIFlagPrototyped, isOptimized: true)
!967 = !DISubroutineType(types: !968)
!968 = !{!905, !928, !928}
!969 = !DIImportedEntity(tag: DW_TAG_imported_declaration, scope: !7, entity: !970, line: 84)
!970 = !DISubprogram(name: "strpbrk", linkageName: "_Z7strpbrkUa9enable_ifIXLb1EEEPcPKc", scope: !958, file: !958, line: 85, type: !925, isLocal: false, isDefinition: false, flags: DIFlagPrototyped, isOptimized: true)
!971 = !DIImportedEntity(tag: DW_TAG_imported_declaration, scope: !7, entity: !972, line: 85)
!972 = !DISubprogram(name: "strrchr", linkageName: "_Z7strrchrUa9enable_ifIXLb1EEEPci", scope: !958, file: !958, line: 92, type: !963, isLocal: false, isDefinition: false, flags: DIFlagPrototyped, isOptimized: true)
!973 = !DIImportedEntity(tag: DW_TAG_imported_declaration, scope: !7, entity: !974, line: 86)
!974 = !DISubprogram(name: "strspn", scope: !915, file: !915, line: 88, type: !967, isLocal: false, isDefinition: false, flags: DIFlagPrototyped, isOptimized: true)
!975 = !DIImportedEntity(tag: DW_TAG_imported_declaration, scope: !7, entity: !976, line: 87)
!976 = !DISubprogram(name: "strstr", linkageName: "_Z6strstrUa9enable_ifIXLb1EEEPcPKc", scope: !958, file: !958, line: 106, type: !925, isLocal: false, isDefinition: false, flags: DIFlagPrototyped, isOptimized: true)
!977 = !DIImportedEntity(tag: DW_TAG_imported_declaration, scope: !7, entity: !978, line: 89)
!978 = !DISubprogram(name: "strtok", scope: !915, file: !915, line: 90, type: !925, isLocal: false, isDefinition: false, flags: DIFlagPrototyped, isOptimized: true)
!979 = !DIImportedEntity(tag: DW_TAG_imported_declaration, scope: !7, entity: !980, line: 91)
!980 = !DISubprogram(name: "memset", scope: !915, file: !915, line: 74, type: !959, isLocal: false, isDefinition: false, flags: DIFlagPrototyped, isOptimized: true)
!981 = !DIImportedEntity(tag: DW_TAG_imported_declaration, scope: !7, entity: !982, line: 92)
!982 = !DISubprogram(name: "strerror", linkageName: "\01_strerror", scope: !915, file: !915, line: 81, type: !983, isLocal: false, isDefinition: false, flags: DIFlagPrototyped, isOptimized: true)
!983 = !DISubroutineType(types: !984)
!984 = !{!927, !252}
!985 = !DIImportedEntity(tag: DW_TAG_imported_declaration, scope: !7, entity: !986, line: 93)
!986 = !DISubprogram(name: "strlen", scope: !915, file: !915, line: 82, type: !987, isLocal: false, isDefinition: false, flags: DIFlagPrototyped, isOptimized: true)
!987 = !DISubroutineType(types: !988)
!988 = !{!905, !928}
!989 = !DIImportedEntity(tag: DW_TAG_imported_declaration, scope: !7, entity: !990, line: 153)
!990 = !DIDerivedType(tag: DW_TAG_typedef, name: "int8_t", file: !991, line: 30, baseType: !992)
!991 = !DIFile(filename: "/usr/include/sys/_types/_int8_t.h", directory: "/Users/aser/Dropbox/papers/C++11/Checker11/examples/mo_release_acquire3")
!992 = !DIBasicType(name: "signed char", size: 8, encoding: DW_ATE_signed_char)
!993 = !DIImportedEntity(tag: DW_TAG_imported_declaration, scope: !7, entity: !994, line: 154)
!994 = !DIDerivedType(tag: DW_TAG_typedef, name: "int16_t", file: !995, line: 30, baseType: !996)
!995 = !DIFile(filename: "/usr/include/sys/_types/_int16_t.h", directory: "/Users/aser/Dropbox/papers/C++11/Checker11/examples/mo_release_acquire3")
!996 = !DIBasicType(name: "short", size: 16, encoding: DW_ATE_signed)
!997 = !DIImportedEntity(tag: DW_TAG_imported_declaration, scope: !7, entity: !998, line: 155)
!998 = !DIDerivedType(tag: DW_TAG_typedef, name: "int32_t", file: !999, line: 30, baseType: !252)
!999 = !DIFile(filename: "/usr/include/sys/_types/_int32_t.h", directory: "/Users/aser/Dropbox/papers/C++11/Checker11/examples/mo_release_acquire3")
!1000 = !DIImportedEntity(tag: DW_TAG_imported_declaration, scope: !7, entity: !1001, line: 156)
!1001 = !DIDerivedType(tag: DW_TAG_typedef, name: "int64_t", file: !1002, line: 30, baseType: !225)
!1002 = !DIFile(filename: "/usr/include/sys/_types/_int64_t.h", directory: "/Users/aser/Dropbox/papers/C++11/Checker11/examples/mo_release_acquire3")
!1003 = !DIImportedEntity(tag: DW_TAG_imported_declaration, scope: !7, entity: !1004, line: 158)
!1004 = !DIDerivedType(tag: DW_TAG_typedef, name: "uint8_t", file: !1005, line: 31, baseType: !1006)
!1005 = !DIFile(filename: "/usr/include/_types/_uint8_t.h", directory: "/Users/aser/Dropbox/papers/C++11/Checker11/examples/mo_release_acquire3")
!1006 = !DIBasicType(name: "unsigned char", size: 8, encoding: DW_ATE_unsigned_char)
!1007 = !DIImportedEntity(tag: DW_TAG_imported_declaration, scope: !7, entity: !1008, line: 159)
!1008 = !DIDerivedType(tag: DW_TAG_typedef, name: "uint16_t", file: !1009, line: 31, baseType: !1010)
!1009 = !DIFile(filename: "/usr/include/_types/_uint16_t.h", directory: "/Users/aser/Dropbox/papers/C++11/Checker11/examples/mo_release_acquire3")
!1010 = !DIBasicType(name: "unsigned short", size: 16, encoding: DW_ATE_unsigned)
!1011 = !DIImportedEntity(tag: DW_TAG_imported_declaration, scope: !7, entity: !1012, line: 160)
!1012 = !DIDerivedType(tag: DW_TAG_typedef, name: "uint32_t", file: !1013, line: 31, baseType: !1014)
!1013 = !DIFile(filename: "/usr/include/_types/_uint32_t.h", directory: "/Users/aser/Dropbox/papers/C++11/Checker11/examples/mo_release_acquire3")
!1014 = !DIBasicType(name: "unsigned int", size: 32, encoding: DW_ATE_unsigned)
!1015 = !DIImportedEntity(tag: DW_TAG_imported_declaration, scope: !7, entity: !1016, line: 161)
!1016 = !DIDerivedType(tag: DW_TAG_typedef, name: "uint64_t", file: !1017, line: 31, baseType: !1018)
!1017 = !DIFile(filename: "/usr/include/_types/_uint64_t.h", directory: "/Users/aser/Dropbox/papers/C++11/Checker11/examples/mo_release_acquire3")
!1018 = !DIBasicType(name: "long long unsigned int", size: 64, encoding: DW_ATE_unsigned)
!1019 = !DIImportedEntity(tag: DW_TAG_imported_declaration, scope: !7, entity: !1020, line: 163)
!1020 = !DIDerivedType(tag: DW_TAG_typedef, name: "int_least8_t", file: !1021, line: 29, baseType: !990)
!1021 = !DIFile(filename: "/usr/include/stdint.h", directory: "/Users/aser/Dropbox/papers/C++11/Checker11/examples/mo_release_acquire3")
!1022 = !DIImportedEntity(tag: DW_TAG_imported_declaration, scope: !7, entity: !1023, line: 164)
!1023 = !DIDerivedType(tag: DW_TAG_typedef, name: "int_least16_t", file: !1021, line: 30, baseType: !994)
!1024 = !DIImportedEntity(tag: DW_TAG_imported_declaration, scope: !7, entity: !1025, line: 165)
!1025 = !DIDerivedType(tag: DW_TAG_typedef, name: "int_least32_t", file: !1021, line: 31, baseType: !998)
!1026 = !DIImportedEntity(tag: DW_TAG_imported_declaration, scope: !7, entity: !1027, line: 166)
!1027 = !DIDerivedType(tag: DW_TAG_typedef, name: "int_least64_t", file: !1021, line: 32, baseType: !1001)
!1028 = !DIImportedEntity(tag: DW_TAG_imported_declaration, scope: !7, entity: !1029, line: 168)
!1029 = !DIDerivedType(tag: DW_TAG_typedef, name: "uint_least8_t", file: !1021, line: 33, baseType: !1004)
!1030 = !DIImportedEntity(tag: DW_TAG_imported_declaration, scope: !7, entity: !1031, line: 169)
!1031 = !DIDerivedType(tag: DW_TAG_typedef, name: "uint_least16_t", file: !1021, line: 34, baseType: !1008)
!1032 = !DIImportedEntity(tag: DW_TAG_imported_declaration, scope: !7, entity: !1033, line: 170)
!1033 = !DIDerivedType(tag: DW_TAG_typedef, name: "uint_least32_t", file: !1021, line: 35, baseType: !1012)
!1034 = !DIImportedEntity(tag: DW_TAG_imported_declaration, scope: !7, entity: !1035, line: 171)
!1035 = !DIDerivedType(tag: DW_TAG_typedef, name: "uint_least64_t", file: !1021, line: 36, baseType: !1016)
!1036 = !DIImportedEntity(tag: DW_TAG_imported_declaration, scope: !7, entity: !1037, line: 173)
!1037 = !DIDerivedType(tag: DW_TAG_typedef, name: "int_fast8_t", file: !1021, line: 40, baseType: !990)
!1038 = !DIImportedEntity(tag: DW_TAG_imported_declaration, scope: !7, entity: !1039, line: 174)
!1039 = !DIDerivedType(tag: DW_TAG_typedef, name: "int_fast16_t", file: !1021, line: 41, baseType: !994)
!1040 = !DIImportedEntity(tag: DW_TAG_imported_declaration, scope: !7, entity: !1041, line: 175)
!1041 = !DIDerivedType(tag: DW_TAG_typedef, name: "int_fast32_t", file: !1021, line: 42, baseType: !998)
!1042 = !DIImportedEntity(tag: DW_TAG_imported_declaration, scope: !7, entity: !1043, line: 176)
!1043 = !DIDerivedType(tag: DW_TAG_typedef, name: "int_fast64_t", file: !1021, line: 43, baseType: !1001)
!1044 = !DIImportedEntity(tag: DW_TAG_imported_declaration, scope: !7, entity: !1045, line: 178)
!1045 = !DIDerivedType(tag: DW_TAG_typedef, name: "uint_fast8_t", file: !1021, line: 44, baseType: !1004)
!1046 = !DIImportedEntity(tag: DW_TAG_imported_declaration, scope: !7, entity: !1047, line: 179)
!1047 = !DIDerivedType(tag: DW_TAG_typedef, name: "uint_fast16_t", file: !1021, line: 45, baseType: !1008)
!1048 = !DIImportedEntity(tag: DW_TAG_imported_declaration, scope: !7, entity: !1049, line: 180)
!1049 = !DIDerivedType(tag: DW_TAG_typedef, name: "uint_fast32_t", file: !1021, line: 46, baseType: !1012)
!1050 = !DIImportedEntity(tag: DW_TAG_imported_declaration, scope: !7, entity: !1051, line: 181)
!1051 = !DIDerivedType(tag: DW_TAG_typedef, name: "uint_fast64_t", file: !1021, line: 47, baseType: !1016)
!1052 = !DIImportedEntity(tag: DW_TAG_imported_declaration, scope: !7, entity: !1053, line: 183)
!1053 = !DIDerivedType(tag: DW_TAG_typedef, name: "intptr_t", file: !1054, line: 30, baseType: !1055)
!1054 = !DIFile(filename: "/usr/include/sys/_types/_intptr_t.h", directory: "/Users/aser/Dropbox/papers/C++11/Checker11/examples/mo_release_acquire3")
!1055 = !DIDerivedType(tag: DW_TAG_typedef, name: "__darwin_intptr_t", file: !421, line: 49, baseType: !78)
!1056 = !DIImportedEntity(tag: DW_TAG_imported_declaration, scope: !7, entity: !1057, line: 184)
!1057 = !DIDerivedType(tag: DW_TAG_typedef, name: "uintptr_t", file: !1058, line: 30, baseType: !610)
!1058 = !DIFile(filename: "/usr/include/sys/_types/_uintptr_t.h", directory: "/Users/aser/Dropbox/papers/C++11/Checker11/examples/mo_release_acquire3")
!1059 = !DIImportedEntity(tag: DW_TAG_imported_declaration, scope: !7, entity: !281, line: 186)
!1060 = !DIImportedEntity(tag: DW_TAG_imported_declaration, scope: !7, entity: !1061, line: 187)
!1061 = !DIDerivedType(tag: DW_TAG_typedef, name: "uintmax_t", file: !1062, line: 32, baseType: !610)
!1062 = !DIFile(filename: "/usr/include/_types/_uintmax_t.h", directory: "/Users/aser/Dropbox/papers/C++11/Checker11/examples/mo_release_acquire3")
!1063 = !DIImportedEntity(tag: DW_TAG_imported_declaration, scope: !7, entity: !905, line: 100)
!1064 = !DIImportedEntity(tag: DW_TAG_imported_declaration, scope: !7, entity: !1065, line: 101)
!1065 = !DIDerivedType(tag: DW_TAG_typedef, name: "div_t", file: !1066, line: 85, baseType: !1067)
!1066 = !DIFile(filename: "/usr/include/stdlib.h", directory: "/Users/aser/Dropbox/papers/C++11/Checker11/examples/mo_release_acquire3")
!1067 = distinct !DICompositeType(tag: DW_TAG_structure_type, file: !1066, line: 82, size: 64, elements: !1068, identifier: "_ZTS5div_t")
!1068 = !{!1069, !1070}
!1069 = !DIDerivedType(tag: DW_TAG_member, name: "quot", scope: !1067, file: !1066, line: 83, baseType: !252, size: 32)
!1070 = !DIDerivedType(tag: DW_TAG_member, name: "rem", scope: !1067, file: !1066, line: 84, baseType: !252, size: 32, offset: 32)
!1071 = !DIImportedEntity(tag: DW_TAG_imported_declaration, scope: !7, entity: !1072, line: 102)
!1072 = !DIDerivedType(tag: DW_TAG_typedef, name: "ldiv_t", file: !1066, line: 90, baseType: !1073)
!1073 = distinct !DICompositeType(tag: DW_TAG_structure_type, file: !1066, line: 87, size: 128, elements: !1074, identifier: "_ZTS6ldiv_t")
!1074 = !{!1075, !1076}
!1075 = !DIDerivedType(tag: DW_TAG_member, name: "quot", scope: !1073, file: !1066, line: 88, baseType: !78, size: 64)
!1076 = !DIDerivedType(tag: DW_TAG_member, name: "rem", scope: !1073, file: !1066, line: 89, baseType: !78, size: 64, offset: 64)
!1077 = !DIImportedEntity(tag: DW_TAG_imported_declaration, scope: !7, entity: !1078, line: 104)
!1078 = !DIDerivedType(tag: DW_TAG_typedef, name: "lldiv_t", file: !1066, line: 96, baseType: !1079)
!1079 = distinct !DICompositeType(tag: DW_TAG_structure_type, file: !1066, line: 93, size: 128, elements: !1080, identifier: "_ZTS7lldiv_t")
!1080 = !{!1081, !1082}
!1081 = !DIDerivedType(tag: DW_TAG_member, name: "quot", scope: !1079, file: !1066, line: 94, baseType: !225, size: 64)
!1082 = !DIDerivedType(tag: DW_TAG_member, name: "rem", scope: !1079, file: !1066, line: 95, baseType: !225, size: 64, offset: 64)
!1083 = !DIImportedEntity(tag: DW_TAG_imported_declaration, scope: !7, entity: !1084, line: 106)
!1084 = !DISubprogram(name: "atof", scope: !1066, file: !1066, line: 131, type: !1085, isLocal: false, isDefinition: false, flags: DIFlagPrototyped, isOptimized: true)
!1085 = !DISubroutineType(types: !1086)
!1086 = !{!1087, !928}
!1087 = !DIBasicType(name: "double", size: 64, encoding: DW_ATE_float)
!1088 = !DIImportedEntity(tag: DW_TAG_imported_declaration, scope: !7, entity: !1089, line: 107)
!1089 = !DISubprogram(name: "atoi", scope: !1066, file: !1066, line: 132, type: !1090, isLocal: false, isDefinition: false, flags: DIFlagPrototyped, isOptimized: true)
!1090 = !DISubroutineType(types: !1091)
!1091 = !{!252, !928}
!1092 = !DIImportedEntity(tag: DW_TAG_imported_declaration, scope: !7, entity: !1093, line: 108)
!1093 = !DISubprogram(name: "atol", scope: !1066, file: !1066, line: 133, type: !1094, isLocal: false, isDefinition: false, flags: DIFlagPrototyped, isOptimized: true)
!1094 = !DISubroutineType(types: !1095)
!1095 = !{!78, !928}
!1096 = !DIImportedEntity(tag: DW_TAG_imported_declaration, scope: !7, entity: !1097, line: 110)
!1097 = !DISubprogram(name: "atoll", scope: !1066, file: !1066, line: 136, type: !1098, isLocal: false, isDefinition: false, flags: DIFlagPrototyped, isOptimized: true)
!1098 = !DISubroutineType(types: !1099)
!1099 = !{!225, !928}
!1100 = !DIImportedEntity(tag: DW_TAG_imported_declaration, scope: !7, entity: !1101, line: 112)
!1101 = !DISubprogram(name: "strtod", linkageName: "\01_strtod", scope: !1066, file: !1066, line: 162, type: !1102, isLocal: false, isDefinition: false, flags: DIFlagPrototyped, isOptimized: true)
!1102 = !DISubroutineType(types: !1103)
!1103 = !{!1087, !928, !1104}
!1104 = !DIDerivedType(tag: DW_TAG_pointer_type, baseType: !927, size: 64)
!1105 = !DIImportedEntity(tag: DW_TAG_imported_declaration, scope: !7, entity: !1106, line: 113)
!1106 = !DISubprogram(name: "strtof", linkageName: "\01_strtof", scope: !1066, file: !1066, line: 163, type: !1107, isLocal: false, isDefinition: false, flags: DIFlagPrototyped, isOptimized: true)
!1107 = !DISubroutineType(types: !1108)
!1108 = !{!1109, !928, !1104}
!1109 = !DIBasicType(name: "float", size: 32, encoding: DW_ATE_float)
!1110 = !DIImportedEntity(tag: DW_TAG_imported_declaration, scope: !7, entity: !1111, line: 114)
!1111 = !DISubprogram(name: "strtold", scope: !1066, file: !1066, line: 166, type: !1112, isLocal: false, isDefinition: false, flags: DIFlagPrototyped, isOptimized: true)
!1112 = !DISubroutineType(types: !1113)
!1113 = !{!911, !928, !1104}
!1114 = !DIImportedEntity(tag: DW_TAG_imported_declaration, scope: !7, entity: !1115, line: 115)
!1115 = !DISubprogram(name: "strtol", scope: !1066, file: !1066, line: 164, type: !1116, isLocal: false, isDefinition: false, flags: DIFlagPrototyped, isOptimized: true)
!1116 = !DISubroutineType(types: !1117)
!1117 = !{!78, !928, !1104, !252}
!1118 = !DIImportedEntity(tag: DW_TAG_imported_declaration, scope: !7, entity: !1119, line: 117)
!1119 = !DISubprogram(name: "strtoll", scope: !1066, file: !1066, line: 169, type: !1120, isLocal: false, isDefinition: false, flags: DIFlagPrototyped, isOptimized: true)
!1120 = !DISubroutineType(types: !1121)
!1121 = !{!225, !928, !1104, !252}
!1122 = !DIImportedEntity(tag: DW_TAG_imported_declaration, scope: !7, entity: !1123, line: 119)
!1123 = !DISubprogram(name: "strtoul", scope: !1066, file: !1066, line: 172, type: !1124, isLocal: false, isDefinition: false, flags: DIFlagPrototyped, isOptimized: true)
!1124 = !DISubroutineType(types: !1125)
!1125 = !{!610, !928, !1104, !252}
!1126 = !DIImportedEntity(tag: DW_TAG_imported_declaration, scope: !7, entity: !1127, line: 121)
!1127 = !DISubprogram(name: "strtoull", scope: !1066, file: !1066, line: 175, type: !1128, isLocal: false, isDefinition: false, flags: DIFlagPrototyped, isOptimized: true)
!1128 = !DISubroutineType(types: !1129)
!1129 = !{!1018, !928, !1104, !252}
!1130 = !DIImportedEntity(tag: DW_TAG_imported_declaration, scope: !7, entity: !1131, line: 123)
!1131 = !DISubprogram(name: "rand", scope: !1066, file: !1066, line: 159, type: !1132, isLocal: false, isDefinition: false, flags: DIFlagPrototyped, isOptimized: true)
!1132 = !DISubroutineType(types: !1133)
!1133 = !{!252}
!1134 = !DIImportedEntity(tag: DW_TAG_imported_declaration, scope: !7, entity: !1135, line: 124)
!1135 = !DISubprogram(name: "srand", scope: !1066, file: !1066, line: 161, type: !1136, isLocal: false, isDefinition: false, flags: DIFlagPrototyped, isOptimized: true)
!1136 = !DISubroutineType(types: !1137)
!1137 = !{null, !1014}
!1138 = !DIImportedEntity(tag: DW_TAG_imported_declaration, scope: !7, entity: !1139, line: 125)
!1139 = !DISubprogram(name: "calloc", scope: !1066, file: !1066, line: 140, type: !1140, isLocal: false, isDefinition: false, flags: DIFlagPrototyped, isOptimized: true)
!1140 = !DISubroutineType(types: !1141)
!1141 = !{!918, !905, !905}
!1142 = !DIImportedEntity(tag: DW_TAG_imported_declaration, scope: !7, entity: !1143, line: 126)
!1143 = !DISubprogram(name: "free", scope: !1066, file: !1066, line: 143, type: !1144, isLocal: false, isDefinition: false, flags: DIFlagPrototyped, isOptimized: true)
!1144 = !DISubroutineType(types: !1145)
!1145 = !{null, !918}
!1146 = !DIImportedEntity(tag: DW_TAG_imported_declaration, scope: !7, entity: !1147, line: 127)
!1147 = !DISubprogram(name: "malloc", scope: !1066, file: !1066, line: 152, type: !1148, isLocal: false, isDefinition: false, flags: DIFlagPrototyped, isOptimized: true)
!1148 = !DISubroutineType(types: !1149)
!1149 = !{!918, !905}
!1150 = !DIImportedEntity(tag: DW_TAG_imported_declaration, scope: !7, entity: !1151, line: 128)
!1151 = !DISubprogram(name: "realloc", scope: !1066, file: !1066, line: 160, type: !1152, isLocal: false, isDefinition: false, flags: DIFlagPrototyped, isOptimized: true)
!1152 = !DISubroutineType(types: !1153)
!1153 = !{!918, !918, !905}
!1154 = !DIImportedEntity(tag: DW_TAG_imported_declaration, scope: !7, entity: !1155, line: 129)
!1155 = !DISubprogram(name: "abort", scope: !1066, file: !1066, line: 128, type: !617, isLocal: false, isDefinition: false, flags: DIFlagPrototyped | DIFlagNoReturn, isOptimized: true)
!1156 = !DIImportedEntity(tag: DW_TAG_imported_declaration, scope: !7, entity: !1157, line: 130)
!1157 = !DISubprogram(name: "atexit", scope: !1066, file: !1066, line: 130, type: !1158, isLocal: false, isDefinition: false, flags: DIFlagPrototyped, isOptimized: true)
!1158 = !DISubroutineType(types: !1159)
!1159 = !{!252, !616}
!1160 = !DIImportedEntity(tag: DW_TAG_imported_declaration, scope: !7, entity: !1161, line: 131)
!1161 = !DISubprogram(name: "exit", scope: !1066, file: !1066, line: 142, type: !1162, isLocal: false, isDefinition: false, flags: DIFlagPrototyped | DIFlagNoReturn, isOptimized: true)
!1162 = !DISubroutineType(types: !1163)
!1163 = !{null, !252}
!1164 = !DIImportedEntity(tag: DW_TAG_imported_declaration, scope: !7, entity: !1165, line: 132)
!1165 = !DISubprogram(name: "_Exit", scope: !1066, file: !1066, line: 182, type: !1162, isLocal: false, isDefinition: false, flags: DIFlagPrototyped | DIFlagNoReturn, isOptimized: true)
!1166 = !DIImportedEntity(tag: DW_TAG_imported_declaration, scope: !7, entity: !1167, line: 134)
!1167 = !DISubprogram(name: "getenv", scope: !1066, file: !1066, line: 144, type: !1168, isLocal: false, isDefinition: false, flags: DIFlagPrototyped, isOptimized: true)
!1168 = !DISubroutineType(types: !1169)
!1169 = !{!927, !928}
!1170 = !DIImportedEntity(tag: DW_TAG_imported_declaration, scope: !7, entity: !1171, line: 135)
!1171 = !DISubprogram(name: "system", linkageName: "\01_system", scope: !1066, file: !1066, line: 177, type: !1090, isLocal: false, isDefinition: false, flags: DIFlagPrototyped, isOptimized: true)
!1172 = !DIImportedEntity(tag: DW_TAG_imported_declaration, scope: !7, entity: !1173, line: 137)
!1173 = !DISubprogram(name: "bsearch", scope: !1066, file: !1066, line: 138, type: !1174, isLocal: false, isDefinition: false, flags: DIFlagPrototyped, isOptimized: true)
!1174 = !DISubroutineType(types: !1175)
!1175 = !{!918, !919, !919, !905, !905, !1176}
!1176 = !DIDerivedType(tag: DW_TAG_pointer_type, baseType: !1177, size: 64)
!1177 = !DISubroutineType(types: !1178)
!1178 = !{!252, !919, !919}
!1179 = !DIImportedEntity(tag: DW_TAG_imported_declaration, scope: !7, entity: !1180, line: 138)
!1180 = !DISubprogram(name: "qsort", scope: !1066, file: !1066, line: 157, type: !1181, isLocal: false, isDefinition: false, flags: DIFlagPrototyped, isOptimized: true)
!1181 = !DISubroutineType(types: !1182)
!1182 = !{null, !918, !905, !905, !1176}
!1183 = !DIImportedEntity(tag: DW_TAG_imported_declaration, scope: !7, entity: !1184, line: 139)
!1184 = !DISubprogram(name: "abs", linkageName: "_Z3absx", scope: !1185, file: !1185, line: 113, type: !1186, isLocal: false, isDefinition: false, flags: DIFlagPrototyped, isOptimized: true)
!1185 = !DIFile(filename: "/Users/aser/Documents/LLVM/llvm-4.0/build/bin/../include/c++/v1/stdlib.h", directory: "/Users/aser/Dropbox/papers/C++11/Checker11/examples/mo_release_acquire3")
!1186 = !DISubroutineType(types: !1187)
!1187 = !{!225, !225}
!1188 = !DIImportedEntity(tag: DW_TAG_imported_declaration, scope: !7, entity: !1189, line: 140)
!1189 = !DISubprogram(name: "labs", scope: !1066, file: !1066, line: 145, type: !1190, isLocal: false, isDefinition: false, flags: DIFlagPrototyped, isOptimized: true)
!1190 = !DISubroutineType(types: !1191)
!1191 = !{!78, !78}
!1192 = !DIImportedEntity(tag: DW_TAG_imported_declaration, scope: !7, entity: !1193, line: 142)
!1193 = !DISubprogram(name: "llabs", scope: !1066, file: !1066, line: 149, type: !1186, isLocal: false, isDefinition: false, flags: DIFlagPrototyped, isOptimized: true)
!1194 = !DIImportedEntity(tag: DW_TAG_imported_declaration, scope: !7, entity: !1195, line: 144)
!1195 = !DISubprogram(name: "div", linkageName: "_Z3divxx", scope: !1185, file: !1185, line: 118, type: !1196, isLocal: false, isDefinition: false, flags: DIFlagPrototyped, isOptimized: true)
!1196 = !DISubroutineType(types: !1197)
!1197 = !{!1078, !225, !225}
!1198 = !DIImportedEntity(tag: DW_TAG_imported_declaration, scope: !7, entity: !1199, line: 145)
!1199 = !DISubprogram(name: "ldiv", scope: !1066, file: !1066, line: 146, type: !1200, isLocal: false, isDefinition: false, flags: DIFlagPrototyped, isOptimized: true)
!1200 = !DISubroutineType(types: !1201)
!1201 = !{!1072, !78, !78}
!1202 = !DIImportedEntity(tag: DW_TAG_imported_declaration, scope: !7, entity: !1203, line: 147)
!1203 = !DISubprogram(name: "lldiv", scope: !1066, file: !1066, line: 150, type: !1196, isLocal: false, isDefinition: false, flags: DIFlagPrototyped, isOptimized: true)
!1204 = !DIImportedEntity(tag: DW_TAG_imported_declaration, scope: !7, entity: !1205, line: 149)
!1205 = !DISubprogram(name: "mblen", scope: !1066, file: !1066, line: 153, type: !1206, isLocal: false, isDefinition: false, flags: DIFlagPrototyped, isOptimized: true)
!1206 = !DISubroutineType(types: !1207)
!1207 = !{!252, !928, !905}
!1208 = !DIImportedEntity(tag: DW_TAG_imported_declaration, scope: !7, entity: !1209, line: 150)
!1209 = !DISubprogram(name: "mbtowc", scope: !1066, file: !1066, line: 155, type: !1210, isLocal: false, isDefinition: false, flags: DIFlagPrototyped, isOptimized: true)
!1210 = !DISubroutineType(types: !1211)
!1211 = !{!252, !1212, !928, !905}
!1212 = !DIDerivedType(tag: DW_TAG_pointer_type, baseType: !1213, size: 64)
!1213 = !DIBasicType(name: "wchar_t", size: 32, encoding: DW_ATE_signed)
!1214 = !DIImportedEntity(tag: DW_TAG_imported_declaration, scope: !7, entity: !1215, line: 151)
!1215 = !DISubprogram(name: "wctomb", scope: !1066, file: !1066, line: 179, type: !1216, isLocal: false, isDefinition: false, flags: DIFlagPrototyped, isOptimized: true)
!1216 = !DISubroutineType(types: !1217)
!1217 = !{!252, !927, !1213}
!1218 = !DIImportedEntity(tag: DW_TAG_imported_declaration, scope: !7, entity: !1219, line: 152)
!1219 = !DISubprogram(name: "mbstowcs", scope: !1066, file: !1066, line: 154, type: !1220, isLocal: false, isDefinition: false, flags: DIFlagPrototyped, isOptimized: true)
!1220 = !DISubroutineType(types: !1221)
!1221 = !{!905, !1212, !928, !905}
!1222 = !DIImportedEntity(tag: DW_TAG_imported_declaration, scope: !7, entity: !1223, line: 153)
!1223 = !DISubprogram(name: "wcstombs", scope: !1066, file: !1066, line: 178, type: !1224, isLocal: false, isDefinition: false, flags: DIFlagPrototyped, isOptimized: true)
!1224 = !DISubroutineType(types: !1225)
!1225 = !{!905, !927, !1226, !905}
!1226 = !DIDerivedType(tag: DW_TAG_pointer_type, baseType: !1227, size: 64)
!1227 = !DIDerivedType(tag: DW_TAG_const_type, baseType: !1213)
!1228 = !DIImportedEntity(tag: DW_TAG_imported_declaration, scope: !7, entity: !1229, line: 108)
!1229 = !DIDerivedType(tag: DW_TAG_typedef, name: "FILE", file: !1230, line: 153, baseType: !1231)
!1230 = !DIFile(filename: "/usr/include/stdio.h", directory: "/Users/aser/Dropbox/papers/C++11/Checker11/examples/mo_release_acquire3")
!1231 = distinct !DICompositeType(tag: DW_TAG_structure_type, name: "__sFILE", file: !1230, line: 122, size: 1216, elements: !1232, identifier: "_ZTS7__sFILE")
!1232 = !{!1233, !1235, !1236, !1237, !1238, !1239, !1244, !1245, !1246, !1250, !1254, !1262, !1266, !1267, !1270, !1271, !1275, !1279, !1280, !1281}
!1233 = !DIDerivedType(tag: DW_TAG_member, name: "_p", scope: !1231, file: !1230, line: 123, baseType: !1234, size: 64)
!1234 = !DIDerivedType(tag: DW_TAG_pointer_type, baseType: !1006, size: 64)
!1235 = !DIDerivedType(tag: DW_TAG_member, name: "_r", scope: !1231, file: !1230, line: 124, baseType: !252, size: 32, offset: 64)
!1236 = !DIDerivedType(tag: DW_TAG_member, name: "_w", scope: !1231, file: !1230, line: 125, baseType: !252, size: 32, offset: 96)
!1237 = !DIDerivedType(tag: DW_TAG_member, name: "_flags", scope: !1231, file: !1230, line: 126, baseType: !996, size: 16, offset: 128)
!1238 = !DIDerivedType(tag: DW_TAG_member, name: "_file", scope: !1231, file: !1230, line: 127, baseType: !996, size: 16, offset: 144)
!1239 = !DIDerivedType(tag: DW_TAG_member, name: "_bf", scope: !1231, file: !1230, line: 128, baseType: !1240, size: 128, offset: 192)
!1240 = distinct !DICompositeType(tag: DW_TAG_structure_type, name: "__sbuf", file: !1230, line: 88, size: 128, elements: !1241, identifier: "_ZTS6__sbuf")
!1241 = !{!1242, !1243}
!1242 = !DIDerivedType(tag: DW_TAG_member, name: "_base", scope: !1240, file: !1230, line: 89, baseType: !1234, size: 64)
!1243 = !DIDerivedType(tag: DW_TAG_member, name: "_size", scope: !1240, file: !1230, line: 90, baseType: !252, size: 32, offset: 64)
!1244 = !DIDerivedType(tag: DW_TAG_member, name: "_lbfsize", scope: !1231, file: !1230, line: 129, baseType: !252, size: 32, offset: 320)
!1245 = !DIDerivedType(tag: DW_TAG_member, name: "_cookie", scope: !1231, file: !1230, line: 132, baseType: !918, size: 64, offset: 384)
!1246 = !DIDerivedType(tag: DW_TAG_member, name: "_close", scope: !1231, file: !1230, line: 133, baseType: !1247, size: 64, offset: 448)
!1247 = !DIDerivedType(tag: DW_TAG_pointer_type, baseType: !1248, size: 64)
!1248 = !DISubroutineType(types: !1249)
!1249 = !{!252, !918}
!1250 = !DIDerivedType(tag: DW_TAG_member, name: "_read", scope: !1231, file: !1230, line: 134, baseType: !1251, size: 64, offset: 512)
!1251 = !DIDerivedType(tag: DW_TAG_pointer_type, baseType: !1252, size: 64)
!1252 = !DISubroutineType(types: !1253)
!1253 = !{!252, !918, !927, !252}
!1254 = !DIDerivedType(tag: DW_TAG_member, name: "_seek", scope: !1231, file: !1230, line: 135, baseType: !1255, size: 64, offset: 576)
!1255 = !DIDerivedType(tag: DW_TAG_pointer_type, baseType: !1256, size: 64)
!1256 = !DISubroutineType(types: !1257)
!1257 = !{!1258, !918, !1258, !252}
!1258 = !DIDerivedType(tag: DW_TAG_typedef, name: "fpos_t", file: !1230, line: 77, baseType: !1259)
!1259 = !DIDerivedType(tag: DW_TAG_typedef, name: "__darwin_off_t", file: !1260, line: 71, baseType: !1261)
!1260 = !DIFile(filename: "/usr/include/sys/_types.h", directory: "/Users/aser/Dropbox/papers/C++11/Checker11/examples/mo_release_acquire3")
!1261 = !DIDerivedType(tag: DW_TAG_typedef, name: "__int64_t", file: !421, line: 46, baseType: !225)
!1262 = !DIDerivedType(tag: DW_TAG_member, name: "_write", scope: !1231, file: !1230, line: 136, baseType: !1263, size: 64, offset: 640)
!1263 = !DIDerivedType(tag: DW_TAG_pointer_type, baseType: !1264, size: 64)
!1264 = !DISubroutineType(types: !1265)
!1265 = !{!252, !918, !928, !252}
!1266 = !DIDerivedType(tag: DW_TAG_member, name: "_ub", scope: !1231, file: !1230, line: 139, baseType: !1240, size: 128, offset: 704)
!1267 = !DIDerivedType(tag: DW_TAG_member, name: "_extra", scope: !1231, file: !1230, line: 140, baseType: !1268, size: 64, offset: 832)
!1268 = !DIDerivedType(tag: DW_TAG_pointer_type, baseType: !1269, size: 64)
!1269 = !DICompositeType(tag: DW_TAG_structure_type, name: "__sFILEX", file: !1230, line: 94, flags: DIFlagFwdDecl, identifier: "_ZTS8__sFILEX")
!1270 = !DIDerivedType(tag: DW_TAG_member, name: "_ur", scope: !1231, file: !1230, line: 141, baseType: !252, size: 32, offset: 896)
!1271 = !DIDerivedType(tag: DW_TAG_member, name: "_ubuf", scope: !1231, file: !1230, line: 144, baseType: !1272, size: 24, offset: 928)
!1272 = !DICompositeType(tag: DW_TAG_array_type, baseType: !1006, size: 24, elements: !1273)
!1273 = !{!1274}
!1274 = !DISubrange(count: 3)
!1275 = !DIDerivedType(tag: DW_TAG_member, name: "_nbuf", scope: !1231, file: !1230, line: 145, baseType: !1276, size: 8, offset: 952)
!1276 = !DICompositeType(tag: DW_TAG_array_type, baseType: !1006, size: 8, elements: !1277)
!1277 = !{!1278}
!1278 = !DISubrange(count: 1)
!1279 = !DIDerivedType(tag: DW_TAG_member, name: "_lb", scope: !1231, file: !1230, line: 148, baseType: !1240, size: 128, offset: 960)
!1280 = !DIDerivedType(tag: DW_TAG_member, name: "_blksize", scope: !1231, file: !1230, line: 151, baseType: !252, size: 32, offset: 1088)
!1281 = !DIDerivedType(tag: DW_TAG_member, name: "_offset", scope: !1231, file: !1230, line: 152, baseType: !1258, size: 64, offset: 1152)
!1282 = !DIImportedEntity(tag: DW_TAG_imported_declaration, scope: !7, entity: !1258, line: 109)
!1283 = !DIImportedEntity(tag: DW_TAG_imported_declaration, scope: !7, entity: !905, line: 110)
!1284 = !DIImportedEntity(tag: DW_TAG_imported_declaration, scope: !7, entity: !1285, line: 112)
!1285 = !DISubprogram(name: "fclose", scope: !1230, file: !1230, line: 232, type: !1286, isLocal: false, isDefinition: false, flags: DIFlagPrototyped, isOptimized: true)
!1286 = !DISubroutineType(types: !1287)
!1287 = !{!252, !1288}
!1288 = !DIDerivedType(tag: DW_TAG_pointer_type, baseType: !1229, size: 64)
!1289 = !DIImportedEntity(tag: DW_TAG_imported_declaration, scope: !7, entity: !1290, line: 113)
!1290 = !DISubprogram(name: "fflush", scope: !1230, file: !1230, line: 235, type: !1286, isLocal: false, isDefinition: false, flags: DIFlagPrototyped, isOptimized: true)
!1291 = !DIImportedEntity(tag: DW_TAG_imported_declaration, scope: !7, entity: !1292, line: 114)
!1292 = !DISubprogram(name: "setbuf", scope: !1230, file: !1230, line: 267, type: !1293, isLocal: false, isDefinition: false, flags: DIFlagPrototyped, isOptimized: true)
!1293 = !DISubroutineType(types: !1294)
!1294 = !{null, !1288, !927}
!1295 = !DIImportedEntity(tag: DW_TAG_imported_declaration, scope: !7, entity: !1296, line: 115)
!1296 = !DISubprogram(name: "setvbuf", scope: !1230, file: !1230, line: 268, type: !1297, isLocal: false, isDefinition: false, flags: DIFlagPrototyped, isOptimized: true)
!1297 = !DISubroutineType(types: !1298)
!1298 = !{!252, !1288, !927, !252, !905}
!1299 = !DIImportedEntity(tag: DW_TAG_imported_declaration, scope: !7, entity: !1300, line: 116)
!1300 = !DISubprogram(name: "fprintf", scope: !1230, file: !1230, line: 244, type: !1301, isLocal: false, isDefinition: false, flags: DIFlagPrototyped, isOptimized: true)
!1301 = !DISubroutineType(types: !1302)
!1302 = !{!252, !1288, !928, null}
!1303 = !DIImportedEntity(tag: DW_TAG_imported_declaration, scope: !7, entity: !1304, line: 117)
!1304 = !DISubprogram(name: "fscanf", scope: !1230, file: !1230, line: 250, type: !1301, isLocal: false, isDefinition: false, flags: DIFlagPrototyped, isOptimized: true)
!1305 = !DIImportedEntity(tag: DW_TAG_imported_declaration, scope: !7, entity: !1306, line: 118)
!1306 = !DISubprogram(name: "snprintf", scope: !1230, file: !1230, line: 421, type: !1307, isLocal: false, isDefinition: false, flags: DIFlagPrototyped, isOptimized: true)
!1307 = !DISubroutineType(types: !1308)
!1308 = !{!252, !927, !905, !928, null}
!1309 = !DIImportedEntity(tag: DW_TAG_imported_declaration, scope: !7, entity: !1310, line: 119)
!1310 = !DISubprogram(name: "sprintf", scope: !1230, file: !1230, line: 269, type: !1311, isLocal: false, isDefinition: false, flags: DIFlagPrototyped, isOptimized: true)
!1311 = !DISubroutineType(types: !1312)
!1312 = !{!252, !927, !928, null}
!1313 = !DIImportedEntity(tag: DW_TAG_imported_declaration, scope: !7, entity: !1314, line: 120)
!1314 = !DISubprogram(name: "sscanf", scope: !1230, file: !1230, line: 270, type: !1315, isLocal: false, isDefinition: false, flags: DIFlagPrototyped, isOptimized: true)
!1315 = !DISubroutineType(types: !1316)
!1316 = !{!252, !928, !928, null}
!1317 = !DIImportedEntity(tag: DW_TAG_imported_declaration, scope: !7, entity: !1318, line: 121)
!1318 = !DISubprogram(name: "vfprintf", scope: !1230, file: !1230, line: 278, type: !1319, isLocal: false, isDefinition: false, flags: DIFlagPrototyped, isOptimized: true)
!1319 = !DISubroutineType(types: !1320)
!1320 = !{!252, !1288, !928, !1321}
!1321 = !DIDerivedType(tag: DW_TAG_pointer_type, baseType: !1322, size: 64)
!1322 = distinct !DICompositeType(tag: DW_TAG_structure_type, name: "__va_list_tag", file: !3, size: 192, elements: !1323, identifier: "_ZTS13__va_list_tag")
!1323 = !{!1324, !1325, !1326, !1327}
!1324 = !DIDerivedType(tag: DW_TAG_member, name: "gp_offset", scope: !1322, file: !3, baseType: !1014, size: 32)
!1325 = !DIDerivedType(tag: DW_TAG_member, name: "fp_offset", scope: !1322, file: !3, baseType: !1014, size: 32, offset: 32)
!1326 = !DIDerivedType(tag: DW_TAG_member, name: "overflow_arg_area", scope: !1322, file: !3, baseType: !918, size: 64, offset: 64)
!1327 = !DIDerivedType(tag: DW_TAG_member, name: "reg_save_area", scope: !1322, file: !3, baseType: !918, size: 64, offset: 128)
!1328 = !DIImportedEntity(tag: DW_TAG_imported_declaration, scope: !7, entity: !1329, line: 122)
!1329 = !DISubprogram(name: "vfscanf", scope: !1230, file: !1230, line: 422, type: !1319, isLocal: false, isDefinition: false, flags: DIFlagPrototyped, isOptimized: true)
!1330 = !DIImportedEntity(tag: DW_TAG_imported_declaration, scope: !7, entity: !1331, line: 123)
!1331 = !DISubprogram(name: "vsscanf", scope: !1230, file: !1230, line: 425, type: !1332, isLocal: false, isDefinition: false, flags: DIFlagPrototyped, isOptimized: true)
!1332 = !DISubroutineType(types: !1333)
!1333 = !{!252, !928, !928, !1321}
!1334 = !DIImportedEntity(tag: DW_TAG_imported_declaration, scope: !7, entity: !1335, line: 124)
!1335 = !DISubprogram(name: "vsnprintf", scope: !1230, file: !1230, line: 424, type: !1336, isLocal: false, isDefinition: false, flags: DIFlagPrototyped, isOptimized: true)
!1336 = !DISubroutineType(types: !1337)
!1337 = !{!252, !927, !905, !928, !1321}
!1338 = !DIImportedEntity(tag: DW_TAG_imported_declaration, scope: !7, entity: !1339, line: 125)
!1339 = !DISubprogram(name: "vsprintf", scope: !1230, file: !1230, line: 280, type: !1340, isLocal: false, isDefinition: false, flags: DIFlagPrototyped, isOptimized: true)
!1340 = !DISubroutineType(types: !1341)
!1341 = !{!252, !927, !928, !1321}
!1342 = !DIImportedEntity(tag: DW_TAG_imported_declaration, scope: !7, entity: !1343, line: 126)
!1343 = !DISubprogram(name: "fgetc", scope: !1230, file: !1230, line: 236, type: !1286, isLocal: false, isDefinition: false, flags: DIFlagPrototyped, isOptimized: true)
!1344 = !DIImportedEntity(tag: DW_TAG_imported_declaration, scope: !7, entity: !1345, line: 127)
!1345 = !DISubprogram(name: "fgets", scope: !1230, file: !1230, line: 238, type: !1346, isLocal: false, isDefinition: false, flags: DIFlagPrototyped, isOptimized: true)
!1346 = !DISubroutineType(types: !1347)
!1347 = !{!927, !927, !252, !1288}
!1348 = !DIImportedEntity(tag: DW_TAG_imported_declaration, scope: !7, entity: !1349, line: 128)
!1349 = !DISubprogram(name: "fputc", scope: !1230, file: !1230, line: 245, type: !1350, isLocal: false, isDefinition: false, flags: DIFlagPrototyped, isOptimized: true)
!1350 = !DISubroutineType(types: !1351)
!1351 = !{!252, !252, !1288}
!1352 = !DIImportedEntity(tag: DW_TAG_imported_declaration, scope: !7, entity: !1353, line: 129)
!1353 = !DISubprogram(name: "fputs", linkageName: "\01_fputs", scope: !1230, file: !1230, line: 246, type: !1354, isLocal: false, isDefinition: false, flags: DIFlagPrototyped, isOptimized: true)
!1354 = !DISubroutineType(types: !1355)
!1355 = !{!252, !928, !1288}
!1356 = !DIImportedEntity(tag: DW_TAG_imported_declaration, scope: !7, entity: !1357, line: 130)
!1357 = !DISubprogram(name: "getc", scope: !1230, file: !1230, line: 255, type: !1286, isLocal: false, isDefinition: false, flags: DIFlagPrototyped, isOptimized: true)
!1358 = !DIImportedEntity(tag: DW_TAG_imported_declaration, scope: !7, entity: !1359, line: 131)
!1359 = !DISubprogram(name: "putc", scope: !1230, file: !1230, line: 260, type: !1350, isLocal: false, isDefinition: false, flags: DIFlagPrototyped, isOptimized: true)
!1360 = !DIImportedEntity(tag: DW_TAG_imported_declaration, scope: !7, entity: !1361, line: 132)
!1361 = !DISubprogram(name: "ungetc", scope: !1230, file: !1230, line: 277, type: !1350, isLocal: false, isDefinition: false, flags: DIFlagPrototyped, isOptimized: true)
!1362 = !DIImportedEntity(tag: DW_TAG_imported_declaration, scope: !7, entity: !1363, line: 133)
!1363 = !DISubprogram(name: "fread", scope: !1230, file: !1230, line: 247, type: !1364, isLocal: false, isDefinition: false, flags: DIFlagPrototyped, isOptimized: true)
!1364 = !DISubroutineType(types: !1365)
!1365 = !{!905, !918, !905, !905, !1288}
!1366 = !DIImportedEntity(tag: DW_TAG_imported_declaration, scope: !7, entity: !1367, line: 134)
!1367 = !DISubprogram(name: "fwrite", linkageName: "\01_fwrite", scope: !1230, file: !1230, line: 254, type: !1368, isLocal: false, isDefinition: false, flags: DIFlagPrototyped, isOptimized: true)
!1368 = !DISubroutineType(types: !1369)
!1369 = !{!905, !919, !905, !905, !1288}
!1370 = !DIImportedEntity(tag: DW_TAG_imported_declaration, scope: !7, entity: !1371, line: 135)
!1371 = !DISubprogram(name: "fgetpos", scope: !1230, file: !1230, line: 237, type: !1372, isLocal: false, isDefinition: false, flags: DIFlagPrototyped, isOptimized: true)
!1372 = !DISubroutineType(types: !1373)
!1373 = !{!252, !1288, !1374}
!1374 = !DIDerivedType(tag: DW_TAG_pointer_type, baseType: !1258, size: 64)
!1375 = !DIImportedEntity(tag: DW_TAG_imported_declaration, scope: !7, entity: !1376, line: 136)
!1376 = !DISubprogram(name: "fseek", scope: !1230, file: !1230, line: 251, type: !1377, isLocal: false, isDefinition: false, flags: DIFlagPrototyped, isOptimized: true)
!1377 = !DISubroutineType(types: !1378)
!1378 = !{!252, !1288, !78, !252}
!1379 = !DIImportedEntity(tag: DW_TAG_imported_declaration, scope: !7, entity: !1380, line: 137)
!1380 = !DISubprogram(name: "fsetpos", scope: !1230, file: !1230, line: 252, type: !1381, isLocal: false, isDefinition: false, flags: DIFlagPrototyped, isOptimized: true)
!1381 = !DISubroutineType(types: !1382)
!1382 = !{!252, !1288, !1383}
!1383 = !DIDerivedType(tag: DW_TAG_pointer_type, baseType: !1384, size: 64)
!1384 = !DIDerivedType(tag: DW_TAG_const_type, baseType: !1258)
!1385 = !DIImportedEntity(tag: DW_TAG_imported_declaration, scope: !7, entity: !1386, line: 138)
!1386 = !DISubprogram(name: "ftell", scope: !1230, file: !1230, line: 253, type: !1387, isLocal: false, isDefinition: false, flags: DIFlagPrototyped, isOptimized: true)
!1387 = !DISubroutineType(types: !1388)
!1388 = !{!78, !1288}
!1389 = !DIImportedEntity(tag: DW_TAG_imported_declaration, scope: !7, entity: !1390, line: 139)
!1390 = !DISubprogram(name: "rewind", scope: !1230, file: !1230, line: 265, type: !1391, isLocal: false, isDefinition: false, flags: DIFlagPrototyped, isOptimized: true)
!1391 = !DISubroutineType(types: !1392)
!1392 = !{null, !1288}
!1393 = !DIImportedEntity(tag: DW_TAG_imported_declaration, scope: !7, entity: !1394, line: 140)
!1394 = !DISubprogram(name: "clearerr", scope: !1230, file: !1230, line: 231, type: !1391, isLocal: false, isDefinition: false, flags: DIFlagPrototyped, isOptimized: true)
!1395 = !DIImportedEntity(tag: DW_TAG_imported_declaration, scope: !7, entity: !1396, line: 141)
!1396 = !DISubprogram(name: "feof", scope: !1230, file: !1230, line: 233, type: !1286, isLocal: false, isDefinition: false, flags: DIFlagPrototyped, isOptimized: true)
!1397 = !DIImportedEntity(tag: DW_TAG_imported_declaration, scope: !7, entity: !1398, line: 142)
!1398 = !DISubprogram(name: "ferror", scope: !1230, file: !1230, line: 234, type: !1286, isLocal: false, isDefinition: false, flags: DIFlagPrototyped, isOptimized: true)
!1399 = !DIImportedEntity(tag: DW_TAG_imported_declaration, scope: !7, entity: !1400, line: 143)
!1400 = !DISubprogram(name: "perror", scope: !1230, file: !1230, line: 258, type: !1401, isLocal: false, isDefinition: false, flags: DIFlagPrototyped, isOptimized: true)
!1401 = !DISubroutineType(types: !1402)
!1402 = !{null, !928}
!1403 = !DIImportedEntity(tag: DW_TAG_imported_declaration, scope: !7, entity: !1404, line: 146)
!1404 = !DISubprogram(name: "fopen", linkageName: "\01_fopen", scope: !1230, file: !1230, line: 242, type: !1405, isLocal: false, isDefinition: false, flags: DIFlagPrototyped, isOptimized: true)
!1405 = !DISubroutineType(types: !1406)
!1406 = !{!1288, !928, !928}
!1407 = !DIImportedEntity(tag: DW_TAG_imported_declaration, scope: !7, entity: !1408, line: 147)
!1408 = !DISubprogram(name: "freopen", linkageName: "\01_freopen", scope: !1230, file: !1230, line: 248, type: !1409, isLocal: false, isDefinition: false, flags: DIFlagPrototyped, isOptimized: true)
!1409 = !DISubroutineType(types: !1410)
!1410 = !{!1288, !928, !928, !1288}
!1411 = !DIImportedEntity(tag: DW_TAG_imported_declaration, scope: !7, entity: !1412, line: 148)
!1412 = !DISubprogram(name: "remove", scope: !1230, file: !1230, line: 263, type: !1090, isLocal: false, isDefinition: false, flags: DIFlagPrototyped, isOptimized: true)
!1413 = !DIImportedEntity(tag: DW_TAG_imported_declaration, scope: !7, entity: !1414, line: 149)
!1414 = !DISubprogram(name: "rename", scope: !1230, file: !1230, line: 264, type: !944, isLocal: false, isDefinition: false, flags: DIFlagPrototyped, isOptimized: true)
!1415 = !DIImportedEntity(tag: DW_TAG_imported_declaration, scope: !7, entity: !1416, line: 150)
!1416 = !DISubprogram(name: "tmpfile", scope: !1230, file: !1230, line: 271, type: !1417, isLocal: false, isDefinition: false, flags: DIFlagPrototyped, isOptimized: true)
!1417 = !DISubroutineType(types: !1418)
!1418 = !{!1288}
!1419 = !DIImportedEntity(tag: DW_TAG_imported_declaration, scope: !7, entity: !1420, line: 151)
!1420 = !DISubprogram(name: "tmpnam", scope: !1230, file: !1230, line: 276, type: !1421, isLocal: false, isDefinition: false, flags: DIFlagPrototyped, isOptimized: true)
!1421 = !DISubroutineType(types: !1422)
!1422 = !{!927, !927}
!1423 = !DIImportedEntity(tag: DW_TAG_imported_declaration, scope: !7, entity: !1424, line: 155)
!1424 = !DISubprogram(name: "getchar", scope: !1230, file: !1230, line: 256, type: !1132, isLocal: false, isDefinition: false, flags: DIFlagPrototyped, isOptimized: true)
!1425 = !DIImportedEntity(tag: DW_TAG_imported_declaration, scope: !7, entity: !1426, line: 157)
!1426 = !DISubprogram(name: "gets", scope: !1230, file: !1230, line: 257, type: !1421, isLocal: false, isDefinition: false, flags: DIFlagPrototyped, isOptimized: true)
!1427 = !DIImportedEntity(tag: DW_TAG_imported_declaration, scope: !7, entity: !1428, line: 159)
!1428 = !DISubprogram(name: "scanf", scope: !1230, file: !1230, line: 266, type: !1429, isLocal: false, isDefinition: false, flags: DIFlagPrototyped, isOptimized: true)
!1429 = !DISubroutineType(types: !1430)
!1430 = !{!252, !928, null}
!1431 = !DIImportedEntity(tag: DW_TAG_imported_declaration, scope: !7, entity: !1432, line: 160)
!1432 = !DISubprogram(name: "vscanf", scope: !1230, file: !1230, line: 423, type: !1433, isLocal: false, isDefinition: false, flags: DIFlagPrototyped, isOptimized: true)
!1433 = !DISubroutineType(types: !1434)
!1434 = !{!252, !928, !1321}
!1435 = !DIImportedEntity(tag: DW_TAG_imported_declaration, scope: !7, entity: !1436, line: 164)
!1436 = !DISubprogram(name: "printf", scope: !1230, file: !1230, line: 259, type: !1429, isLocal: false, isDefinition: false, flags: DIFlagPrototyped, isOptimized: true)
!1437 = !DIImportedEntity(tag: DW_TAG_imported_declaration, scope: !7, entity: !1438, line: 165)
!1438 = !DISubprogram(name: "putchar", scope: !1230, file: !1230, line: 261, type: !1439, isLocal: false, isDefinition: false, flags: DIFlagPrototyped, isOptimized: true)
!1439 = !DISubroutineType(types: !1440)
!1440 = !{!252, !252}
!1441 = !DIImportedEntity(tag: DW_TAG_imported_declaration, scope: !7, entity: !1442, line: 166)
!1442 = !DISubprogram(name: "puts", scope: !1230, file: !1230, line: 262, type: !1090, isLocal: false, isDefinition: false, flags: DIFlagPrototyped, isOptimized: true)
!1443 = !DIImportedEntity(tag: DW_TAG_imported_declaration, scope: !7, entity: !1444, line: 167)
!1444 = !DISubprogram(name: "vprintf", scope: !1230, file: !1230, line: 279, type: !1433, isLocal: false, isDefinition: false, flags: DIFlagPrototyped, isOptimized: true)
!1445 = !DIImportedEntity(tag: DW_TAG_imported_declaration, scope: !7, entity: !1446, line: 104)
!1446 = !DISubprogram(name: "isalnum", linkageName: "_Z7isalnumi", scope: !1447, file: !1447, line: 212, type: !1439, isLocal: false, isDefinition: false, flags: DIFlagPrototyped, isOptimized: true)
!1447 = !DIFile(filename: "/usr/include/ctype.h", directory: "/Users/aser/Dropbox/papers/C++11/Checker11/examples/mo_release_acquire3")
!1448 = !DIImportedEntity(tag: DW_TAG_imported_declaration, scope: !7, entity: !1449, line: 105)
!1449 = !DISubprogram(name: "isalpha", linkageName: "_Z7isalphai", scope: !1447, file: !1447, line: 218, type: !1439, isLocal: false, isDefinition: false, flags: DIFlagPrototyped, isOptimized: true)
!1450 = !DIImportedEntity(tag: DW_TAG_imported_declaration, scope: !7, entity: !1451, line: 106)
!1451 = !DISubprogram(name: "isblank", linkageName: "_Z7isblanki", scope: !1447, file: !1447, line: 224, type: !1439, isLocal: false, isDefinition: false, flags: DIFlagPrototyped, isOptimized: true)
!1452 = !DIImportedEntity(tag: DW_TAG_imported_declaration, scope: !7, entity: !1453, line: 107)
!1453 = !DISubprogram(name: "iscntrl", linkageName: "_Z7iscntrli", scope: !1447, file: !1447, line: 230, type: !1439, isLocal: false, isDefinition: false, flags: DIFlagPrototyped, isOptimized: true)
!1454 = !DIImportedEntity(tag: DW_TAG_imported_declaration, scope: !7, entity: !1455, line: 108)
!1455 = !DISubprogram(name: "isdigit", linkageName: "_Z7isdigiti", scope: !1447, file: !1447, line: 237, type: !1439, isLocal: false, isDefinition: false, flags: DIFlagPrototyped, isOptimized: true)
!1456 = !DIImportedEntity(tag: DW_TAG_imported_declaration, scope: !7, entity: !1457, line: 109)
!1457 = !DISubprogram(name: "isgraph", linkageName: "_Z7isgraphi", scope: !1447, file: !1447, line: 243, type: !1439, isLocal: false, isDefinition: false, flags: DIFlagPrototyped, isOptimized: true)
!1458 = !DIImportedEntity(tag: DW_TAG_imported_declaration, scope: !7, entity: !1459, line: 110)
!1459 = !DISubprogram(name: "islower", linkageName: "_Z7isloweri", scope: !1447, file: !1447, line: 249, type: !1439, isLocal: false, isDefinition: false, flags: DIFlagPrototyped, isOptimized: true)
!1460 = !DIImportedEntity(tag: DW_TAG_imported_declaration, scope: !7, entity: !1461, line: 111)
!1461 = !DISubprogram(name: "isprint", linkageName: "_Z7isprinti", scope: !1447, file: !1447, line: 255, type: !1439, isLocal: false, isDefinition: false, flags: DIFlagPrototyped, isOptimized: true)
!1462 = !DIImportedEntity(tag: DW_TAG_imported_declaration, scope: !7, entity: !1463, line: 112)
!1463 = !DISubprogram(name: "ispunct", linkageName: "_Z7ispuncti", scope: !1447, file: !1447, line: 261, type: !1439, isLocal: false, isDefinition: false, flags: DIFlagPrototyped, isOptimized: true)
!1464 = !DIImportedEntity(tag: DW_TAG_imported_declaration, scope: !7, entity: !1465, line: 113)
!1465 = !DISubprogram(name: "isspace", linkageName: "_Z7isspacei", scope: !1447, file: !1447, line: 267, type: !1439, isLocal: false, isDefinition: false, flags: DIFlagPrototyped, isOptimized: true)
!1466 = !DIImportedEntity(tag: DW_TAG_imported_declaration, scope: !7, entity: !1467, line: 114)
!1467 = !DISubprogram(name: "isupper", linkageName: "_Z7isupperi", scope: !1447, file: !1447, line: 273, type: !1439, isLocal: false, isDefinition: false, flags: DIFlagPrototyped, isOptimized: true)
!1468 = !DIImportedEntity(tag: DW_TAG_imported_declaration, scope: !7, entity: !1469, line: 115)
!1469 = !DISubprogram(name: "isxdigit", linkageName: "_Z8isxdigiti", scope: !1447, file: !1447, line: 280, type: !1439, isLocal: false, isDefinition: false, flags: DIFlagPrototyped, isOptimized: true)
!1470 = !DIImportedEntity(tag: DW_TAG_imported_declaration, scope: !7, entity: !1471, line: 116)
!1471 = !DISubprogram(name: "tolower", linkageName: "_Z7toloweri", scope: !1447, file: !1447, line: 292, type: !1439, isLocal: false, isDefinition: false, flags: DIFlagPrototyped, isOptimized: true)
!1472 = !DIImportedEntity(tag: DW_TAG_imported_declaration, scope: !7, entity: !1473, line: 117)
!1473 = !DISubprogram(name: "toupper", linkageName: "_Z7toupperi", scope: !1447, file: !1447, line: 298, type: !1439, isLocal: false, isDefinition: false, flags: DIFlagPrototyped, isOptimized: true)
!1474 = !DIImportedEntity(tag: DW_TAG_imported_declaration, scope: !7, entity: !1475, line: 63)
!1475 = !DIDerivedType(tag: DW_TAG_typedef, name: "wint_t", file: !1476, line: 31, baseType: !1477)
!1476 = !DIFile(filename: "/usr/include/sys/_types/_wint_t.h", directory: "/Users/aser/Dropbox/papers/C++11/Checker11/examples/mo_release_acquire3")
!1477 = !DIDerivedType(tag: DW_TAG_typedef, name: "__darwin_wint_t", file: !421, line: 112, baseType: !252)
!1478 = !DIImportedEntity(tag: DW_TAG_imported_declaration, scope: !7, entity: !1479, line: 64)
!1479 = !DIDerivedType(tag: DW_TAG_typedef, name: "wctrans_t", file: !1480, line: 31, baseType: !1481)
!1480 = !DIFile(filename: "/usr/include/_types/_wctrans_t.h", directory: "/Users/aser/Dropbox/papers/C++11/Checker11/examples/mo_release_acquire3")
!1481 = !DIDerivedType(tag: DW_TAG_typedef, name: "__darwin_wctrans_t", file: !1482, line: 40, baseType: !252)
!1482 = !DIFile(filename: "/usr/include/_types.h", directory: "/Users/aser/Dropbox/papers/C++11/Checker11/examples/mo_release_acquire3")
!1483 = !DIImportedEntity(tag: DW_TAG_imported_declaration, scope: !7, entity: !1484, line: 65)
!1484 = !DIDerivedType(tag: DW_TAG_typedef, name: "wctype_t", file: !1485, line: 31, baseType: !1486)
!1485 = !DIFile(filename: "/usr/include/_types/_wctype_t.h", directory: "/Users/aser/Dropbox/papers/C++11/Checker11/examples/mo_release_acquire3")
!1486 = !DIDerivedType(tag: DW_TAG_typedef, name: "__darwin_wctype_t", file: !1482, line: 42, baseType: !1487)
!1487 = !DIDerivedType(tag: DW_TAG_typedef, name: "__uint32_t", file: !421, line: 45, baseType: !1014)
!1488 = !DIImportedEntity(tag: DW_TAG_imported_declaration, scope: !7, entity: !1489, line: 66)
!1489 = !DISubprogram(name: "iswalnum", linkageName: "_Z8iswalnumi", scope: !1490, file: !1490, line: 66, type: !1491, isLocal: false, isDefinition: false, flags: DIFlagPrototyped, isOptimized: true)
!1490 = !DIFile(filename: "/usr/include/_wctype.h", directory: "/Users/aser/Dropbox/papers/C++11/Checker11/examples/mo_release_acquire3")
!1491 = !DISubroutineType(types: !1492)
!1492 = !{!252, !1475}
!1493 = !DIImportedEntity(tag: DW_TAG_imported_declaration, scope: !7, entity: !1494, line: 67)
!1494 = !DISubprogram(name: "iswalpha", linkageName: "_Z8iswalphai", scope: !1490, file: !1490, line: 72, type: !1491, isLocal: false, isDefinition: false, flags: DIFlagPrototyped, isOptimized: true)
!1495 = !DIImportedEntity(tag: DW_TAG_imported_declaration, scope: !7, entity: !1496, line: 68)
!1496 = !DISubprogram(name: "iswblank", linkageName: "_Z8iswblanki", scope: !1497, file: !1497, line: 50, type: !1491, isLocal: false, isDefinition: false, flags: DIFlagPrototyped, isOptimized: true)
!1497 = !DIFile(filename: "/usr/include/wctype.h", directory: "/Users/aser/Dropbox/papers/C++11/Checker11/examples/mo_release_acquire3")
!1498 = !DIImportedEntity(tag: DW_TAG_imported_declaration, scope: !7, entity: !1499, line: 69)
!1499 = !DISubprogram(name: "iswcntrl", linkageName: "_Z8iswcntrli", scope: !1490, file: !1490, line: 78, type: !1491, isLocal: false, isDefinition: false, flags: DIFlagPrototyped, isOptimized: true)
!1500 = !DIImportedEntity(tag: DW_TAG_imported_declaration, scope: !7, entity: !1501, line: 70)
!1501 = !DISubprogram(name: "iswdigit", linkageName: "_Z8iswdigiti", scope: !1490, file: !1490, line: 90, type: !1491, isLocal: false, isDefinition: false, flags: DIFlagPrototyped, isOptimized: true)
!1502 = !DIImportedEntity(tag: DW_TAG_imported_declaration, scope: !7, entity: !1503, line: 71)
!1503 = !DISubprogram(name: "iswgraph", linkageName: "_Z8iswgraphi", scope: !1490, file: !1490, line: 96, type: !1491, isLocal: false, isDefinition: false, flags: DIFlagPrototyped, isOptimized: true)
!1504 = !DIImportedEntity(tag: DW_TAG_imported_declaration, scope: !7, entity: !1505, line: 72)
!1505 = !DISubprogram(name: "iswlower", linkageName: "_Z8iswloweri", scope: !1490, file: !1490, line: 102, type: !1491, isLocal: false, isDefinition: false, flags: DIFlagPrototyped, isOptimized: true)
!1506 = !DIImportedEntity(tag: DW_TAG_imported_declaration, scope: !7, entity: !1507, line: 73)
!1507 = !DISubprogram(name: "iswprint", linkageName: "_Z8iswprinti", scope: !1490, file: !1490, line: 108, type: !1491, isLocal: false, isDefinition: false, flags: DIFlagPrototyped, isOptimized: true)
!1508 = !DIImportedEntity(tag: DW_TAG_imported_declaration, scope: !7, entity: !1509, line: 74)
!1509 = !DISubprogram(name: "iswpunct", linkageName: "_Z8iswpuncti", scope: !1490, file: !1490, line: 114, type: !1491, isLocal: false, isDefinition: false, flags: DIFlagPrototyped, isOptimized: true)
!1510 = !DIImportedEntity(tag: DW_TAG_imported_declaration, scope: !7, entity: !1511, line: 75)
!1511 = !DISubprogram(name: "iswspace", linkageName: "_Z8iswspacei", scope: !1490, file: !1490, line: 120, type: !1491, isLocal: false, isDefinition: false, flags: DIFlagPrototyped, isOptimized: true)
!1512 = !DIImportedEntity(tag: DW_TAG_imported_declaration, scope: !7, entity: !1513, line: 76)
!1513 = !DISubprogram(name: "iswupper", linkageName: "_Z8iswupperi", scope: !1490, file: !1490, line: 126, type: !1491, isLocal: false, isDefinition: false, flags: DIFlagPrototyped, isOptimized: true)
!1514 = !DIImportedEntity(tag: DW_TAG_imported_declaration, scope: !7, entity: !1515, line: 77)
!1515 = !DISubprogram(name: "iswxdigit", linkageName: "_Z9iswxdigiti", scope: !1490, file: !1490, line: 132, type: !1491, isLocal: false, isDefinition: false, flags: DIFlagPrototyped, isOptimized: true)
!1516 = !DIImportedEntity(tag: DW_TAG_imported_declaration, scope: !7, entity: !1517, line: 78)
!1517 = !DISubprogram(name: "iswctype", linkageName: "_Z8iswctypeij", scope: !1490, file: !1490, line: 84, type: !1518, isLocal: false, isDefinition: false, flags: DIFlagPrototyped, isOptimized: true)
!1518 = !DISubroutineType(types: !1519)
!1519 = !{!252, !1475, !1484}
!1520 = !DIImportedEntity(tag: DW_TAG_imported_declaration, scope: !7, entity: !1521, line: 79)
!1521 = !DISubprogram(name: "wctype", scope: !1490, file: !1490, line: 172, type: !1522, isLocal: false, isDefinition: false, flags: DIFlagPrototyped, isOptimized: true)
!1522 = !DISubroutineType(types: !1523)
!1523 = !{!1484, !928}
!1524 = !DIImportedEntity(tag: DW_TAG_imported_declaration, scope: !7, entity: !1525, line: 80)
!1525 = !DISubprogram(name: "towlower", linkageName: "_Z8towloweri", scope: !1490, file: !1490, line: 138, type: !1526, isLocal: false, isDefinition: false, flags: DIFlagPrototyped, isOptimized: true)
!1526 = !DISubroutineType(types: !1527)
!1527 = !{!1475, !1475}
!1528 = !DIImportedEntity(tag: DW_TAG_imported_declaration, scope: !7, entity: !1529, line: 81)
!1529 = !DISubprogram(name: "towupper", linkageName: "_Z8towupperi", scope: !1490, file: !1490, line: 144, type: !1526, isLocal: false, isDefinition: false, flags: DIFlagPrototyped, isOptimized: true)
!1530 = !DIImportedEntity(tag: DW_TAG_imported_declaration, scope: !7, entity: !1531, line: 82)
!1531 = !DISubprogram(name: "towctrans", scope: !1497, file: !1497, line: 121, type: !1532, isLocal: false, isDefinition: false, flags: DIFlagPrototyped, isOptimized: true)
!1532 = !DISubroutineType(types: !1533)
!1533 = !{!1475, !1475, !1479}
!1534 = !DIImportedEntity(tag: DW_TAG_imported_declaration, scope: !7, entity: !1535, line: 83)
!1535 = !DISubprogram(name: "wctrans", scope: !1497, file: !1497, line: 123, type: !1536, isLocal: false, isDefinition: false, flags: DIFlagPrototyped, isOptimized: true)
!1536 = !DISubroutineType(types: !1537)
!1537 = !{!1479, !928}
!1538 = !DIImportedEntity(tag: DW_TAG_imported_declaration, scope: !7, entity: !1539, line: 116)
!1539 = !DIDerivedType(tag: DW_TAG_typedef, name: "mbstate_t", file: !1540, line: 31, baseType: !1541)
!1540 = !DIFile(filename: "/usr/include/sys/_types/_mbstate_t.h", directory: "/Users/aser/Dropbox/papers/C++11/Checker11/examples/mo_release_acquire3")
!1541 = !DIDerivedType(tag: DW_TAG_typedef, name: "__darwin_mbstate_t", file: !421, line: 81, baseType: !1542)
!1542 = !DIDerivedType(tag: DW_TAG_typedef, name: "__mbstate_t", file: !421, line: 79, baseType: !1543)
!1543 = distinct !DICompositeType(tag: DW_TAG_union_type, file: !421, line: 76, size: 1024, elements: !1544, identifier: "_ZTS11__mbstate_t")
!1544 = !{!1545, !1549}
!1545 = !DIDerivedType(tag: DW_TAG_member, name: "__mbstate8", scope: !1543, file: !421, line: 77, baseType: !1546, size: 1024)
!1546 = !DICompositeType(tag: DW_TAG_array_type, baseType: !81, size: 1024, elements: !1547)
!1547 = !{!1548}
!1548 = !DISubrange(count: 128)
!1549 = !DIDerivedType(tag: DW_TAG_member, name: "_mbstateL", scope: !1543, file: !421, line: 78, baseType: !225, size: 64)
!1550 = !DIImportedEntity(tag: DW_TAG_imported_declaration, scope: !7, entity: !905, line: 117)
!1551 = !DIImportedEntity(tag: DW_TAG_imported_declaration, scope: !7, entity: !1552, line: 118)
!1552 = distinct !DICompositeType(tag: DW_TAG_structure_type, name: "tm", file: !1553, line: 73, size: 448, elements: !1554, identifier: "_ZTS2tm")
!1553 = !DIFile(filename: "/usr/include/time.h", directory: "/Users/aser/Dropbox/papers/C++11/Checker11/examples/mo_release_acquire3")
!1554 = !{!1555, !1556, !1557, !1558, !1559, !1560, !1561, !1562, !1563, !1564, !1565}
!1555 = !DIDerivedType(tag: DW_TAG_member, name: "tm_sec", scope: !1552, file: !1553, line: 74, baseType: !252, size: 32)
!1556 = !DIDerivedType(tag: DW_TAG_member, name: "tm_min", scope: !1552, file: !1553, line: 75, baseType: !252, size: 32, offset: 32)
!1557 = !DIDerivedType(tag: DW_TAG_member, name: "tm_hour", scope: !1552, file: !1553, line: 76, baseType: !252, size: 32, offset: 64)
!1558 = !DIDerivedType(tag: DW_TAG_member, name: "tm_mday", scope: !1552, file: !1553, line: 77, baseType: !252, size: 32, offset: 96)
!1559 = !DIDerivedType(tag: DW_TAG_member, name: "tm_mon", scope: !1552, file: !1553, line: 78, baseType: !252, size: 32, offset: 128)
!1560 = !DIDerivedType(tag: DW_TAG_member, name: "tm_year", scope: !1552, file: !1553, line: 79, baseType: !252, size: 32, offset: 160)
!1561 = !DIDerivedType(tag: DW_TAG_member, name: "tm_wday", scope: !1552, file: !1553, line: 80, baseType: !252, size: 32, offset: 192)
!1562 = !DIDerivedType(tag: DW_TAG_member, name: "tm_yday", scope: !1552, file: !1553, line: 81, baseType: !252, size: 32, offset: 224)
!1563 = !DIDerivedType(tag: DW_TAG_member, name: "tm_isdst", scope: !1552, file: !1553, line: 82, baseType: !252, size: 32, offset: 256)
!1564 = !DIDerivedType(tag: DW_TAG_member, name: "tm_gmtoff", scope: !1552, file: !1553, line: 83, baseType: !78, size: 64, offset: 320)
!1565 = !DIDerivedType(tag: DW_TAG_member, name: "tm_zone", scope: !1552, file: !1553, line: 84, baseType: !927, size: 64, offset: 384)
!1566 = !DIImportedEntity(tag: DW_TAG_imported_declaration, scope: !7, entity: !1475, line: 119)
!1567 = !DIImportedEntity(tag: DW_TAG_imported_declaration, scope: !7, entity: !1229, line: 120)
!1568 = !DIImportedEntity(tag: DW_TAG_imported_declaration, scope: !7, entity: !1569, line: 121)
!1569 = !DISubprogram(name: "fwprintf", scope: !1570, file: !1570, line: 103, type: !1571, isLocal: false, isDefinition: false, flags: DIFlagPrototyped, isOptimized: true)
!1570 = !DIFile(filename: "/usr/include/wchar.h", directory: "/Users/aser/Dropbox/papers/C++11/Checker11/examples/mo_release_acquire3")
!1571 = !DISubroutineType(types: !1572)
!1572 = !{!252, !1288, !1226, null}
!1573 = !DIImportedEntity(tag: DW_TAG_imported_declaration, scope: !7, entity: !1574, line: 122)
!1574 = !DISubprogram(name: "fwscanf", scope: !1570, file: !1570, line: 104, type: !1571, isLocal: false, isDefinition: false, flags: DIFlagPrototyped, isOptimized: true)
!1575 = !DIImportedEntity(tag: DW_TAG_imported_declaration, scope: !7, entity: !1576, line: 123)
!1576 = !DISubprogram(name: "swprintf", scope: !1570, file: !1570, line: 115, type: !1577, isLocal: false, isDefinition: false, flags: DIFlagPrototyped, isOptimized: true)
!1577 = !DISubroutineType(types: !1578)
!1578 = !{!252, !1212, !905, !1226, null}
!1579 = !DIImportedEntity(tag: DW_TAG_imported_declaration, scope: !7, entity: !1580, line: 124)
!1580 = !DISubprogram(name: "vfwprintf", scope: !1570, file: !1570, line: 118, type: !1581, isLocal: false, isDefinition: false, flags: DIFlagPrototyped, isOptimized: true)
!1581 = !DISubroutineType(types: !1582)
!1582 = !{!252, !1288, !1226, !1321}
!1583 = !DIImportedEntity(tag: DW_TAG_imported_declaration, scope: !7, entity: !1584, line: 125)
!1584 = !DISubprogram(name: "vswprintf", scope: !1570, file: !1570, line: 120, type: !1585, isLocal: false, isDefinition: false, flags: DIFlagPrototyped, isOptimized: true)
!1585 = !DISubroutineType(types: !1586)
!1586 = !{!252, !1212, !905, !1226, !1321}
!1587 = !DIImportedEntity(tag: DW_TAG_imported_declaration, scope: !7, entity: !1588, line: 126)
!1588 = !DISubprogram(name: "swscanf", scope: !1570, file: !1570, line: 116, type: !1589, isLocal: false, isDefinition: false, flags: DIFlagPrototyped, isOptimized: true)
!1589 = !DISubroutineType(types: !1590)
!1590 = !{!252, !1226, !1226, null}
!1591 = !DIImportedEntity(tag: DW_TAG_imported_declaration, scope: !7, entity: !1592, line: 127)
!1592 = !DISubprogram(name: "vfwscanf", scope: !1570, file: !1570, line: 170, type: !1581, isLocal: false, isDefinition: false, flags: DIFlagPrototyped, isOptimized: true)
!1593 = !DIImportedEntity(tag: DW_TAG_imported_declaration, scope: !7, entity: !1594, line: 128)
!1594 = !DISubprogram(name: "vswscanf", scope: !1570, file: !1570, line: 172, type: !1595, isLocal: false, isDefinition: false, flags: DIFlagPrototyped, isOptimized: true)
!1595 = !DISubroutineType(types: !1596)
!1596 = !{!252, !1226, !1226, !1321}
!1597 = !DIImportedEntity(tag: DW_TAG_imported_declaration, scope: !7, entity: !1598, line: 129)
!1598 = !DISubprogram(name: "fgetwc", scope: !1570, file: !1570, line: 98, type: !1599, isLocal: false, isDefinition: false, flags: DIFlagPrototyped, isOptimized: true)
!1599 = !DISubroutineType(types: !1600)
!1600 = !{!1475, !1288}
!1601 = !DIImportedEntity(tag: DW_TAG_imported_declaration, scope: !7, entity: !1602, line: 130)
!1602 = !DISubprogram(name: "fgetws", scope: !1570, file: !1570, line: 99, type: !1603, isLocal: false, isDefinition: false, flags: DIFlagPrototyped, isOptimized: true)
!1603 = !DISubroutineType(types: !1604)
!1604 = !{!1212, !1212, !252, !1288}
!1605 = !DIImportedEntity(tag: DW_TAG_imported_declaration, scope: !7, entity: !1606, line: 131)
!1606 = !DISubprogram(name: "fputwc", scope: !1570, file: !1570, line: 100, type: !1607, isLocal: false, isDefinition: false, flags: DIFlagPrototyped, isOptimized: true)
!1607 = !DISubroutineType(types: !1608)
!1608 = !{!1475, !1213, !1288}
!1609 = !DIImportedEntity(tag: DW_TAG_imported_declaration, scope: !7, entity: !1610, line: 132)
!1610 = !DISubprogram(name: "fputws", scope: !1570, file: !1570, line: 101, type: !1611, isLocal: false, isDefinition: false, flags: DIFlagPrototyped, isOptimized: true)
!1611 = !DISubroutineType(types: !1612)
!1612 = !{!252, !1226, !1288}
!1613 = !DIImportedEntity(tag: DW_TAG_imported_declaration, scope: !7, entity: !1614, line: 133)
!1614 = !DISubprogram(name: "fwide", scope: !1570, file: !1570, line: 102, type: !1615, isLocal: false, isDefinition: false, flags: DIFlagPrototyped, isOptimized: true)
!1615 = !DISubroutineType(types: !1616)
!1616 = !{!252, !1288, !252}
!1617 = !DIImportedEntity(tag: DW_TAG_imported_declaration, scope: !7, entity: !1618, line: 134)
!1618 = !DISubprogram(name: "getwc", scope: !1570, file: !1570, line: 105, type: !1599, isLocal: false, isDefinition: false, flags: DIFlagPrototyped, isOptimized: true)
!1619 = !DIImportedEntity(tag: DW_TAG_imported_declaration, scope: !7, entity: !1620, line: 135)
!1620 = !DISubprogram(name: "putwc", scope: !1570, file: !1570, line: 113, type: !1607, isLocal: false, isDefinition: false, flags: DIFlagPrototyped, isOptimized: true)
!1621 = !DIImportedEntity(tag: DW_TAG_imported_declaration, scope: !7, entity: !1622, line: 136)
!1622 = !DISubprogram(name: "ungetwc", scope: !1570, file: !1570, line: 117, type: !1623, isLocal: false, isDefinition: false, flags: DIFlagPrototyped, isOptimized: true)
!1623 = !DISubroutineType(types: !1624)
!1624 = !{!1475, !1475, !1288}
!1625 = !DIImportedEntity(tag: DW_TAG_imported_declaration, scope: !7, entity: !1626, line: 137)
!1626 = !DISubprogram(name: "wcstod", scope: !1570, file: !1570, line: 144, type: !1627, isLocal: false, isDefinition: false, flags: DIFlagPrototyped, isOptimized: true)
!1627 = !DISubroutineType(types: !1628)
!1628 = !{!1087, !1226, !1629}
!1629 = !DIDerivedType(tag: DW_TAG_pointer_type, baseType: !1212, size: 64)
!1630 = !DIImportedEntity(tag: DW_TAG_imported_declaration, scope: !7, entity: !1631, line: 138)
!1631 = !DISubprogram(name: "wcstof", scope: !1570, file: !1570, line: 175, type: !1632, isLocal: false, isDefinition: false, flags: DIFlagPrototyped, isOptimized: true)
!1632 = !DISubroutineType(types: !1633)
!1633 = !{!1109, !1226, !1629}
!1634 = !DIImportedEntity(tag: DW_TAG_imported_declaration, scope: !7, entity: !1635, line: 139)
!1635 = !DISubprogram(name: "wcstold", scope: !1570, file: !1570, line: 177, type: !1636, isLocal: false, isDefinition: false, flags: DIFlagPrototyped, isOptimized: true)
!1636 = !DISubroutineType(types: !1637)
!1637 = !{!911, !1226, !1629}
!1638 = !DIImportedEntity(tag: DW_TAG_imported_declaration, scope: !7, entity: !1639, line: 140)
!1639 = !DISubprogram(name: "wcstol", scope: !1570, file: !1570, line: 147, type: !1640, isLocal: false, isDefinition: false, flags: DIFlagPrototyped, isOptimized: true)
!1640 = !DISubroutineType(types: !1641)
!1641 = !{!78, !1226, !1629, !252}
!1642 = !DIImportedEntity(tag: DW_TAG_imported_declaration, scope: !7, entity: !1643, line: 142)
!1643 = !DISubprogram(name: "wcstoll", scope: !1570, file: !1570, line: 180, type: !1644, isLocal: false, isDefinition: false, flags: DIFlagPrototyped, isOptimized: true)
!1644 = !DISubroutineType(types: !1645)
!1645 = !{!225, !1226, !1629, !252}
!1646 = !DIImportedEntity(tag: DW_TAG_imported_declaration, scope: !7, entity: !1647, line: 144)
!1647 = !DISubprogram(name: "wcstoul", scope: !1570, file: !1570, line: 149, type: !1648, isLocal: false, isDefinition: false, flags: DIFlagPrototyped, isOptimized: true)
!1648 = !DISubroutineType(types: !1649)
!1649 = !{!610, !1226, !1629, !252}
!1650 = !DIImportedEntity(tag: DW_TAG_imported_declaration, scope: !7, entity: !1651, line: 146)
!1651 = !DISubprogram(name: "wcstoull", scope: !1570, file: !1570, line: 182, type: !1652, isLocal: false, isDefinition: false, flags: DIFlagPrototyped, isOptimized: true)
!1652 = !DISubroutineType(types: !1653)
!1653 = !{!1018, !1226, !1629, !252}
!1654 = !DIImportedEntity(tag: DW_TAG_imported_declaration, scope: !7, entity: !1655, line: 148)
!1655 = !DISubprogram(name: "wcscpy", scope: !1570, file: !1570, line: 128, type: !1656, isLocal: false, isDefinition: false, flags: DIFlagPrototyped, isOptimized: true)
!1656 = !DISubroutineType(types: !1657)
!1657 = !{!1212, !1212, !1226}
!1658 = !DIImportedEntity(tag: DW_TAG_imported_declaration, scope: !7, entity: !1659, line: 149)
!1659 = !DISubprogram(name: "wcsncpy", scope: !1570, file: !1570, line: 135, type: !1660, isLocal: false, isDefinition: false, flags: DIFlagPrototyped, isOptimized: true)
!1660 = !DISubroutineType(types: !1661)
!1661 = !{!1212, !1212, !1226, !905}
!1662 = !DIImportedEntity(tag: DW_TAG_imported_declaration, scope: !7, entity: !1663, line: 150)
!1663 = !DISubprogram(name: "wcscat", scope: !1570, file: !1570, line: 124, type: !1656, isLocal: false, isDefinition: false, flags: DIFlagPrototyped, isOptimized: true)
!1664 = !DIImportedEntity(tag: DW_TAG_imported_declaration, scope: !7, entity: !1665, line: 151)
!1665 = !DISubprogram(name: "wcsncat", scope: !1570, file: !1570, line: 133, type: !1660, isLocal: false, isDefinition: false, flags: DIFlagPrototyped, isOptimized: true)
!1666 = !DIImportedEntity(tag: DW_TAG_imported_declaration, scope: !7, entity: !1667, line: 152)
!1667 = !DISubprogram(name: "wcscmp", scope: !1570, file: !1570, line: 126, type: !1668, isLocal: false, isDefinition: false, flags: DIFlagPrototyped, isOptimized: true)
!1668 = !DISubroutineType(types: !1669)
!1669 = !{!252, !1226, !1226}
!1670 = !DIImportedEntity(tag: DW_TAG_imported_declaration, scope: !7, entity: !1671, line: 153)
!1671 = !DISubprogram(name: "wcscoll", scope: !1570, file: !1570, line: 127, type: !1668, isLocal: false, isDefinition: false, flags: DIFlagPrototyped, isOptimized: true)
!1672 = !DIImportedEntity(tag: DW_TAG_imported_declaration, scope: !7, entity: !1673, line: 154)
!1673 = !DISubprogram(name: "wcsncmp", scope: !1570, file: !1570, line: 134, type: !1674, isLocal: false, isDefinition: false, flags: DIFlagPrototyped, isOptimized: true)
!1674 = !DISubroutineType(types: !1675)
!1675 = !{!252, !1226, !1226, !905}
!1676 = !DIImportedEntity(tag: DW_TAG_imported_declaration, scope: !7, entity: !1677, line: 155)
!1677 = !DISubprogram(name: "wcsxfrm", scope: !1570, file: !1570, line: 142, type: !1678, isLocal: false, isDefinition: false, flags: DIFlagPrototyped, isOptimized: true)
!1678 = !DISubroutineType(types: !1679)
!1679 = !{!905, !1212, !1226, !905}
!1680 = !DIImportedEntity(tag: DW_TAG_imported_declaration, scope: !7, entity: !1681, line: 156)
!1681 = !DISubprogram(name: "wcschr", linkageName: "_Z6wcschrUa9enable_ifIXLb1EEEPww", scope: !1682, file: !1682, line: 137, type: !1683, isLocal: false, isDefinition: false, flags: DIFlagPrototyped, isOptimized: true)
!1682 = !DIFile(filename: "/Users/aser/Documents/LLVM/llvm-4.0/build/bin/../include/c++/v1/wchar.h", directory: "/Users/aser/Dropbox/papers/C++11/Checker11/examples/mo_release_acquire3")
!1683 = !DISubroutineType(types: !1684)
!1684 = !{!1212, !1212, !1213}
!1685 = !DIImportedEntity(tag: DW_TAG_imported_declaration, scope: !7, entity: !1686, line: 157)
!1686 = !DISubprogram(name: "wcspbrk", linkageName: "_Z7wcspbrkUa9enable_ifIXLb1EEEPwPKw", scope: !1682, file: !1682, line: 144, type: !1656, isLocal: false, isDefinition: false, flags: DIFlagPrototyped, isOptimized: true)
!1687 = !DIImportedEntity(tag: DW_TAG_imported_declaration, scope: !7, entity: !1688, line: 158)
!1688 = !DISubprogram(name: "wcsrchr", linkageName: "_Z7wcsrchrUa9enable_ifIXLb1EEEPww", scope: !1682, file: !1682, line: 151, type: !1683, isLocal: false, isDefinition: false, flags: DIFlagPrototyped, isOptimized: true)
!1689 = !DIImportedEntity(tag: DW_TAG_imported_declaration, scope: !7, entity: !1690, line: 159)
!1690 = !DISubprogram(name: "wcsstr", linkageName: "_Z6wcsstrUa9enable_ifIXLb1EEEPwPKw", scope: !1682, file: !1682, line: 158, type: !1656, isLocal: false, isDefinition: false, flags: DIFlagPrototyped, isOptimized: true)
!1691 = !DIImportedEntity(tag: DW_TAG_imported_declaration, scope: !7, entity: !1692, line: 160)
!1692 = !DISubprogram(name: "wmemchr", linkageName: "_Z7wmemchrUa9enable_ifIXLb1EEEPwwm", scope: !1682, file: !1682, line: 165, type: !1693, isLocal: false, isDefinition: false, flags: DIFlagPrototyped, isOptimized: true)
!1693 = !DISubroutineType(types: !1694)
!1694 = !{!1212, !1212, !1213, !905}
!1695 = !DIImportedEntity(tag: DW_TAG_imported_declaration, scope: !7, entity: !1696, line: 161)
!1696 = !DISubprogram(name: "wcscspn", scope: !1570, file: !1570, line: 129, type: !1697, isLocal: false, isDefinition: false, flags: DIFlagPrototyped, isOptimized: true)
!1697 = !DISubroutineType(types: !1698)
!1698 = !{!905, !1226, !1226}
!1699 = !DIImportedEntity(tag: DW_TAG_imported_declaration, scope: !7, entity: !1700, line: 162)
!1700 = !DISubprogram(name: "wcslen", scope: !1570, file: !1570, line: 132, type: !1701, isLocal: false, isDefinition: false, flags: DIFlagPrototyped, isOptimized: true)
!1701 = !DISubroutineType(types: !1702)
!1702 = !{!905, !1226}
!1703 = !DIImportedEntity(tag: DW_TAG_imported_declaration, scope: !7, entity: !1704, line: 163)
!1704 = !DISubprogram(name: "wcsspn", scope: !1570, file: !1570, line: 140, type: !1697, isLocal: false, isDefinition: false, flags: DIFlagPrototyped, isOptimized: true)
!1705 = !DIImportedEntity(tag: DW_TAG_imported_declaration, scope: !7, entity: !1706, line: 164)
!1706 = !DISubprogram(name: "wcstok", scope: !1570, file: !1570, line: 145, type: !1707, isLocal: false, isDefinition: false, flags: DIFlagPrototyped, isOptimized: true)
!1707 = !DISubroutineType(types: !1708)
!1708 = !{!1212, !1212, !1226, !1629}
!1709 = !DIImportedEntity(tag: DW_TAG_imported_declaration, scope: !7, entity: !1710, line: 165)
!1710 = !DISubprogram(name: "wmemcmp", scope: !1570, file: !1570, line: 151, type: !1674, isLocal: false, isDefinition: false, flags: DIFlagPrototyped, isOptimized: true)
!1711 = !DIImportedEntity(tag: DW_TAG_imported_declaration, scope: !7, entity: !1712, line: 166)
!1712 = !DISubprogram(name: "wmemcpy", scope: !1570, file: !1570, line: 152, type: !1660, isLocal: false, isDefinition: false, flags: DIFlagPrototyped, isOptimized: true)
!1713 = !DIImportedEntity(tag: DW_TAG_imported_declaration, scope: !7, entity: !1714, line: 167)
!1714 = !DISubprogram(name: "wmemmove", scope: !1570, file: !1570, line: 153, type: !1660, isLocal: false, isDefinition: false, flags: DIFlagPrototyped, isOptimized: true)
!1715 = !DIImportedEntity(tag: DW_TAG_imported_declaration, scope: !7, entity: !1716, line: 168)
!1716 = !DISubprogram(name: "wmemset", scope: !1570, file: !1570, line: 154, type: !1693, isLocal: false, isDefinition: false, flags: DIFlagPrototyped, isOptimized: true)
!1717 = !DIImportedEntity(tag: DW_TAG_imported_declaration, scope: !7, entity: !1718, line: 169)
!1718 = !DISubprogram(name: "wcsftime", linkageName: "\01_wcsftime", scope: !1570, file: !1570, line: 130, type: !1719, isLocal: false, isDefinition: false, flags: DIFlagPrototyped, isOptimized: true)
!1719 = !DISubroutineType(types: !1720)
!1720 = !{!905, !1212, !905, !1226, !1721}
!1721 = !DIDerivedType(tag: DW_TAG_pointer_type, baseType: !1722, size: 64)
!1722 = !DIDerivedType(tag: DW_TAG_const_type, baseType: !1552)
!1723 = !DIImportedEntity(tag: DW_TAG_imported_declaration, scope: !7, entity: !1724, line: 170)
!1724 = !DISubprogram(name: "btowc", scope: !1570, file: !1570, line: 97, type: !1725, isLocal: false, isDefinition: false, flags: DIFlagPrototyped, isOptimized: true)
!1725 = !DISubroutineType(types: !1726)
!1726 = !{!1475, !252}
!1727 = !DIImportedEntity(tag: DW_TAG_imported_declaration, scope: !7, entity: !1728, line: 171)
!1728 = !DISubprogram(name: "wctob", scope: !1570, file: !1570, line: 143, type: !1491, isLocal: false, isDefinition: false, flags: DIFlagPrototyped, isOptimized: true)
!1729 = !DIImportedEntity(tag: DW_TAG_imported_declaration, scope: !7, entity: !1730, line: 172)
!1730 = !DISubprogram(name: "mbsinit", scope: !1570, file: !1570, line: 110, type: !1731, isLocal: false, isDefinition: false, flags: DIFlagPrototyped, isOptimized: true)
!1731 = !DISubroutineType(types: !1732)
!1732 = !{!252, !1733}
!1733 = !DIDerivedType(tag: DW_TAG_pointer_type, baseType: !1734, size: 64)
!1734 = !DIDerivedType(tag: DW_TAG_const_type, baseType: !1539)
!1735 = !DIImportedEntity(tag: DW_TAG_imported_declaration, scope: !7, entity: !1736, line: 173)
!1736 = !DISubprogram(name: "mbrlen", scope: !1570, file: !1570, line: 107, type: !1737, isLocal: false, isDefinition: false, flags: DIFlagPrototyped, isOptimized: true)
!1737 = !DISubroutineType(types: !1738)
!1738 = !{!905, !928, !905, !1739}
!1739 = !DIDerivedType(tag: DW_TAG_pointer_type, baseType: !1539, size: 64)
!1740 = !DIImportedEntity(tag: DW_TAG_imported_declaration, scope: !7, entity: !1741, line: 174)
!1741 = !DISubprogram(name: "mbrtowc", scope: !1570, file: !1570, line: 108, type: !1742, isLocal: false, isDefinition: false, flags: DIFlagPrototyped, isOptimized: true)
!1742 = !DISubroutineType(types: !1743)
!1743 = !{!905, !1212, !928, !905, !1739}
!1744 = !DIImportedEntity(tag: DW_TAG_imported_declaration, scope: !7, entity: !1745, line: 175)
!1745 = !DISubprogram(name: "wcrtomb", scope: !1570, file: !1570, line: 123, type: !1746, isLocal: false, isDefinition: false, flags: DIFlagPrototyped, isOptimized: true)
!1746 = !DISubroutineType(types: !1747)
!1747 = !{!905, !927, !1213, !1739}
!1748 = !DIImportedEntity(tag: DW_TAG_imported_declaration, scope: !7, entity: !1749, line: 176)
!1749 = !DISubprogram(name: "mbsrtowcs", scope: !1570, file: !1570, line: 111, type: !1750, isLocal: false, isDefinition: false, flags: DIFlagPrototyped, isOptimized: true)
!1750 = !DISubroutineType(types: !1751)
!1751 = !{!905, !1212, !1752, !905, !1739}
!1752 = !DIDerivedType(tag: DW_TAG_pointer_type, baseType: !928, size: 64)
!1753 = !DIImportedEntity(tag: DW_TAG_imported_declaration, scope: !7, entity: !1754, line: 177)
!1754 = !DISubprogram(name: "wcsrtombs", scope: !1570, file: !1570, line: 138, type: !1755, isLocal: false, isDefinition: false, flags: DIFlagPrototyped, isOptimized: true)
!1755 = !DISubroutineType(types: !1756)
!1756 = !{!905, !927, !1757, !905, !1739}
!1757 = !DIDerivedType(tag: DW_TAG_pointer_type, baseType: !1226, size: 64)
!1758 = !DIImportedEntity(tag: DW_TAG_imported_declaration, scope: !7, entity: !1759, line: 180)
!1759 = !DISubprogram(name: "getwchar", scope: !1570, file: !1570, line: 106, type: !1760, isLocal: false, isDefinition: false, flags: DIFlagPrototyped, isOptimized: true)
!1760 = !DISubroutineType(types: !1761)
!1761 = !{!1475}
!1762 = !DIImportedEntity(tag: DW_TAG_imported_declaration, scope: !7, entity: !1763, line: 181)
!1763 = !DISubprogram(name: "vwscanf", scope: !1570, file: !1570, line: 174, type: !1764, isLocal: false, isDefinition: false, flags: DIFlagPrototyped, isOptimized: true)
!1764 = !DISubroutineType(types: !1765)
!1765 = !{!252, !1226, !1321}
!1766 = !DIImportedEntity(tag: DW_TAG_imported_declaration, scope: !7, entity: !1767, line: 182)
!1767 = !DISubprogram(name: "wscanf", scope: !1570, file: !1570, line: 156, type: !1768, isLocal: false, isDefinition: false, flags: DIFlagPrototyped, isOptimized: true)
!1768 = !DISubroutineType(types: !1769)
!1769 = !{!252, !1226, null}
!1770 = !DIImportedEntity(tag: DW_TAG_imported_declaration, scope: !7, entity: !1771, line: 186)
!1771 = !DISubprogram(name: "putwchar", scope: !1570, file: !1570, line: 114, type: !1772, isLocal: false, isDefinition: false, flags: DIFlagPrototyped, isOptimized: true)
!1772 = !DISubroutineType(types: !1773)
!1773 = !{!1475, !1213}
!1774 = !DIImportedEntity(tag: DW_TAG_imported_declaration, scope: !7, entity: !1775, line: 187)
!1775 = !DISubprogram(name: "vwprintf", scope: !1570, file: !1570, line: 122, type: !1764, isLocal: false, isDefinition: false, flags: DIFlagPrototyped, isOptimized: true)
!1776 = !DIImportedEntity(tag: DW_TAG_imported_declaration, scope: !7, entity: !1777, line: 188)
!1777 = !DISubprogram(name: "wprintf", scope: !1570, file: !1570, line: 155, type: !1768, isLocal: false, isDefinition: false, flags: DIFlagPrototyped, isOptimized: true)
!1778 = !DIImportedEntity(tag: DW_TAG_imported_declaration, scope: !7, entity: !1779, line: 56)
!1779 = !DIDerivedType(tag: DW_TAG_typedef, name: "clock_t", file: !1780, line: 30, baseType: !1781)
!1780 = !DIFile(filename: "/usr/include/sys/_types/_clock_t.h", directory: "/Users/aser/Dropbox/papers/C++11/Checker11/examples/mo_release_acquire3")
!1781 = !DIDerivedType(tag: DW_TAG_typedef, name: "__darwin_clock_t", file: !421, line: 117, baseType: !610)
!1782 = !DIImportedEntity(tag: DW_TAG_imported_declaration, scope: !7, entity: !905, line: 57)
!1783 = !DIImportedEntity(tag: DW_TAG_imported_declaration, scope: !7, entity: !418, line: 58)
!1784 = !DIImportedEntity(tag: DW_TAG_imported_declaration, scope: !7, entity: !1552, line: 59)
!1785 = !DIImportedEntity(tag: DW_TAG_imported_declaration, scope: !7, entity: !1786, line: 60)
!1786 = !DISubprogram(name: "clock", linkageName: "\01_clock", scope: !1553, file: !1553, line: 107, type: !1787, isLocal: false, isDefinition: false, flags: DIFlagPrototyped, isOptimized: true)
!1787 = !DISubroutineType(types: !1788)
!1788 = !{!1779}
!1789 = !DIImportedEntity(tag: DW_TAG_imported_declaration, scope: !7, entity: !1790, line: 61)
!1790 = !DISubprogram(name: "difftime", scope: !1553, file: !1553, line: 109, type: !1791, isLocal: false, isDefinition: false, flags: DIFlagPrototyped, isOptimized: true)
!1791 = !DISubroutineType(types: !1792)
!1792 = !{!1087, !418, !418}
!1793 = !DIImportedEntity(tag: DW_TAG_imported_declaration, scope: !7, entity: !1794, line: 62)
!1794 = !DISubprogram(name: "mktime", linkageName: "\01_mktime", scope: !1553, file: !1553, line: 113, type: !1795, isLocal: false, isDefinition: false, flags: DIFlagPrototyped, isOptimized: true)
!1795 = !DISubroutineType(types: !1796)
!1796 = !{!418, !1797}
!1797 = !DIDerivedType(tag: DW_TAG_pointer_type, baseType: !1552, size: 64)
!1798 = !DIImportedEntity(tag: DW_TAG_imported_declaration, scope: !7, entity: !1799, line: 63)
!1799 = !DISubprogram(name: "time", scope: !1553, file: !1553, line: 116, type: !1800, isLocal: false, isDefinition: false, flags: DIFlagPrototyped, isOptimized: true)
!1800 = !DISubroutineType(types: !1801)
!1801 = !{!418, !1802}
!1802 = !DIDerivedType(tag: DW_TAG_pointer_type, baseType: !418, size: 64)
!1803 = !DIImportedEntity(tag: DW_TAG_imported_declaration, scope: !7, entity: !1804, line: 65)
!1804 = !DISubprogram(name: "asctime", scope: !1553, file: !1553, line: 106, type: !1805, isLocal: false, isDefinition: false, flags: DIFlagPrototyped, isOptimized: true)
!1805 = !DISubroutineType(types: !1806)
!1806 = !{!927, !1721}
!1807 = !DIImportedEntity(tag: DW_TAG_imported_declaration, scope: !7, entity: !1808, line: 66)
!1808 = !DISubprogram(name: "ctime", scope: !1553, file: !1553, line: 108, type: !1809, isLocal: false, isDefinition: false, flags: DIFlagPrototyped, isOptimized: true)
!1809 = !DISubroutineType(types: !1810)
!1810 = !{!927, !1811}
!1811 = !DIDerivedType(tag: DW_TAG_pointer_type, baseType: !1812, size: 64)
!1812 = !DIDerivedType(tag: DW_TAG_const_type, baseType: !418)
!1813 = !DIImportedEntity(tag: DW_TAG_imported_declaration, scope: !7, entity: !1814, line: 67)
!1814 = !DISubprogram(name: "gmtime", scope: !1553, file: !1553, line: 111, type: !1815, isLocal: false, isDefinition: false, flags: DIFlagPrototyped, isOptimized: true)
!1815 = !DISubroutineType(types: !1816)
!1816 = !{!1797, !1811}
!1817 = !DIImportedEntity(tag: DW_TAG_imported_declaration, scope: !7, entity: !1818, line: 68)
!1818 = !DISubprogram(name: "localtime", scope: !1553, file: !1553, line: 112, type: !1815, isLocal: false, isDefinition: false, flags: DIFlagPrototyped, isOptimized: true)
!1819 = !DIImportedEntity(tag: DW_TAG_imported_declaration, scope: !7, entity: !1820, line: 70)
!1820 = !DISubprogram(name: "strftime", linkageName: "\01_strftime", scope: !1553, file: !1553, line: 114, type: !1821, isLocal: false, isDefinition: false, flags: DIFlagPrototyped, isOptimized: true)
!1821 = !DISubroutineType(types: !1822)
!1822 = !{!905, !927, !905, !928, !1721}
!1823 = !{i32 2, !"Dwarf Version", i32 2}
!1824 = !{i32 2, !"Debug Info Version", i32 3}
!1825 = !{i32 1, !"PIC Level", i32 2}
!1826 = !{!"clang version 4.0.0 (tags/RELEASE_400/final)"}
!1827 = distinct !DISubprogram(name: "f1", linkageName: "_Z2f1v", scope: !3, file: !3, line: 10, type: !617, isLocal: false, isDefinition: true, scopeLine: 10, flags: DIFlagPrototyped, isOptimized: true, unit: !2, variables: !161)
!1828 = !DILocation(line: 11, column: 5, scope: !1827)
!1829 = !DILocalVariable(name: "__d", arg: 2, scope: !1830, file: !6, line: 916, type: !252)
!1830 = distinct !DISubprogram(name: "store", linkageName: "_ZNSt3__113__atomic_baseIiLb0EE5storeEiNS_12memory_orderE", scope: !754, file: !6, line: 916, type: !775, isLocal: false, isDefinition: true, scopeLine: 918, flags: DIFlagPrototyped, isOptimized: true, unit: !2, declaration: !774, variables: !1831)
!1831 = !{!1832, !1829, !1834}
!1832 = !DILocalVariable(name: "this", arg: 1, scope: !1830, type: !1833, flags: DIFlagArtificial | DIFlagObjectPointer)
!1833 = !DIDerivedType(tag: DW_TAG_pointer_type, baseType: !754, size: 64)
!1834 = !DILocalVariable(name: "__m", arg: 3, scope: !1830, file: !6, line: 916, type: !773)
!1835 = !DIExpression()
!1836 = !DILocation(line: 916, column: 20, scope: !1830, inlinedAt: !1837)
!1837 = distinct !DILocation(line: 12, column: 7, scope: !1827)
!1838 = !DILocation(line: 916, column: 38, scope: !1830, inlinedAt: !1837)
!1839 = !DILocation(line: 918, column: 10, scope: !1840, inlinedAt: !1837)
!1840 = !DILexicalBlockFile(scope: !1830, file: !6, discriminator: 2)
!1841 = !DILocation(line: 916, column: 20, scope: !1830, inlinedAt: !1842)
!1842 = distinct !DILocation(line: 13, column: 7, scope: !1827)
!1843 = !DILocation(line: 916, column: 38, scope: !1830, inlinedAt: !1842)
!1844 = !DILocation(line: 918, column: 10, scope: !1840, inlinedAt: !1842)
!1845 = !DILocation(line: 14, column: 5, scope: !1827)
!1846 = !DILocation(line: 15, column: 1, scope: !1827)
!1847 = distinct !DISubprogram(name: "f2", linkageName: "_Z2f2v", scope: !3, file: !3, line: 17, type: !617, isLocal: false, isDefinition: true, scopeLine: 17, flags: DIFlagPrototyped, isOptimized: true, unit: !2, variables: !161)
!1848 = !DILocation(line: 18, column: 5, scope: !1847)
!1849 = !DILocalVariable(name: "__m", arg: 2, scope: !1850, file: !6, line: 924, type: !773)
!1850 = distinct !DISubprogram(name: "load", linkageName: "_ZNKSt3__113__atomic_baseIiLb0EE4loadENS_12memory_orderE", scope: !754, file: !6, line: 924, type: !782, isLocal: false, isDefinition: true, scopeLine: 926, flags: DIFlagPrototyped, isOptimized: true, unit: !2, declaration: !781, variables: !1851)
!1851 = !{!1852, !1849}
!1852 = !DILocalVariable(name: "this", arg: 1, scope: !1850, type: !1853, flags: DIFlagArtificial | DIFlagObjectPointer)
!1853 = !DIDerivedType(tag: DW_TAG_pointer_type, baseType: !768, size: 64)
!1854 = !DILocation(line: 924, column: 27, scope: !1850, inlinedAt: !1855)
!1855 = distinct !DILocation(line: 19, column: 15, scope: !1847)
!1856 = !DILocation(line: 926, column: 17, scope: !1857, inlinedAt: !1855)
!1857 = !DILexicalBlockFile(scope: !1850, file: !6, discriminator: 2)
!1858 = !DILocation(line: 19, column: 11, scope: !1847)
!1859 = !{!1860, !1860, i64 0}
!1860 = !{!"int", !1861, i64 0}
!1861 = !{!"omnipotent char", !1862, i64 0}
!1862 = !{!"Simple C++ TBAA"}
!1863 = !DILocation(line: 924, column: 27, scope: !1850, inlinedAt: !1864)
!1864 = distinct !DILocation(line: 20, column: 15, scope: !1847)
!1865 = !DILocation(line: 926, column: 17, scope: !1857, inlinedAt: !1864)
!1866 = !DILocation(line: 20, column: 11, scope: !1847)
!1867 = !DILocation(line: 21, column: 5, scope: !1847)
!1868 = !DILocation(line: 22, column: 1, scope: !1847)
!1869 = distinct !DISubprogram(name: "f3", linkageName: "_Z2f3v", scope: !3, file: !3, line: 24, type: !617, isLocal: false, isDefinition: true, scopeLine: 24, flags: DIFlagPrototyped, isOptimized: true, unit: !2, variables: !161)
!1870 = !DILocation(line: 25, column: 5, scope: !1869)
!1871 = !DILocation(line: 924, column: 27, scope: !1850, inlinedAt: !1872)
!1872 = distinct !DILocation(line: 26, column: 15, scope: !1869)
!1873 = !DILocation(line: 926, column: 17, scope: !1857, inlinedAt: !1872)
!1874 = !DILocation(line: 26, column: 11, scope: !1869)
!1875 = !DILocation(line: 924, column: 27, scope: !1850, inlinedAt: !1876)
!1876 = distinct !DILocation(line: 27, column: 15, scope: !1869)
!1877 = !DILocation(line: 926, column: 17, scope: !1857, inlinedAt: !1876)
!1878 = !DILocation(line: 27, column: 11, scope: !1869)
!1879 = !DILocation(line: 28, column: 5, scope: !1869)
!1880 = !DILocation(line: 29, column: 1, scope: !1869)
!1881 = distinct !DISubprogram(name: "user_main", scope: !3, file: !3, line: 32, type: !1132, isLocal: false, isDefinition: true, scopeLine: 32, flags: DIFlagPrototyped, isOptimized: true, unit: !2, variables: !1882)
!1882 = !{!1883, !1959, !1960}
!1883 = !DILocalVariable(name: "a", scope: !1881, file: !3, line: 35, type: !1884)
!1884 = distinct !DICompositeType(tag: DW_TAG_class_type, name: "thread", scope: !7, file: !42, line: 282, size: 64, elements: !1885, identifier: "_ZTSNSt3__16threadE")
!1885 = !{!1886, !1907, !1913, !1917, !1920, !1921, !1925, !1928, !1931, !1935, !1936, !1937, !1952, !1956}
!1886 = !DIDerivedType(tag: DW_TAG_member, name: "__t_", scope: !1884, file: !42, line: 284, baseType: !1887, size: 64)
!1887 = !DIDerivedType(tag: DW_TAG_typedef, name: "__libcpp_thread_t", scope: !7, file: !70, line: 72, baseType: !1888)
!1888 = !DIDerivedType(tag: DW_TAG_typedef, name: "pthread_t", file: !1889, line: 30, baseType: !1890)
!1889 = !DIFile(filename: "/usr/include/sys/_pthread/_pthread_t.h", directory: "/Users/aser/Dropbox/papers/C++11/Checker11/examples/mo_release_acquire3")
!1890 = !DIDerivedType(tag: DW_TAG_typedef, name: "__darwin_pthread_t", file: !74, line: 118, baseType: !1891)
!1891 = !DIDerivedType(tag: DW_TAG_pointer_type, baseType: !1892, size: 64)
!1892 = distinct !DICompositeType(tag: DW_TAG_structure_type, name: "_opaque_pthread_t", file: !74, line: 103, size: 65536, elements: !1893, identifier: "_ZTS17_opaque_pthread_t")
!1893 = !{!1894, !1895, !1903}
!1894 = !DIDerivedType(tag: DW_TAG_member, name: "__sig", scope: !1892, file: !74, line: 104, baseType: !78, size: 64)
!1895 = !DIDerivedType(tag: DW_TAG_member, name: "__cleanup_stack", scope: !1892, file: !74, line: 105, baseType: !1896, size: 64, offset: 64)
!1896 = !DIDerivedType(tag: DW_TAG_pointer_type, baseType: !1897, size: 64)
!1897 = distinct !DICompositeType(tag: DW_TAG_structure_type, name: "__darwin_pthread_handler_rec", file: !74, line: 57, size: 192, elements: !1898, identifier: "_ZTS28__darwin_pthread_handler_rec")
!1898 = !{!1899, !1901, !1902}
!1899 = !DIDerivedType(tag: DW_TAG_member, name: "__routine", scope: !1897, file: !74, line: 58, baseType: !1900, size: 64)
!1900 = !DIDerivedType(tag: DW_TAG_pointer_type, baseType: !1144, size: 64)
!1901 = !DIDerivedType(tag: DW_TAG_member, name: "__arg", scope: !1897, file: !74, line: 59, baseType: !918, size: 64, offset: 64)
!1902 = !DIDerivedType(tag: DW_TAG_member, name: "__next", scope: !1897, file: !74, line: 60, baseType: !1896, size: 64, offset: 128)
!1903 = !DIDerivedType(tag: DW_TAG_member, name: "__opaque", scope: !1892, file: !74, line: 106, baseType: !1904, size: 65408, offset: 128)
!1904 = !DICompositeType(tag: DW_TAG_array_type, baseType: !81, size: 65408, elements: !1905)
!1905 = !{!1906}
!1906 = !DISubrange(count: 8176)
!1907 = !DISubprogram(name: "thread", scope: !1884, file: !42, line: 286, type: !1908, isLocal: false, isDefinition: false, scopeLine: 286, flags: DIFlagPrototyped, isOptimized: true)
!1908 = !DISubroutineType(types: !1909)
!1909 = !{null, !1910, !1911}
