; ModuleID = 'x.bc'
source_filename = "example.cpp"
target datalayout = "e-m:o-i64:64-f80:128-n8:16:32:64-S128"
target triple = "x86_64-apple-macosx10.10.0"

%"struct.std::__1::atomic" = type { %"struct.std::__1::__atomic_base" }
%"struct.std::__1::__atomic_base" = type { %"struct.std::__1::__atomic_base.0" }
%"struct.std::__1::__atomic_base.0" = type { i32 }
%"class.std::__1::basic_ostream" = type { i32 (...)**, %"class.std::__1::basic_ios.base" }
%"class.std::__1::basic_ios.base" = type <{ %"class.std::__1::ios_base", %"class.std::__1::basic_ostream"*, i32 }>
%"class.std::__1::ios_base" = type { i32 (...)**, i32, i64, i64, i32, i32, i8*, i8*, void (i32, %"class.std::__1::ios_base"*, i32)**, i32*, i64, i64, i64*, i64, i64, i8**, i64, i64 }
%"class.checker::ModelChecker" = type { i32, %"class.std::__1::vector", %"class.checker::Executor"* }
%"class.std::__1::vector" = type { %"class.std::__1::__vector_base" }
%"class.std::__1::__vector_base" = type { %"class.checker::Schedule"**, %"class.checker::Schedule"**, %"class.std::__1::__compressed_pair" }
%"class.checker::Schedule" = type opaque
%"class.std::__1::__compressed_pair" = type { %"struct.std::__1::__compressed_pair_elem" }
%"struct.std::__1::__compressed_pair_elem" = type { %"class.checker::Schedule"** }
%"class.checker::Executor" = type opaque
%"class.std::__1::locale::id" = type <{ %"struct.std::__1::once_flag", i32, [4 x i8] }>
%"struct.std::__1::once_flag" = type { i64 }
%"class.std::__1::thread" = type { %struct._opaque_pthread_t* }
%struct._opaque_pthread_t = type { i64, %struct.__darwin_pthread_handler_rec*, [8176 x i8] }
%struct.__darwin_pthread_handler_rec = type { void (i8*)*, i8*, %struct.__darwin_pthread_handler_rec* }
%"class.std::__1::allocator" = type { i8 }
%"class.std::__1::__vector_base_common" = type { i8 }
%"struct.std::__1::vector<checker::Schedule *, std::__1::allocator<checker::Schedule *> >::__RAII_IncreaseAnnotator" = type { i8 }
%"class.std::__1::locale" = type { %"class.std::__1::locale::__imp"* }
%"class.std::__1::locale::__imp" = type opaque
%"class.std::__1::basic_ostream<char, std::__1::char_traits<char> >::sentry" = type { i8, %"class.std::__1::basic_ostream"* }
%"class.std::__1::ostreambuf_iterator" = type { %"class.std::__1::basic_streambuf"* }
%"class.std::__1::basic_streambuf" = type { i32 (...)**, %"class.std::__1::locale", i8*, i8*, i8*, i8*, i8*, i8* }
%"class.std::__1::locale::facet" = type { %"class.std::__1::__shared_count" }
%"class.std::__1::__shared_count" = type { i32 (...)**, i64 }
%"class.std::__1::ctype" = type <{ %"class.std::__1::locale::facet", i32*, i8, [7 x i8] }>
%"class.std::__1::basic_string" = type { %"class.std::__1::__compressed_pair.3" }
%"class.std::__1::__compressed_pair.3" = type { %"struct.std::__1::__compressed_pair_elem.4" }
%"struct.std::__1::__compressed_pair_elem.4" = type { %"struct.std::__1::basic_string<char, std::__1::char_traits<char>, std::__1::allocator<char> >::__rep" }
%"struct.std::__1::basic_string<char, std::__1::char_traits<char>, std::__1::allocator<char> >::__rep" = type { %union.anon }
%union.anon = type { %"struct.std::__1::basic_string<char, std::__1::char_traits<char>, std::__1::allocator<char> >::__long" }
%"struct.std::__1::basic_string<char, std::__1::char_traits<char>, std::__1::allocator<char> >::__long" = type { i64, i64, i8* }
%"struct.std::__1::basic_string<char, std::__1::char_traits<char>, std::__1::allocator<char> >::__short" = type { %union.anon.5, [23 x i8] }
%union.anon.5 = type { i8 }
%"class.std::__1::__thread_struct" = type { %"class.std::__1::__thread_struct_imp"* }
%"class.std::__1::__thread_struct_imp" = type opaque
%"class.std::__1::unique_ptr" = type { %"class.std::__1::__compressed_pair.10" }
%"class.std::__1::__compressed_pair.10" = type { %"struct.std::__1::__compressed_pair_elem.11" }
%"struct.std::__1::__compressed_pair_elem.11" = type { %"class.std::__1::__thread_struct"* }
%"class.std::__1::unique_ptr.13" = type { %"class.std::__1::__compressed_pair.14" }
%"class.std::__1::__compressed_pair.14" = type { %"struct.std::__1::__compressed_pair_elem.15" }
%"struct.std::__1::__compressed_pair_elem.15" = type { %"class.std::__1::tuple"* }
%"class.std::__1::tuple" = type { %"struct.std::__1::__tuple_impl" }
%"struct.std::__1::__tuple_impl" = type { %"class.std::__1::__tuple_leaf", %"class.std::__1::__tuple_leaf.16" }
%"class.std::__1::__tuple_leaf" = type { %"class.std::__1::unique_ptr" }
%"class.std::__1::__tuple_leaf.16" = type { void ()* }
%struct._opaque_pthread_attr_t = type { i64, [56 x i8] }
%"class.std::__1::__thread_specific_ptr" = type { i64 }

@data1 = global %"struct.std::__1::atomic" zeroinitializer, align 4, !dbg !0
@data2 = local_unnamed_addr global i32 0, align 4, !dbg !3451
@x = global %"struct.std::__1::atomic" zeroinitializer, align 4, !dbg !3453
@.str = private unnamed_addr constant [3 x i8] c"f1\00", align 1
@.str.1 = private unnamed_addr constant [3 x i8] c"f2\00", align 1
@.str.2 = private unnamed_addr constant [5 x i8] c"main\00", align 1
@_ZNSt3__14coutE = external global %"class.std::__1::basic_ostream", align 8
@.str.3 = private unnamed_addr constant [7 x i8] c"data: \00", align 1
@.str.4 = private unnamed_addr constant [2 x i8] c" \00", align 1
@.str.5 = private unnamed_addr constant [2 x i8] c"\0A\00", align 1
@modelChecker = external local_unnamed_addr global %"class.checker::ModelChecker"*, align 8
@.str.6 = private unnamed_addr constant [27 x i8] c"Generate a model checker: \00", align 1
@_ZNSt3__15ctypeIcE2idE = external global %"class.std::__1::locale::id", align 8
@.str.8 = private unnamed_addr constant [26 x i8] c"thread constructor failed\00", align 1

; Function Attrs: ssp uwtable
define void @_Z2f1v() #0 !dbg !4359 {
entry:
  tail call void @checker_thread_begin(i8* getelementptr inbounds ([3 x i8], [3 x i8]* @.str, i64 0, i64 0)), !dbg !4360
  tail call void @llvm.dbg.value(metadata %"struct.std::__1::atomic"* @data1, i64 0, metadata !4361, metadata !4366), !dbg !4367
  tail call void @llvm.dbg.value(metadata i32 2, i64 0, metadata !4364, metadata !4366), !dbg !4369
  tail call void @llvm.dbg.value(metadata i32 2, i64 0, metadata !4370, metadata !4366), !dbg !4376
  tail call void @llvm.dbg.value(metadata i32 5, i64 0, metadata !4375, metadata !4366), !dbg !4378
  %myCast = bitcast i32* getelementptr inbounds (%"struct.std::__1::atomic", %"struct.std::__1::atomic"* @data1, i64 0, i32 0, i32 0, i32 0) to i8*
  call void @preAtomicStore_int(i8* %myCast, i32 2, i32 7)
  store atomic i32 2, i32* getelementptr inbounds (%"struct.std::__1::atomic", %"struct.std::__1::atomic"* @data1, i64 0, i32 0, i32 0, i32 0) seq_cst, align 4, !dbg !4379
  tail call void @llvm.dbg.value(metadata i32 3, i64 0, metadata !4381, metadata !4366), !dbg !4386
  call void @preFence(i32 5)
  fence release, !dbg !4388
  tail call void @llvm.dbg.value(metadata i32 1, i64 0, metadata !4370, metadata !4366), !dbg !4390
  tail call void @llvm.dbg.value(metadata i32 0, i64 0, metadata !4375, metadata !4366), !dbg !4392
  %myCast1 = bitcast i32* getelementptr inbounds (%"struct.std::__1::atomic", %"struct.std::__1::atomic"* @x, i64 0, i32 0, i32 0, i32 0) to i8*
  call void @preAtomicStore_int(i8* %myCast1, i32 1, i32 2)
  store atomic i32 1, i32* getelementptr inbounds (%"struct.std::__1::atomic", %"struct.std::__1::atomic"* @x, i64 0, i32 0, i32 0, i32 0) monotonic, align 4, !dbg !4393
  tail call void @llvm.dbg.value(metadata i32 2, i64 0, metadata !4370, metadata !4366), !dbg !4395
  tail call void @llvm.dbg.value(metadata i32 0, i64 0, metadata !4375, metadata !4366), !dbg !4397
  %myCast2 = bitcast i32* getelementptr inbounds (%"struct.std::__1::atomic", %"struct.std::__1::atomic"* @x, i64 0, i32 0, i32 0, i32 0) to i8*
  call void @preAtomicStore_int(i8* %myCast2, i32 2, i32 2)
  store atomic i32 2, i32* getelementptr inbounds (%"struct.std::__1::atomic", %"struct.std::__1::atomic"* @x, i64 0, i32 0, i32 0, i32 0) monotonic, align 4, !dbg !4398
  tail call void @checker_thread_end(), !dbg !4399
  ret void, !dbg !4400
}

declare void @checker_thread_begin(i8*) local_unnamed_addr #1

declare void @checker_thread_end() local_unnamed_addr #1

; Function Attrs: ssp uwtable
define void @_Z2f2v() #0 !dbg !4401 {
entry:
  tail call void @checker_thread_begin(i8* getelementptr inbounds ([3 x i8], [3 x i8]* @.str.1, i64 0, i64 0)), !dbg !4402
  tail call void @llvm.dbg.value(metadata i32 2, i64 0, metadata !4403, metadata !4366), !dbg !4408
  %myCast = bitcast i32* getelementptr inbounds (%"struct.std::__1::atomic", %"struct.std::__1::atomic"* @x, i64 0, i32 0, i32 0, i32 0) to i8*
  %0 = call i32 @preAtomicLoad_int(i8* %myCast, i32 4)
  %newLoad = load atomic i32, i32* getelementptr inbounds (%"struct.std::__1::atomic", %"struct.std::__1::atomic"* @x, i64 0, i32 0, i32 0, i32 0) acquire, align 4
  %1 = icmp eq i32 %0, 255
  %mySelect = select i1 %1, i32 %newLoad, i32 %0
  call void @postAtomicLoad_int(i8* %myCast, i32 %mySelect, i32 4)
  %myCast1 = bitcast i32* @data2 to i8*
  call void @preNonAtomicStore_int(i8* %myCast1, i32 %mySelect)
  store i32 %mySelect, i32* @data2, align 4, !dbg !4410, !tbaa !4411
  tail call void @llvm.dbg.value(metadata i32 2, i64 0, metadata !4381, metadata !4366), !dbg !4415
  call void @preFence(i32 4)
  fence acquire, !dbg !4417
  tail call void @checker_thread_end(), !dbg !4419
  ret void, !dbg !4420
}

; Function Attrs: ssp uwtable
define i32 @user_main() local_unnamed_addr #0 personality i8* bitcast (i32 (...)* @__gxx_personality_v0 to i8*) !dbg !4421 {
entry:
  %a = alloca %"class.std::__1::thread", align 8
  %b = alloca %"class.std::__1::thread", align 8
  tail call void @checker_generateExecutor(), !dbg !4500
  tail call void @checker_thread_begin(i8* getelementptr inbounds ([5 x i8], [5 x i8]* @.str.2, i64 0, i64 0)), !dbg !4501
  %myCast = bitcast i32* @data2 to i8*
  call void @preNonAtomicStore_int(i8* %myCast, i32 0)
  store i32 0, i32* @data2, align 4, !dbg !4502, !tbaa !4411
  tail call void @llvm.dbg.value(metadata %"struct.std::__1::atomic"* @data1, i64 0, metadata !4361, metadata !4366), !dbg !4503
  tail call void @llvm.dbg.value(metadata i32 0, i64 0, metadata !4364, metadata !4366), !dbg !4505
  tail call void @llvm.dbg.value(metadata i32 0, i64 0, metadata !4370, metadata !4366), !dbg !4506
  tail call void @llvm.dbg.value(metadata i32 5, i64 0, metadata !4375, metadata !4366), !dbg !4508
  %myCast1 = bitcast i32* getelementptr inbounds (%"struct.std::__1::atomic", %"struct.std::__1::atomic"* @data1, i64 0, i32 0, i32 0, i32 0) to i8*
  call void @preAtomicStore_int(i8* %myCast1, i32 0, i32 7)
  store atomic i32 0, i32* getelementptr inbounds (%"struct.std::__1::atomic", %"struct.std::__1::atomic"* @data1, i64 0, i32 0, i32 0, i32 0) seq_cst, align 4, !dbg !4509
  tail call void @llvm.dbg.value(metadata %"struct.std::__1::atomic"* @x, i64 0, metadata !4361, metadata !4366), !dbg !4510
  tail call void @llvm.dbg.value(metadata i32 0, i64 0, metadata !4364, metadata !4366), !dbg !4512
  tail call void @llvm.dbg.value(metadata i32 0, i64 0, metadata !4370, metadata !4366), !dbg !4513
  tail call void @llvm.dbg.value(metadata i32 5, i64 0, metadata !4375, metadata !4366), !dbg !4515
  %myCast2 = bitcast i32* getelementptr inbounds (%"struct.std::__1::atomic", %"struct.std::__1::atomic"* @x, i64 0, i32 0, i32 0, i32 0) to i8*
  call void @preAtomicStore_int(i8* %myCast2, i32 0, i32 7)
  store atomic i32 0, i32* getelementptr inbounds (%"struct.std::__1::atomic", %"struct.std::__1::atomic"* @x, i64 0, i32 0, i32 0, i32 0) seq_cst, align 4, !dbg !4516
  %0 = bitcast %"class.std::__1::thread"* %a to i8*, !dbg !4517
  call void @llvm.lifetime.start(i64 8, i8* nonnull %0) #10, !dbg !4517
  tail call void @llvm.dbg.value(metadata %"class.std::__1::thread"* %a, i64 0, metadata !4423, metadata !4518), !dbg !4519
  tail call void @llvm.dbg.value(metadata %"class.std::__1::thread"* %a, i64 0, metadata !4520, metadata !4366), !dbg !4533
  tail call void @llvm.dbg.value(metadata void ()* @_Z2f1v, i64 0, metadata !4531, metadata !4366), !dbg !4535
  call void @_ZNSt3__16threadC2IRFvvEJEvEEOT_DpOT0_(%"class.std::__1::thread"* nonnull %a, void ()* nonnull @_Z2f1v), !dbg !4536
  %1 = bitcast %"class.std::__1::thread"* %b to i8*, !dbg !4537
  call void @llvm.lifetime.start(i64 8, i8* nonnull %1) #10, !dbg !4537
  call void @llvm.dbg.value(metadata %"class.std::__1::thread"* %b, i64 0, metadata !4520, metadata !4366), !dbg !4538
  call void @llvm.dbg.value(metadata void ()* @_Z2f2v, i64 0, metadata !4531, metadata !4366), !dbg !4540
  invoke void @_ZNSt3__16threadC2IRFvvEJEvEEOT_DpOT0_(%"class.std::__1::thread"* nonnull %b, void ()* nonnull @_Z2f2v)
          to label %invoke.cont unwind label %lpad, !dbg !4541

invoke.cont:                                      ; preds = %entry
  call void @llvm.dbg.value(metadata %"class.std::__1::thread"* %a, i64 0, metadata !4423, metadata !4518), !dbg !4519
  tail call void @llvm.dbg.value(metadata %"class.std::__1::thread"* %a, i64 0, metadata !4542, metadata !4366), !dbg !4546
  %__t_.i = getelementptr inbounds %"class.std::__1::thread", %"class.std::__1::thread"* %a, i64 0, i32 0, !dbg !4548
  tail call void @llvm.dbg.value(metadata %struct._opaque_pthread_t** %__t_.i, i64 0, metadata !4549, metadata !4366), !dbg !4556
  %2 = load %struct._opaque_pthread_t*, %struct._opaque_pthread_t** %__t_.i, align 8, !dbg !4558, !tbaa !4559
  invoke void @checker_thread_create(%struct._opaque_pthread_t* %2)
          to label %invoke.cont5 unwind label %lpad4, !dbg !4561

invoke.cont5:                                     ; preds = %invoke.cont
  call void @llvm.dbg.value(metadata %"class.std::__1::thread"* %b, i64 0, metadata !4499, metadata !4518), !dbg !4562
  tail call void @llvm.dbg.value(metadata %"class.std::__1::thread"* %b, i64 0, metadata !4542, metadata !4366), !dbg !4563
  %__t_.i32 = getelementptr inbounds %"class.std::__1::thread", %"class.std::__1::thread"* %b, i64 0, i32 0, !dbg !4565
  tail call void @llvm.dbg.value(metadata %struct._opaque_pthread_t** %__t_.i32, i64 0, metadata !4549, metadata !4366), !dbg !4566
  %3 = load %struct._opaque_pthread_t*, %struct._opaque_pthread_t** %__t_.i32, align 8, !dbg !4568, !tbaa !4559
  invoke void @checker_thread_create(%struct._opaque_pthread_t* %3)
          to label %invoke.cont10 unwind label %lpad4, !dbg !4569

invoke.cont10:                                    ; preds = %invoke.cont5
  invoke void @_ZNSt3__16thread4joinEv(%"class.std::__1::thread"* nonnull %a)
          to label %invoke.cont11 unwind label %lpad4, !dbg !4570

invoke.cont11:                                    ; preds = %invoke.cont10
  invoke void @_ZNSt3__16thread4joinEv(%"class.std::__1::thread"* nonnull %b)
          to label %invoke.cont12 unwind label %lpad4, !dbg !4571

invoke.cont12:                                    ; preds = %invoke.cont11
  call void @llvm.dbg.value(metadata %"class.std::__1::basic_ostream"* @_ZNSt3__14coutE, i64 0, metadata !4573, metadata !4366), !dbg !4580
  call void @llvm.dbg.value(metadata i8* getelementptr inbounds ([7 x i8], [7 x i8]* @.str.3, i64 0, i64 0), i64 0, metadata !4579, metadata !4366), !dbg !4582
  %call1.i34 = invoke dereferenceable(160) %"class.std::__1::basic_ostream"* @_ZNSt3__124__put_character_sequenceIcNS_11char_traitsIcEEEERNS_13basic_ostreamIT_T0_EES7_PKS4_m(%"class.std::__1::basic_ostream"* nonnull dereferenceable(160) @_ZNSt3__14coutE, i8* getelementptr inbounds ([7 x i8], [7 x i8]* @.str.3, i64 0, i64 0), i64 6)
          to label %invoke.cont13 unwind label %lpad4, !dbg !4583

invoke.cont13:                                    ; preds = %invoke.cont12
  tail call void @llvm.dbg.value(metadata i32 5, i64 0, metadata !4403, metadata !4366), !dbg !4585
  %myCast3 = bitcast i32* getelementptr inbounds (%"struct.std::__1::atomic", %"struct.std::__1::atomic"* @data1, i64 0, i32 0, i32 0, i32 0) to i8*
  %4 = call i32 @preAtomicLoad_int(i8* %myCast3, i32 7)
  %newLoad = load atomic i32, i32* getelementptr inbounds (%"struct.std::__1::atomic", %"struct.std::__1::atomic"* @data1, i64 0, i32 0, i32 0, i32 0) seq_cst, align 4
  %5 = icmp eq i32 %4, 255
  %mySelect = select i1 %5, i32 %newLoad, i32 %4
  call void @postAtomicLoad_int(i8* %myCast3, i32 %mySelect, i32 7)
  %call17 = invoke dereferenceable(160) %"class.std::__1::basic_ostream"* @_ZNSt3__113basic_ostreamIcNS_11char_traitsIcEEElsEi(%"class.std::__1::basic_ostream"* nonnull %call1.i34, i32 %mySelect)
          to label %invoke.cont16 unwind label %lpad4, !dbg !4591

invoke.cont16:                                    ; preds = %invoke.cont13
  call void @llvm.dbg.value(metadata %"class.std::__1::basic_ostream"* %call17, i64 0, metadata !4573, metadata !4366), !dbg !4592
  call void @llvm.dbg.value(metadata i8* getelementptr inbounds ([2 x i8], [2 x i8]* @.str.4, i64 0, i64 0), i64 0, metadata !4579, metadata !4366), !dbg !4595
  %call1.i30 = invoke dereferenceable(160) %"class.std::__1::basic_ostream"* @_ZNSt3__124__put_character_sequenceIcNS_11char_traitsIcEEEERNS_13basic_ostreamIT_T0_EES7_PKS4_m(%"class.std::__1::basic_ostream"* nonnull dereferenceable(160) %call17, i8* getelementptr inbounds ([2 x i8], [2 x i8]* @.str.4, i64 0, i64 0), i64 1)
          to label %invoke.cont18 unwind label %lpad4, !dbg !4596

invoke.cont18:                                    ; preds = %invoke.cont16
  %6 = load i32, i32* @data2, align 4, !dbg !4597, !tbaa !4411
  %call21 = invoke dereferenceable(160) %"class.std::__1::basic_ostream"* @_ZNSt3__113basic_ostreamIcNS_11char_traitsIcEEElsEi(%"class.std::__1::basic_ostream"* nonnull %call1.i30, i32 %6)
          to label %invoke.cont20 unwind label %lpad4, !dbg !4599

invoke.cont20:                                    ; preds = %invoke.cont18
  call void @llvm.dbg.value(metadata %"class.std::__1::basic_ostream"* %call21, i64 0, metadata !4573, metadata !4366), !dbg !4600
  call void @llvm.dbg.value(metadata i8* getelementptr inbounds ([2 x i8], [2 x i8]* @.str.5, i64 0, i64 0), i64 0, metadata !4579, metadata !4366), !dbg !4603
  %call1.i28 = invoke dereferenceable(160) %"class.std::__1::basic_ostream"* @_ZNSt3__124__put_character_sequenceIcNS_11char_traitsIcEEEERNS_13basic_ostreamIT_T0_EES7_PKS4_m(%"class.std::__1::basic_ostream"* nonnull dereferenceable(160) %call21, i8* getelementptr inbounds ([2 x i8], [2 x i8]* @.str.5, i64 0, i64 0), i64 1)
          to label %invoke.cont22 unwind label %lpad4, !dbg !4604

invoke.cont22:                                    ; preds = %invoke.cont20
  invoke void @checker_thread_end()
          to label %invoke.cont24 unwind label %lpad4, !dbg !4605

invoke.cont24:                                    ; preds = %invoke.cont22
  invoke void @checker_solver()
          to label %invoke.cont25 unwind label %lpad4, !dbg !4606

invoke.cont25:                                    ; preds = %invoke.cont24
  call void @llvm.dbg.value(metadata %"class.std::__1::thread"* %b, i64 0, metadata !4499, metadata !4518), !dbg !4562
  call void @_ZNSt3__16threadD1Ev(%"class.std::__1::thread"* nonnull %b) #10, !dbg !4607
  call void @llvm.lifetime.end(i64 8, i8* nonnull %1) #10, !dbg !4607
  call void @llvm.dbg.value(metadata %"class.std::__1::thread"* %a, i64 0, metadata !4423, metadata !4518), !dbg !4519
  call void @_ZNSt3__16threadD1Ev(%"class.std::__1::thread"* nonnull %a) #10, !dbg !4608
  call void @llvm.lifetime.end(i64 8, i8* nonnull %0) #10, !dbg !4607
  ret i32 0, !dbg !4607

lpad:                                             ; preds = %entry
  %7 = landingpad { i8*, i32 }
          cleanup, !dbg !4610
  %8 = extractvalue { i8*, i32 } %7, 0, !dbg !4610
  %9 = extractvalue { i8*, i32 } %7, 1, !dbg !4610
  br label %ehcleanup, !dbg !4610

lpad4:                                            ; preds = %invoke.cont12, %invoke.cont16, %invoke.cont20, %invoke.cont24, %invoke.cont22, %invoke.cont18, %invoke.cont13, %invoke.cont11, %invoke.cont10, %invoke.cont5, %invoke.cont
  %10 = landingpad { i8*, i32 }
          cleanup, !dbg !4611
  %11 = extractvalue { i8*, i32 } %10, 0, !dbg !4611
  %12 = extractvalue { i8*, i32 } %10, 1, !dbg !4611
  call void @llvm.dbg.value(metadata %"class.std::__1::thread"* %b, i64 0, metadata !4499, metadata !4518), !dbg !4562
  call void @_ZNSt3__16threadD1Ev(%"class.std::__1::thread"* nonnull %b) #10, !dbg !4611
  call void @llvm.lifetime.end(i64 8, i8* nonnull %1) #10, !dbg !4607
  br label %ehcleanup, !dbg !4611

ehcleanup:                                        ; preds = %lpad4, %lpad
  %ehselector.slot.0 = phi i32 [ %12, %lpad4 ], [ %9, %lpad ]
  %exn.slot.0 = phi i8* [ %11, %lpad4 ], [ %8, %lpad ]
  call void @llvm.dbg.value(metadata %"class.std::__1::thread"* %a, i64 0, metadata !4423, metadata !4518), !dbg !4519
  call void @_ZNSt3__16threadD1Ev(%"class.std::__1::thread"* nonnull %a) #10, !dbg !4612
  call void @llvm.lifetime.end(i64 8, i8* nonnull %0) #10, !dbg !4607
  %lpad.val = insertvalue { i8*, i32 } undef, i8* %exn.slot.0, 0, !dbg !4613
  %lpad.val27 = insertvalue { i8*, i32 } %lpad.val, i32 %ehselector.slot.0, 1, !dbg !4613
  resume { i8*, i32 } %lpad.val27, !dbg !4613
}

declare void @checker_generateExecutor() local_unnamed_addr #1

; Function Attrs: argmemonly nounwind
declare void @llvm.lifetime.start(i64, i8* nocapture) #2

; Function Attrs: nounwind readnone
declare void @llvm.dbg.declare(metadata, metadata, metadata) #3

declare i32 @__gxx_personality_v0(...)

declare void @checker_thread_create(%struct._opaque_pthread_t*) local_unnamed_addr #1

declare void @_ZNSt3__16thread4joinEv(%"class.std::__1::thread"*) local_unnamed_addr #1

declare dereferenceable(160) %"class.std::__1::basic_ostream"* @_ZNSt3__113basic_ostreamIcNS_11char_traitsIcEEElsEi(%"class.std::__1::basic_ostream"*, i32) local_unnamed_addr #1

declare void @checker_solver() local_unnamed_addr #1

; Function Attrs: nounwind
declare void @_ZNSt3__16threadD1Ev(%"class.std::__1::thread"*) unnamed_addr #4

; Function Attrs: argmemonly nounwind
declare void @llvm.lifetime.end(i64, i8* nocapture) #2

; Function Attrs: norecurse ssp uwtable
define i32 @main() local_unnamed_addr #5 personality i8* bitcast (i32 (...)* @__gxx_personality_v0 to i8*) !dbg !4614 {
entry:
  %ref.tmp = alloca %"class.std::__1::vector", align 8
  %call = tail call i8* @_Znwm(i64 40) #11, !dbg !4615
  %schList.i.i = getelementptr inbounds i8, i8* %call, i64 8, !dbg !4616
  tail call void @llvm.memset.p0i8.i64(i8* %schList.i.i, i8 0, i64 24, i32 8, i1 false) #10, !dbg !4650
  %test.i.i = bitcast i8* %call to i32*, !dbg !4665
  %myCast = bitcast i32* %test.i.i to i8*
  call void @preNonAtomicStore_int(i8* %myCast, i32 3)
  store i32 3, i32* %test.i.i, align 8, !dbg !4667, !tbaa !4668
  tail call void @llvm.dbg.value(metadata %"class.std::__1::basic_ostream"* @_ZNSt3__14coutE, i64 0, metadata !4573, metadata !4366), !dbg !4671
  tail call void @llvm.dbg.value(metadata i8* getelementptr inbounds ([27 x i8], [27 x i8]* @.str.6, i64 0, i64 0), i64 0, metadata !4579, metadata !4366), !dbg !4673
  %call1.i7.i.i = invoke dereferenceable(160) %"class.std::__1::basic_ostream"* @_ZNSt3__124__put_character_sequenceIcNS_11char_traitsIcEEEERNS_13basic_ostreamIT_T0_EES7_PKS4_m(%"class.std::__1::basic_ostream"* nonnull dereferenceable(160) @_ZNSt3__14coutE, i8* getelementptr inbounds ([27 x i8], [27 x i8]* @.str.6, i64 0, i64 0), i64 26)
          to label %invoke.cont.i.i unwind label %lpad.i.i, !dbg !4674

invoke.cont.i.i:                                  ; preds = %entry
  %call3.i.i = invoke dereferenceable(160) %"class.std::__1::basic_ostream"* @_ZNSt3__113basic_ostreamIcNS_11char_traitsIcEEElsEPKv(%"class.std::__1::basic_ostream"* nonnull %call1.i7.i.i, i8* nonnull %call)
          to label %invoke.cont2.i.i unwind label %lpad.i.i, !dbg !4675

invoke.cont2.i.i:                                 ; preds = %invoke.cont.i.i
  tail call void @llvm.dbg.value(metadata %"class.std::__1::basic_ostream"* %call3.i.i, i64 0, metadata !4573, metadata !4366), !dbg !4677
  tail call void @llvm.dbg.value(metadata i8* getelementptr inbounds ([2 x i8], [2 x i8]* @.str.5, i64 0, i64 0), i64 0, metadata !4579, metadata !4366), !dbg !4680
  %call1.i9.i.i = invoke dereferenceable(160) %"class.std::__1::basic_ostream"* @_ZNSt3__124__put_character_sequenceIcNS_11char_traitsIcEEEERNS_13basic_ostreamIT_T0_EES7_PKS4_m(%"class.std::__1::basic_ostream"* nonnull dereferenceable(160) %call3.i.i, i8* getelementptr inbounds ([2 x i8], [2 x i8]* @.str.5, i64 0, i64 0), i64 1)
          to label %invoke.cont unwind label %lpad.i.i, !dbg !4681

lpad.i.i:                                         ; preds = %invoke.cont2.i.i, %invoke.cont.i.i, %entry
  %0 = landingpad { i8*, i32 }
          cleanup, !dbg !4682
  %__begin_.i.i.i.i.i = bitcast i8* %schList.i.i to %"class.checker::Schedule"***, !dbg !4683
  %1 = load %"class.checker::Schedule"**, %"class.checker::Schedule"*** %__begin_.i.i.i.i.i, align 8, !dbg !4683, !tbaa !4700
  %cmp.i.i.i.i.i = icmp eq %"class.checker::Schedule"** %1, null, !dbg !4703
  br i1 %cmp.i.i.i.i.i, label %lpad.body, label %if.then.i.i.i.i.i, !dbg !4704

if.then.i.i.i.i.i:                                ; preds = %lpad.i.i
  %2 = ptrtoint %"class.checker::Schedule"** %1 to i64, !dbg !4704
  %__end_.i.i.i.i.i.i.i = getelementptr inbounds i8, i8* %call, i64 16, !dbg !4705
  %3 = bitcast i8* %__end_.i.i.i.i.i.i.i to i64*, !dbg !4717
  store i64 %2, i64* %3, align 8, !dbg !4717, !tbaa !4718
  %.cast.i.i.i.i.i = bitcast %"class.checker::Schedule"** %1 to i8*, !dbg !4719
  tail call void @llvm.dbg.value(metadata i8* %.cast.i.i.i.i.i, i64 0, metadata !4720, metadata !4366) #10, !dbg !4724
  tail call void @_ZdlPv(i8* %.cast.i.i.i.i.i) #12, !dbg !4740
  br label %lpad.body, !dbg !4741

invoke.cont:                                      ; preds = %invoke.cont2.i.i
  store i8* %call, i8** bitcast (%"class.checker::ModelChecker"** @modelChecker to i8**), align 8, !dbg !4742, !tbaa !4559
  %call1 = tail call i32 @user_main(), !dbg !4744
  %4 = bitcast %"class.std::__1::vector"* %ref.tmp to i8*
  %__end_.i = getelementptr inbounds %"class.std::__1::vector", %"class.std::__1::vector"* %ref.tmp, i64 0, i32 0, i32 1
  %5 = bitcast %"class.checker::Schedule"*** %__end_.i to i64*
  %6 = bitcast %"class.checker::Schedule"*** %__end_.i to i8**
  %7 = bitcast %"class.std::__1::vector"* %ref.tmp to i8**
  %__value_.i.i.i.i.i.i.i = getelementptr inbounds %"class.std::__1::vector", %"class.std::__1::vector"* %ref.tmp, i64 0, i32 0, i32 2, i32 0, i32 0
  call void @llvm.lifetime.start(i64 24, i8* nonnull %4) #10, !dbg !4745
  %8 = load %"class.checker::ModelChecker"*, %"class.checker::ModelChecker"** @modelChecker, align 8, !dbg !4746, !tbaa !4559
  tail call void @llvm.dbg.value(metadata %"class.checker::ModelChecker"* %8, i64 0, metadata !4747, metadata !4366), !dbg !4750
  %schList.i17 = getelementptr inbounds %"class.checker::ModelChecker", %"class.checker::ModelChecker"* %8, i64 0, i32 1, !dbg !4752
  tail call void @llvm.dbg.value(metadata %"class.std::__1::vector"* %ref.tmp, i64 0, metadata !4753, metadata !4366), !dbg !4757
  tail call void @llvm.dbg.value(metadata %"class.std::__1::vector"* %schList.i17, i64 0, metadata !4756, metadata !4366), !dbg !4759
  tail call void @llvm.dbg.value(metadata %"class.std::__1::vector"* %ref.tmp, i64 0, metadata !4760, metadata !4366), !dbg !4766
  tail call void @llvm.dbg.value(metadata %"class.std::__1::vector"* %schList.i17, i64 0, metadata !4763, metadata !4366), !dbg !4768
  tail call void @llvm.dbg.value(metadata %"class.std::__1::allocator"* undef, i64 0, metadata !4769, metadata !4366), !dbg !4773
  call void @llvm.memset.p0i8.i64(i8* nonnull %4, i8 0, i64 24, i32 8, i1 false), !dbg !4776, !alias.scope !4777
  tail call void @llvm.dbg.value(metadata %"class.std::__1::vector"* %schList.i17, i64 0, metadata !4780, metadata !4366), !dbg !4784
  %__end_.i16.i.i.i18 = getelementptr inbounds %"class.checker::ModelChecker", %"class.checker::ModelChecker"* %8, i64 0, i32 1, i32 0, i32 1, !dbg !4786
  %9 = bitcast %"class.checker::Schedule"*** %__end_.i16.i.i.i18 to i64*, !dbg !4786
  %10 = load i64, i64* %9, align 8, !dbg !4786, !tbaa !4718, !noalias !4777
  %11 = bitcast %"class.std::__1::vector"* %schList.i17 to i64*, !dbg !4787
  %12 = load i64, i64* %11, align 8, !dbg !4787, !tbaa !4700, !noalias !4777
  %sub.ptr.sub.i.i.i.i19 = sub i64 %10, %12, !dbg !4788
  %sub.ptr.div.i.i.i.i20 = ashr exact i64 %sub.ptr.sub.i.i.i.i19, 3, !dbg !4788
  tail call void @llvm.dbg.value(metadata i64 %sub.ptr.div.i.i.i.i20, i64 0, metadata !4764, metadata !4366), !dbg !4789
  %cmp.i.i.i21 = icmp eq i64 %sub.ptr.div.i.i.i.i20, 0, !dbg !4790
  br i1 %cmp.i.i.i21, label %_ZN7checker12ModelChecker10getSchListEv.exit.thread, label %if.then.i.i.i.preheader, !dbg !4792

if.then.i.i.i.preheader:                          ; preds = %invoke.cont
  br label %if.then.i.i.i, !dbg !4793

_ZN7checker12ModelChecker10getSchListEv.exit.thread.loopexit: ; preds = %while.body
  br label %_ZN7checker12ModelChecker10getSchListEv.exit.thread, !dbg !4800

_ZN7checker12ModelChecker10getSchListEv.exit.thread: ; preds = %_ZN7checker12ModelChecker10getSchListEv.exit.thread.loopexit, %invoke.cont
  tail call void @llvm.dbg.value(metadata %"class.std::__1::vector"* %ref.tmp, i64 0, metadata !4780, metadata !4366), !dbg !4800
  tail call void @llvm.dbg.value(metadata %"class.std::__1::vector"* %ref.tmp, i64 0, metadata !4698, metadata !4366) #10, !dbg !4803
  tail call void @llvm.dbg.value(metadata %"class.std::__1::vector"* %ref.tmp, i64 0, metadata !4694, metadata !4366) #10, !dbg !4806
  call void @llvm.lifetime.end(i64 24, i8* nonnull %4) #10, !dbg !4745
  br label %while.end, !dbg !4808

if.then.i.i.i:                                    ; preds = %if.then.i.i.i.preheader, %while.body
  %sub.ptr.div.i.i.i.i23 = phi i64 [ %sub.ptr.div.i.i.i.i, %while.body ], [ %sub.ptr.div.i.i.i.i20, %if.then.i.i.i.preheader ]
  %sub.ptr.sub.i.i.i.i22 = phi i64 [ %sub.ptr.sub.i.i.i.i, %while.body ], [ %sub.ptr.sub.i.i.i.i19, %if.then.i.i.i.preheader ]
  %13 = phi i64 [ %25, %while.body ], [ %12, %if.then.i.i.i.preheader ]
  tail call void @llvm.dbg.value(metadata %"class.std::__1::vector"* %ref.tmp, i64 0, metadata !4796, metadata !4366), !dbg !4793
  tail call void @llvm.dbg.value(metadata i64 %sub.ptr.div.i.i.i.i23, i64 0, metadata !4797, metadata !4366), !dbg !4809
  %cmp.i12.i.i.i = icmp ugt i64 %sub.ptr.div.i.i.i.i23, 2305843009213693951, !dbg !4810
  br i1 %cmp.i12.i.i.i, label %if.then.i13.i.i.i, label %_ZNSt3__116allocator_traitsINS_9allocatorIPN7checker8ScheduleEEEE8allocateERS5_m.exit.i.i.i.i, !dbg !4812

if.then.i13.i.i.i:                                ; preds = %if.then.i.i.i
  %14 = bitcast %"class.std::__1::vector"* %ref.tmp to %"class.std::__1::__vector_base_common"*, !dbg !4813
  invoke void @_ZNKSt3__120__vector_base_commonILb1EE20__throw_length_errorEv(%"class.std::__1::__vector_base_common"* nonnull %14) #13
          to label %.noexc.i.i.i unwind label %lpad.i.i.i, !dbg !4813

.noexc.i.i.i:                                     ; preds = %if.then.i13.i.i.i
  unreachable, !dbg !4813

_ZNSt3__116allocator_traitsINS_9allocatorIPN7checker8ScheduleEEEE8allocateERS5_m.exit.i.i.i.i: ; preds = %if.then.i.i.i
  tail call void @llvm.dbg.value(metadata i64 %sub.ptr.div.i.i.i.i23, i64 0, metadata !4814, metadata !4366), !dbg !4818
  tail call void @llvm.dbg.value(metadata i64 %sub.ptr.div.i.i.i.i23, i64 0, metadata !4821, metadata !4366), !dbg !4826
  tail call void @llvm.dbg.value(metadata i8* null, i64 0, metadata !4825, metadata !4366), !dbg !4828
  tail call void @llvm.dbg.value(metadata i64 %sub.ptr.sub.i.i.i.i22, i64 0, metadata !4829, metadata !4366), !dbg !4832
  %call.i.i.i.i15.i.i.i = call i8* @_Znwm(i64 %sub.ptr.sub.i.i.i.i22) #11, !dbg !4834
  %15 = bitcast i8* %call.i.i.i.i15.i.i.i to %"class.checker::Schedule"**, !dbg !4835
  store i8* %call.i.i.i.i15.i.i.i, i8** %6, align 8, !dbg !4836, !tbaa !4718, !alias.scope !4777
  store i8* %call.i.i.i.i15.i.i.i, i8** %7, align 8, !dbg !4837, !tbaa !4700, !alias.scope !4777
  %add.ptr.i.i.i.i = getelementptr inbounds %"class.checker::Schedule"*, %"class.checker::Schedule"** %15, i64 %sub.ptr.div.i.i.i.i23, !dbg !4838
  store %"class.checker::Schedule"** %add.ptr.i.i.i.i, %"class.checker::Schedule"*** %__value_.i.i.i.i.i.i.i, align 8, !dbg !4839, !tbaa !4559, !alias.scope !4777
  tail call void @llvm.dbg.value(metadata %"class.std::__1::vector"* %ref.tmp, i64 0, metadata !4840, metadata !4366), !dbg !4863
  tail call void @llvm.dbg.value(metadata i64 %sub.ptr.div.i.i.i.i23, i64 0, metadata !4850, metadata !4366), !dbg !4865
  tail call void @llvm.dbg.value(metadata %"struct.std::__1::vector<checker::Schedule *, std::__1::allocator<checker::Schedule *> >::__RAII_IncreaseAnnotator"* undef, i64 0, metadata !4853, metadata !4518), !dbg !4866
  tail call void @llvm.dbg.value(metadata %"class.checker::Schedule"*** %__end_.i, i64 0, metadata !1779, metadata !4366) #10, !dbg !4867
  %cmp.i.i.i.i.i5 = icmp sgt i64 %sub.ptr.sub.i.i.i.i22, 0, !dbg !4869
  %16 = ptrtoint i8* %call.i.i.i.i15.i.i.i to i64, !dbg !4871
  br i1 %cmp.i.i.i.i.i5, label %if.then.i.i.i.i.i6, label %_ZNSt3__16vectorIPN7checker8ScheduleENS_9allocatorIS3_EEED1Ev.exit, !dbg !4871

if.then.i.i.i.i.i6:                               ; preds = %_ZNSt3__116allocator_traitsINS_9allocatorIPN7checker8ScheduleEEEE8allocateERS5_m.exit.i.i.i.i
  %sub.ptr.div6.i.i.i.i.i = lshr exact i64 %sub.ptr.sub.i.i.i.i22, 3
  %17 = inttoptr i64 %13 to i8*, !dbg !4872
  tail call void @llvm.memcpy.p0i8.p0i8.i64(i8* nonnull %call.i.i.i.i15.i.i.i, i8* %17, i64 %sub.ptr.sub.i.i.i.i22, i32 8, i1 false) #10, !dbg !4872
  %add.ptr.i.i.i.i.i = getelementptr inbounds %"class.checker::Schedule"*, %"class.checker::Schedule"** %15, i64 %sub.ptr.div6.i.i.i.i.i, !dbg !4874
  store %"class.checker::Schedule"** %add.ptr.i.i.i.i.i, %"class.checker::Schedule"*** %__end_.i, align 8, !dbg !4874, !tbaa !4559, !alias.scope !4777
  %18 = ptrtoint %"class.checker::Schedule"** %add.ptr.i.i.i.i.i to i64, !dbg !4875
  br label %_ZNSt3__16vectorIPN7checker8ScheduleENS_9allocatorIS3_EEED1Ev.exit, !dbg !4875

lpad.i.i.i:                                       ; preds = %if.then.i13.i.i.i
  %lpad.loopexit.split-lp = landingpad { i8*, i32 }
          cleanup, !dbg !4876
  %__begin_.i.i.i.i.phi.trans.insert = getelementptr inbounds %"class.std::__1::vector", %"class.std::__1::vector"* %ref.tmp, i64 0, i32 0, i32 0
  %.pre = load %"class.checker::Schedule"**, %"class.checker::Schedule"*** %__begin_.i.i.i.i.phi.trans.insert, align 8, !tbaa !4700, !alias.scope !4777
  %cmp.i.i.i.i = icmp eq %"class.checker::Schedule"** %.pre, null, !dbg !4877
  br i1 %cmp.i.i.i.i, label %_ZNSt3__113__vector_baseIPN7checker8ScheduleENS_9allocatorIS3_EEED2Ev.exit.i.i.i, label %if.then.i.i.i.i, !dbg !4879

if.then.i.i.i.i:                                  ; preds = %lpad.i.i.i
  %19 = bitcast %"class.checker::Schedule"** %.pre to i8*, !dbg !4876
  %20 = ptrtoint %"class.checker::Schedule"** %.pre to i64, !dbg !4879
  store i64 %20, i64* %5, align 8, !dbg !4880, !tbaa !4718, !alias.scope !4777
  call void @llvm.dbg.value(metadata i8* %19, i64 0, metadata !4720, metadata !4366) #10, !dbg !4883
  call void @_ZdlPv(i8* %19) #12, !dbg !4887
  br label %_ZNSt3__113__vector_baseIPN7checker8ScheduleENS_9allocatorIS3_EEED2Ev.exit.i.i.i, !dbg !4888

_ZNSt3__113__vector_baseIPN7checker8ScheduleENS_9allocatorIS3_EEED2Ev.exit.i.i.i: ; preds = %if.then.i.i.i.i, %lpad.i.i.i
  resume { i8*, i32 } %lpad.loopexit.split-lp, !dbg !4889

_ZNSt3__16vectorIPN7checker8ScheduleENS_9allocatorIS3_EEED1Ev.exit: ; preds = %if.then.i.i.i.i.i6, %_ZNSt3__116allocator_traitsINS_9allocatorIPN7checker8ScheduleEEEE8allocateERS5_m.exit.i.i.i.i
  %.ph = phi i64 [ %18, %if.then.i.i.i.i.i6 ], [ %16, %_ZNSt3__116allocator_traitsINS_9allocatorIPN7checker8ScheduleEEEE8allocateERS5_m.exit.i.i.i.i ]
  tail call void @llvm.dbg.value(metadata %"class.std::__1::vector"* %ref.tmp, i64 0, metadata !4780, metadata !4366), !dbg !4800
  %tobool12 = icmp eq i64 %.ph, %16, !dbg !4746
  tail call void @llvm.dbg.value(metadata %"class.std::__1::vector"* %ref.tmp, i64 0, metadata !4698, metadata !4366) #10, !dbg !4803
  tail call void @llvm.dbg.value(metadata %"class.std::__1::vector"* %ref.tmp, i64 0, metadata !4694, metadata !4366) #10, !dbg !4806
  tail call void @llvm.dbg.value(metadata i8* %call.i.i.i.i15.i.i.i, i64 0, metadata !4720, metadata !4366) #10, !dbg !4891
  tail call void @_ZdlPv(i8* %call.i.i.i.i15.i.i.i) #12, !dbg !4896
  call void @llvm.lifetime.end(i64 24, i8* nonnull %4) #10, !dbg !4745
  br i1 %tobool12, label %while.end.loopexit, label %while.body, !dbg !4808

while.body:                                       ; preds = %_ZNSt3__16vectorIPN7checker8ScheduleENS_9allocatorIS3_EEED1Ev.exit
  %call3 = tail call i32 @user_main(), !dbg !4897
  call void @llvm.lifetime.start(i64 24, i8* nonnull %4) #10, !dbg !4745
  %21 = load %"class.checker::ModelChecker"*, %"class.checker::ModelChecker"** @modelChecker, align 8, !dbg !4746, !tbaa !4559
  tail call void @llvm.dbg.value(metadata %"class.checker::ModelChecker"* %21, i64 0, metadata !4747, metadata !4366), !dbg !4750
  %schList.i = getelementptr inbounds %"class.checker::ModelChecker", %"class.checker::ModelChecker"* %21, i64 0, i32 1, !dbg !4752
  tail call void @llvm.dbg.value(metadata %"class.std::__1::vector"* %ref.tmp, i64 0, metadata !4753, metadata !4366), !dbg !4757
  tail call void @llvm.dbg.value(metadata %"class.std::__1::vector"* %schList.i, i64 0, metadata !4756, metadata !4366), !dbg !4759
  tail call void @llvm.dbg.value(metadata %"class.std::__1::vector"* %ref.tmp, i64 0, metadata !4760, metadata !4366), !dbg !4766
  tail call void @llvm.dbg.value(metadata %"class.std::__1::vector"* %schList.i, i64 0, metadata !4763, metadata !4366), !dbg !4768
  tail call void @llvm.dbg.value(metadata %"class.std::__1::allocator"* undef, i64 0, metadata !4769, metadata !4366), !dbg !4773
  call void @llvm.memset.p0i8.i64(i8* nonnull %4, i8 0, i64 24, i32 8, i1 false), !dbg !4776, !alias.scope !4777
  tail call void @llvm.dbg.value(metadata %"class.std::__1::vector"* %schList.i, i64 0, metadata !4780, metadata !4366), !dbg !4784
  %__end_.i16.i.i.i = getelementptr inbounds %"class.checker::ModelChecker", %"class.checker::ModelChecker"* %21, i64 0, i32 1, i32 0, i32 1, !dbg !4786
  %22 = bitcast %"class.checker::Schedule"*** %__end_.i16.i.i.i to i64*, !dbg !4786
  %23 = load i64, i64* %22, align 8, !dbg !4786, !tbaa !4718, !noalias !4777
  %24 = bitcast %"class.std::__1::vector"* %schList.i to i64*, !dbg !4787
  %25 = load i64, i64* %24, align 8, !dbg !4787, !tbaa !4700, !noalias !4777
  %sub.ptr.sub.i.i.i.i = sub i64 %23, %25, !dbg !4788
  %sub.ptr.div.i.i.i.i = ashr exact i64 %sub.ptr.sub.i.i.i.i, 3, !dbg !4788
  tail call void @llvm.dbg.value(metadata i64 %sub.ptr.div.i.i.i.i, i64 0, metadata !4764, metadata !4366), !dbg !4789
  %cmp.i.i.i = icmp eq i64 %sub.ptr.div.i.i.i.i, 0, !dbg !4790
  br i1 %cmp.i.i.i, label %_ZN7checker12ModelChecker10getSchListEv.exit.thread.loopexit, label %if.then.i.i.i, !dbg !4792, !llvm.loop !4898

lpad.body:                                        ; preds = %lpad.i.i, %if.then.i.i.i.i.i
  tail call void @_ZdlPv(i8* nonnull %call) #12, !dbg !4901
  resume { i8*, i32 } %0, !dbg !4903

while.end.loopexit:                               ; preds = %_ZNSt3__16vectorIPN7checker8ScheduleENS_9allocatorIS3_EEED1Ev.exit
  br label %while.end, !dbg !4904

while.end:                                        ; preds = %while.end.loopexit, %_ZN7checker12ModelChecker10getSchListEv.exit.thread
  ret i32 0, !dbg !4904
}

; Function Attrs: nobuiltin
declare noalias nonnull i8* @_Znwm(i64) local_unnamed_addr #6

; Function Attrs: nobuiltin nounwind
declare void @_ZdlPv(i8*) local_unnamed_addr #7

; Function Attrs: noinline noreturn nounwind
define linkonce_odr hidden void @__clang_call_terminate(i8*) local_unnamed_addr #8 {
  %2 = tail call i8* @__cxa_begin_catch(i8* %0) #10
  tail call void @_ZSt9terminatev() #14
  unreachable
}

declare i8* @__cxa_begin_catch(i8*) local_unnamed_addr

declare void @_ZSt9terminatev() local_unnamed_addr

declare dereferenceable(160) %"class.std::__1::basic_ostream"* @_ZNSt3__113basic_ostreamIcNS_11char_traitsIcEEElsEPKv(%"class.std::__1::basic_ostream"*, i8*) local_unnamed_addr #1

; Function Attrs: noreturn
declare void @_ZNKSt3__120__vector_base_commonILb1EE20__throw_length_errorEv(%"class.std::__1::__vector_base_common"*) local_unnamed_addr #9

; Function Attrs: argmemonly nounwind
declare void @llvm.memcpy.p0i8.p0i8.i64(i8* nocapture writeonly, i8* nocapture readonly, i64, i32, i1) #2

; Function Attrs: ssp uwtable
define linkonce_odr dereferenceable(160) %"class.std::__1::basic_ostream"* @_ZNSt3__124__put_character_sequenceIcNS_11char_traitsIcEEEERNS_13basic_ostreamIT_T0_EES7_PKS4_m(%"class.std::__1::basic_ostream"* dereferenceable(160) %__os, i8* %__str, i64 %__len) local_unnamed_addr #0 personality i8* bitcast (i32 (...)* @__gxx_personality_v0 to i8*) !dbg !1785 {
entry:
  %ref.tmp.i.i = alloca %"class.std::__1::locale", align 8
  %__s = alloca %"class.std::__1::basic_ostream<char, std::__1::char_traits<char> >::sentry", align 8
  tail call void @llvm.dbg.value(metadata %"class.std::__1::basic_ostream"* %__os, i64 0, metadata !2100, metadata !4366), !dbg !4905
  tail call void @llvm.dbg.value(metadata i8* %__str, i64 0, metadata !2101, metadata !4366), !dbg !4906
  tail call void @llvm.dbg.value(metadata i64 %__len, i64 0, metadata !2102, metadata !4366), !dbg !4907
  %0 = getelementptr inbounds %"class.std::__1::basic_ostream<char, std::__1::char_traits<char> >::sentry", %"class.std::__1::basic_ostream<char, std::__1::char_traits<char> >::sentry"* %__s, i64 0, i32 0, !dbg !4908
  call void @llvm.lifetime.start(i64 16, i8* nonnull %0) #10, !dbg !4908
  invoke void @_ZNSt3__113basic_ostreamIcNS_11char_traitsIcEEE6sentryC1ERS3_(%"class.std::__1::basic_ostream<char, std::__1::char_traits<char> >::sentry"* nonnull %__s, %"class.std::__1::basic_ostream"* nonnull dereferenceable(160) %__os)
          to label %invoke.cont unwind label %lpad, !dbg !4909

invoke.cont:                                      ; preds = %entry
  call void @llvm.dbg.value(metadata %"class.std::__1::basic_ostream<char, std::__1::char_traits<char> >::sentry"* %__s, i64 0, metadata !2103, metadata !4518), !dbg !4909
  tail call void @llvm.dbg.value(metadata %"class.std::__1::basic_ostream<char, std::__1::char_traits<char> >::sentry"* %__s, i64 0, metadata !4910, metadata !4366), !dbg !4914
  %1 = load i8, i8* %0, align 8, !dbg !4917, !tbaa !4918, !range !4921
  %tobool.i = icmp eq i8 %1, 0, !dbg !4917
  br i1 %tobool.i, label %if.end28, label %if.then, !dbg !4922

if.then:                                          ; preds = %invoke.cont
  tail call void @llvm.dbg.value(metadata %"class.std::__1::ostreambuf_iterator"* undef, i64 0, metadata !4924, metadata !4366), !dbg !4929
  tail call void @llvm.dbg.value(metadata %"class.std::__1::basic_ostream"* %__os, i64 0, metadata !4927, metadata !4366), !dbg !4933
  tail call void @llvm.dbg.value(metadata %"class.std::__1::ostreambuf_iterator"* undef, i64 0, metadata !4934, metadata !4366), !dbg !4938
  tail call void @llvm.dbg.value(metadata %"class.std::__1::basic_ostream"* %__os, i64 0, metadata !4937, metadata !4366), !dbg !4940
  %2 = bitcast %"class.std::__1::basic_ostream"* %__os to i8**, !dbg !4941
  %vtable.i.i = load i8*, i8** %2, align 8, !dbg !4941, !tbaa !4942
  %vbase.offset.ptr.i.i = getelementptr i8, i8* %vtable.i.i, i64 -24, !dbg !4941
  %3 = bitcast i8* %vbase.offset.ptr.i.i to i64*, !dbg !4941
  %vbase.offset.i.i = load i64, i64* %3, align 8, !dbg !4941
  %4 = bitcast %"class.std::__1::basic_ostream"* %__os to i8*, !dbg !4941
  %add.ptr.i.i = getelementptr inbounds i8, i8* %4, i64 %vbase.offset.i.i, !dbg !4941
  %__rdbuf_.i.i.i.i = getelementptr inbounds i8, i8* %add.ptr.i.i, i64 40, !dbg !4944
  %5 = bitcast i8* %__rdbuf_.i.i.i.i to %"class.std::__1::basic_streambuf"**, !dbg !4944
  %6 = load %"class.std::__1::basic_streambuf"*, %"class.std::__1::basic_streambuf"** %5, align 8, !dbg !4944, !tbaa !4955
  %7 = bitcast i8* %add.ptr.i.i to %"class.std::__1::ios_base"*, !dbg !4958
  tail call void @llvm.dbg.value(metadata %"class.std::__1::ios_base"* %7, i64 0, metadata !4959, metadata !4366), !dbg !4962
  %__fmtflags_.i = getelementptr inbounds i8, i8* %add.ptr.i.i, i64 8, !dbg !4964
  %8 = bitcast i8* %__fmtflags_.i to i32*, !dbg !4964
  %9 = load i32, i32* %8, align 8, !dbg !4964, !tbaa !4965
  %add.ptr6 = getelementptr inbounds i8, i8* %__str, i64 %__len, !dbg !4966
  %__fill_.i = getelementptr inbounds i8, i8* %add.ptr.i.i, i64 144, !dbg !4967
  %10 = bitcast i8* %__fill_.i to i32*, !dbg !4967
  %11 = load i32, i32* %10, align 8, !dbg !4967, !tbaa !4973
  call void @llvm.dbg.value(metadata i32 -1, i64 0, metadata !4975, metadata !4366), !dbg !4979
  call void @llvm.dbg.value(metadata i32 %11, i64 0, metadata !4978, metadata !4366), !dbg !4982
  %cmp.i.i = icmp eq i32 %11, -1, !dbg !4983
  br i1 %cmp.i.i, label %if.then.i, label %invoke.cont16, !dbg !4984

if.then.i:                                        ; preds = %if.then
  call void @llvm.dbg.value(metadata i8 32, i64 0, metadata !4985, metadata !4366), !dbg !4989
  %12 = bitcast %"class.std::__1::locale"* %ref.tmp.i.i to i8*, !dbg !4991
  call void @llvm.lifetime.start(i64 8, i8* nonnull %12) #10, !dbg !4991
  invoke void @_ZNKSt3__18ios_base6getlocEv(%"class.std::__1::locale"* nonnull sret %ref.tmp.i.i, %"class.std::__1::ios_base"* %7)
          to label %.noexc unwind label %lpad3, !dbg !4991

.noexc:                                           ; preds = %if.then.i
  call void @llvm.dbg.value(metadata %"class.std::__1::locale"* %ref.tmp.i.i, i64 0, metadata !4992, metadata !4366), !dbg !5088
  %call.i5.i.i = invoke %"class.std::__1::locale::facet"* @_ZNKSt3__16locale9use_facetERNS0_2idE(%"class.std::__1::locale"* nonnull %ref.tmp.i.i, %"class.std::__1::locale::id"* nonnull dereferenceable(16) @_ZNSt3__15ctypeIcE2idE)
          to label %invoke.cont.i.i unwind label %lpad.i.i, !dbg !5090

invoke.cont.i.i:                                  ; preds = %.noexc
  %13 = bitcast %"class.std::__1::locale::facet"* %call.i5.i.i to %"class.std::__1::ctype"*, !dbg !5091
  call void @llvm.dbg.value(metadata %"class.std::__1::ctype"* %13, i64 0, metadata !5092, metadata !4366), !dbg !5097
  call void @llvm.dbg.value(metadata i8 32, i64 0, metadata !5095, metadata !4366), !dbg !5100
  %14 = bitcast %"class.std::__1::locale::facet"* %call.i5.i.i to i8 (%"class.std::__1::ctype"*, i8)***, !dbg !5101
  %vtable.i.i.i = load i8 (%"class.std::__1::ctype"*, i8)**, i8 (%"class.std::__1::ctype"*, i8)*** %14, align 8, !dbg !5101, !tbaa !4942
  %vfn.i.i.i = getelementptr inbounds i8 (%"class.std::__1::ctype"*, i8)*, i8 (%"class.std::__1::ctype"*, i8)** %vtable.i.i.i, i64 7, !dbg !5101
  %15 = load i8 (%"class.std::__1::ctype"*, i8)*, i8 (%"class.std::__1::ctype"*, i8)** %vfn.i.i.i, align 8, !dbg !5101
  %call.i6.i.i = invoke signext i8 %15(%"class.std::__1::ctype"* %13, i8 signext 32)
          to label %_ZNKSt3__19basic_iosIcNS_11char_traitsIcEEE5widenEc.exit.i unwind label %lpad.i.i, !dbg !5101

lpad.i.i:                                         ; preds = %invoke.cont.i.i, %.noexc
  %16 = landingpad { i8*, i32 }
          catch i8* null, !dbg !5102
  call void @_ZNSt3__16localeD1Ev(%"class.std::__1::locale"* nonnull %ref.tmp.i.i) #10, !dbg !5103
  call void @llvm.lifetime.end(i64 8, i8* nonnull %12) #10, !dbg !5105
  br label %ehcleanup

_ZNKSt3__19basic_iosIcNS_11char_traitsIcEEE5widenEc.exit.i: ; preds = %invoke.cont.i.i
  call void @_ZNSt3__16localeD1Ev(%"class.std::__1::locale"* nonnull %ref.tmp.i.i) #10, !dbg !5106
  call void @llvm.lifetime.end(i64 8, i8* nonnull %12) #10, !dbg !5105
  %conv.i = sext i8 %call.i6.i.i to i32, !dbg !5108
  %myCast = bitcast i32* %10 to i8*
  call void @preNonAtomicStore_int(i8* %myCast, i32 %conv.i)
  store i32 %conv.i, i32* %10, align 8, !dbg !5109, !tbaa !4973
  br label %invoke.cont16, !dbg !5110

invoke.cont16:                                    ; preds = %_ZNKSt3__19basic_iosIcNS_11char_traitsIcEEE5widenEc.exit.i, %if.then
  %17 = phi i32 [ %conv.i, %_ZNKSt3__19basic_iosIcNS_11char_traitsIcEEE5widenEc.exit.i ], [ %11, %if.then ], !dbg !5111
  %conv6.i = trunc i32 %17 to i8, !dbg !5111
  %and = and i32 %9, 176, !dbg !5112
  %cmp = icmp eq i32 %and, 32, !dbg !5114
  %cond = select i1 %cmp, i8* %add.ptr6, i8* %__str, !dbg !5115
  %call19 = invoke %"class.std::__1::basic_streambuf"* @_ZNSt3__116__pad_and_outputIcNS_11char_traitsIcEEEENS_19ostreambuf_iteratorIT_T0_EES6_PKS4_S8_S8_RNS_8ios_baseES4_(%"class.std::__1::basic_streambuf"* %6, i8* %__str, i8* %cond, i8* %add.ptr6, %"class.std::__1::ios_base"* dereferenceable(136) %7, i8 signext %conv6.i)
          to label %invoke.cont18 unwind label %lpad3, !dbg !5116

invoke.cont18:                                    ; preds = %invoke.cont16
  tail call void @llvm.dbg.value(metadata %"class.std::__1::ostreambuf_iterator"* undef, i64 0, metadata !5117, metadata !4366), !dbg !5121
  %cmp.i = icmp eq %"class.std::__1::basic_streambuf"* %call19, null, !dbg !5123
  br i1 %cmp.i, label %if.then22, label %if.end28, !dbg !5124

if.then22:                                        ; preds = %invoke.cont18
  %vtable23 = load i8*, i8** %2, align 8, !dbg !5126, !tbaa !4942
  %vbase.offset.ptr24 = getelementptr i8, i8* %vtable23, i64 -24, !dbg !5126
  %18 = bitcast i8* %vbase.offset.ptr24 to i64*, !dbg !5126
  %vbase.offset25 = load i64, i64* %18, align 8, !dbg !5126
  %add.ptr26 = getelementptr inbounds i8, i8* %4, i64 %vbase.offset25, !dbg !5126
  call void @llvm.dbg.value(metadata i32 5, i64 0, metadata !5127, metadata !4366), !dbg !5132
  %19 = bitcast i8* %add.ptr26 to %"class.std::__1::ios_base"*, !dbg !5134
  call void @llvm.dbg.value(metadata %"class.std::__1::ios_base"* %19, i64 0, metadata !5135, metadata !4366), !dbg !5140
  call void @llvm.dbg.value(metadata i32 5, i64 0, metadata !5138, metadata !4366), !dbg !5142
  %__rdstate_.i.i = getelementptr inbounds i8, i8* %add.ptr26, i64 32, !dbg !5143
  %20 = bitcast i8* %__rdstate_.i.i to i32*, !dbg !5143
  %21 = load i32, i32* %20, align 8, !dbg !5143, !tbaa !5144
  %or.i.i = or i32 %21, 5, !dbg !5145
  invoke void @_ZNSt3__18ios_base5clearEj(%"class.std::__1::ios_base"* %19, i32 %or.i.i)
          to label %if.end28 unwind label %lpad1, !dbg !5146

lpad:                                             ; preds = %entry
  %22 = landingpad { i8*, i32 }
          catch i8* null, !dbg !5147
  %23 = extractvalue { i8*, i32 } %22, 0, !dbg !5147
  %.pre = bitcast %"class.std::__1::basic_ostream"* %__os to i8**, !dbg !5148
  %.pre53 = bitcast %"class.std::__1::basic_ostream"* %__os to i8*, !dbg !5148
  br label %catch, !dbg !5147

lpad1:                                            ; preds = %if.then22
  %24 = landingpad { i8*, i32 }
          catch i8* null, !dbg !5150
  br label %ehcleanup, !dbg !5150

lpad3:                                            ; preds = %if.then.i, %invoke.cont16
  %25 = landingpad { i8*, i32 }
          catch i8* null, !dbg !5152
  br label %ehcleanup, !dbg !5152

if.end28:                                         ; preds = %invoke.cont, %if.then22, %invoke.cont18
  call void @llvm.dbg.value(metadata %"class.std::__1::basic_ostream<char, std::__1::char_traits<char> >::sentry"* %__s, i64 0, metadata !2103, metadata !4518), !dbg !4909
  call void @_ZNSt3__113basic_ostreamIcNS_11char_traitsIcEEE6sentryD1Ev(%"class.std::__1::basic_ostream<char, std::__1::char_traits<char> >::sentry"* nonnull %__s) #10, !dbg !5154
  call void @llvm.lifetime.end(i64 16, i8* nonnull %0) #10, !dbg !5154
  br label %try.cont, !dbg !5155

ehcleanup:                                        ; preds = %lpad3, %lpad.i.i, %lpad1
  %eh.lpad-body.sink = phi { i8*, i32 } [ %24, %lpad1 ], [ %25, %lpad3 ], [ %16, %lpad.i.i ]
  %26 = extractvalue { i8*, i32 } %eh.lpad-body.sink, 0
  call void @llvm.dbg.value(metadata %"class.std::__1::basic_ostream<char, std::__1::char_traits<char> >::sentry"* %__s, i64 0, metadata !2103, metadata !4518), !dbg !4909
  call void @_ZNSt3__113basic_ostreamIcNS_11char_traitsIcEEE6sentryD1Ev(%"class.std::__1::basic_ostream<char, std::__1::char_traits<char> >::sentry"* nonnull %__s) #10, !dbg !5156
  call void @llvm.lifetime.end(i64 16, i8* nonnull %0) #10, !dbg !5154
  br label %catch, !dbg !5156

catch:                                            ; preds = %ehcleanup, %lpad
  %.pre-phi54 = phi i8* [ %4, %ehcleanup ], [ %.pre53, %lpad ], !dbg !5148
  %.pre-phi = phi i8** [ %2, %ehcleanup ], [ %.pre, %lpad ], !dbg !5148
  %exn.slot.1 = phi i8* [ %26, %ehcleanup ], [ %23, %lpad ]
  %27 = call i8* @__cxa_begin_catch(i8* %exn.slot.1) #10, !dbg !5158
  %vtable30 = load i8*, i8** %.pre-phi, align 8, !dbg !5148, !tbaa !4942
  %vbase.offset.ptr31 = getelementptr i8, i8* %vtable30, i64 -24, !dbg !5148
  %28 = bitcast i8* %vbase.offset.ptr31 to i64*, !dbg !5148
  %vbase.offset32 = load i64, i64* %28, align 8, !dbg !5148
  %add.ptr33 = getelementptr inbounds i8, i8* %.pre-phi54, i64 %vbase.offset32, !dbg !5148
  %29 = bitcast i8* %add.ptr33 to %"class.std::__1::ios_base"*, !dbg !5148
  invoke void @_ZNSt3__18ios_base33__set_badbit_and_consider_rethrowEv(%"class.std::__1::ios_base"* %29)
          to label %invoke.cont35 unwind label %lpad34, !dbg !5160

invoke.cont35:                                    ; preds = %catch
  call void @__cxa_end_catch(), !dbg !5161
  br label %try.cont, !dbg !5161

try.cont:                                         ; preds = %invoke.cont35, %if.end28
  ret %"class.std::__1::basic_ostream"* %__os, !dbg !5162

lpad34:                                           ; preds = %catch
  %30 = landingpad { i8*, i32 }
          cleanup, !dbg !5163
  invoke void @__cxa_end_catch()
          to label %eh.resume unwind label %terminate.lpad, !dbg !5165

eh.resume:                                        ; preds = %lpad34
  resume { i8*, i32 } %30, !dbg !5167

terminate.lpad:                                   ; preds = %lpad34
  %31 = landingpad { i8*, i32 }
          catch i8* null, !dbg !5168
  %32 = extractvalue { i8*, i32 } %31, 0, !dbg !5168
  call void @__clang_call_terminate(i8* %32) #14, !dbg !5168
  unreachable, !dbg !5168
}

declare void @_ZNSt3__113basic_ostreamIcNS_11char_traitsIcEEE6sentryC1ERS3_(%"class.std::__1::basic_ostream<char, std::__1::char_traits<char> >::sentry"*, %"class.std::__1::basic_ostream"* dereferenceable(160)) unnamed_addr #1

; Function Attrs: ssp uwtable
define linkonce_odr hidden %"class.std::__1::basic_streambuf"* @_ZNSt3__116__pad_and_outputIcNS_11char_traitsIcEEEENS_19ostreambuf_iteratorIT_T0_EES6_PKS4_S8_S8_RNS_8ios_baseES4_(%"class.std::__1::basic_streambuf"* %__s.coerce, i8* %__ob, i8* %__op, i8* %__oe, %"class.std::__1::ios_base"* dereferenceable(136) %__iob, i8 signext %__fl) local_unnamed_addr #0 personality i8* bitcast (i32 (...)* @__gxx_personality_v0 to i8*) !dbg !5170 {
entry:
  %__sp = alloca %"class.std::__1::basic_string", align 8
  tail call void @llvm.dbg.value(metadata %"class.std::__1::basic_streambuf"* %__s.coerce, i64 0, metadata !5175, metadata !4366), !dbg !5187
  tail call void @llvm.dbg.declare(metadata %"class.std::__1::ostreambuf_iterator"* undef, metadata !5175, metadata !4366), !dbg !5187
  tail call void @llvm.dbg.value(metadata i8* %__ob, i64 0, metadata !5176, metadata !4366), !dbg !5188
  tail call void @llvm.dbg.value(metadata i8* %__op, i64 0, metadata !5177, metadata !4366), !dbg !5189
  tail call void @llvm.dbg.value(metadata i8* %__oe, i64 0, metadata !5178, metadata !4366), !dbg !5190
  tail call void @llvm.dbg.value(metadata %"class.std::__1::ios_base"* %__iob, i64 0, metadata !5179, metadata !4366), !dbg !5191
  tail call void @llvm.dbg.value(metadata i8 %__fl, i64 0, metadata !5180, metadata !4366), !dbg !5192
  %cmp = icmp eq %"class.std::__1::basic_streambuf"* %__s.coerce, null, !dbg !5193
  br i1 %cmp, label %return, label %if.end, !dbg !5195

if.end:                                           ; preds = %entry
  %sub.ptr.lhs.cast = ptrtoint i8* %__oe to i64, !dbg !5196
  %sub.ptr.rhs.cast = ptrtoint i8* %__ob to i64, !dbg !5196
  %sub.ptr.sub = sub i64 %sub.ptr.lhs.cast, %sub.ptr.rhs.cast, !dbg !5196
  tail call void @llvm.dbg.value(metadata i64 %sub.ptr.sub, i64 0, metadata !5181, metadata !4366), !dbg !5197
  tail call void @llvm.dbg.value(metadata %"class.std::__1::ios_base"* %__iob, i64 0, metadata !5198, metadata !4366), !dbg !5201
  %__width_.i = getelementptr inbounds %"class.std::__1::ios_base", %"class.std::__1::ios_base"* %__iob, i64 0, i32 3, !dbg !5203
  %0 = load i64, i64* %__width_.i, align 8, !dbg !5203, !tbaa !5204
  tail call void @llvm.dbg.value(metadata i64 %0, i64 0, metadata !5182, metadata !4366), !dbg !5205
  %cmp1 = icmp sgt i64 %0, %sub.ptr.sub, !dbg !5206
  %sub = sub nsw i64 %0, %sub.ptr.sub, !dbg !5208
  tail call void @llvm.dbg.value(metadata i64 %sub, i64 0, metadata !5182, metadata !4366), !dbg !5205
  %__ns.0 = select i1 %cmp1, i64 %sub, i64 0, !dbg !5209
  tail call void @llvm.dbg.value(metadata i64 %__ns.0, i64 0, metadata !5182, metadata !4366), !dbg !5205
  %sub.ptr.lhs.cast4 = ptrtoint i8* %__op to i64, !dbg !5210
  %sub.ptr.sub6 = sub i64 %sub.ptr.lhs.cast4, %sub.ptr.rhs.cast, !dbg !5210
  tail call void @llvm.dbg.value(metadata i64 %sub.ptr.sub6, i64 0, metadata !5183, metadata !4366), !dbg !5211
  %cmp7 = icmp sgt i64 %sub.ptr.sub6, 0, !dbg !5212
  br i1 %cmp7, label %if.then8, label %if.end15, !dbg !5214

if.then8:                                         ; preds = %if.end
  tail call void @llvm.dbg.value(metadata %"class.std::__1::basic_streambuf"* %__s.coerce, i64 0, metadata !5215, metadata !4366), !dbg !5220
  tail call void @llvm.dbg.value(metadata i8* %__ob, i64 0, metadata !5218, metadata !4366), !dbg !5224
  tail call void @llvm.dbg.value(metadata i64 %sub.ptr.sub6, i64 0, metadata !5219, metadata !4366), !dbg !5225
  %1 = bitcast %"class.std::__1::basic_streambuf"* %__s.coerce to i64 (%"class.std::__1::basic_streambuf"*, i8*, i64)***, !dbg !5226
  %vtable.i80 = load i64 (%"class.std::__1::basic_streambuf"*, i8*, i64)**, i64 (%"class.std::__1::basic_streambuf"*, i8*, i64)*** %1, align 8, !dbg !5226, !tbaa !4942
  %vfn.i81 = getelementptr inbounds i64 (%"class.std::__1::basic_streambuf"*, i8*, i64)*, i64 (%"class.std::__1::basic_streambuf"*, i8*, i64)** %vtable.i80, i64 12, !dbg !5226
  %2 = load i64 (%"class.std::__1::basic_streambuf"*, i8*, i64)*, i64 (%"class.std::__1::basic_streambuf"*, i8*, i64)** %vfn.i81, align 8, !dbg !5226
  %call.i82 = tail call i64 %2(%"class.std::__1::basic_streambuf"* nonnull %__s.coerce, i8* %__ob, i64 %sub.ptr.sub6), !dbg !5226
  %cmp11 = icmp eq i64 %call.i82, %sub.ptr.sub6, !dbg !5227
  br i1 %cmp11, label %if.end15, label %return, !dbg !5228

if.end15:                                         ; preds = %if.then8, %if.end
  %cmp16 = icmp sgt i64 %__ns.0, 0, !dbg !5229
  br i1 %cmp16, label %if.end.i.i.i, label %if.end26, !dbg !5230

if.end.i.i.i:                                     ; preds = %if.end15
  %3 = bitcast %"class.std::__1::basic_string"* %__sp to i8*, !dbg !5231
  call void @llvm.lifetime.start(i64 24, i8* nonnull %3) #10, !dbg !5231
  tail call void @llvm.dbg.value(metadata %"class.std::__1::basic_string"* %__sp, i64 0, metadata !5184, metadata !4518), !dbg !5232
  tail call void @llvm.dbg.value(metadata %"class.std::__1::basic_string"* %__sp, i64 0, metadata !5233, metadata !4366), !dbg !5239
  tail call void @llvm.dbg.value(metadata i64 %__ns.0, i64 0, metadata !5236, metadata !4366), !dbg !5241
  tail call void @llvm.dbg.value(metadata i8 %__fl, i64 0, metadata !5237, metadata !4366), !dbg !5242
  tail call void @llvm.dbg.value(metadata %"class.std::__1::basic_string"* %__sp, i64 0, metadata !5243, metadata !4366), !dbg !5248
  tail call void @llvm.dbg.value(metadata i64 %__ns.0, i64 0, metadata !5246, metadata !4366), !dbg !5250
  tail call void @llvm.dbg.value(metadata i8 %__fl, i64 0, metadata !5247, metadata !4366), !dbg !5251
  call void @llvm.memset.p0i8.i64(i8* nonnull %3, i8 0, i64 24, i32 8, i1 false) #10, !dbg !5252
  tail call void @llvm.dbg.value(metadata %"class.std::__1::basic_string"* %__sp, i64 0, metadata !5272, metadata !4366), !dbg !5281
  tail call void @llvm.dbg.value(metadata i64 %__ns.0, i64 0, metadata !5275, metadata !4366), !dbg !5284
  tail call void @llvm.dbg.value(metadata i8 %__fl, i64 0, metadata !5276, metadata !4366), !dbg !5285
  %cmp2.i.i.i = icmp ult i64 %__ns.0, 23, !dbg !5286
  br i1 %cmp2.i.i.i, label %if.end9.i.i.i, label %if.end9.thread.i.i.i, !dbg !5287

if.end9.thread.i.i.i:                             ; preds = %if.end.i.i.i
  tail call void @llvm.dbg.value(metadata i64 %__ns.0, i64 0, metadata !5288, metadata !4366), !dbg !5291
  %add.i.i.i.i.i = add nuw i64 %__ns.0, 16, !dbg !5293
  %and.i.i.i.i.i = and i64 %add.i.i.i.i.i, -16, !dbg !5301
  tail call void @llvm.dbg.value(metadata i64 %and.i.i.i.i.i, i64 0, metadata !5302, metadata !4366), !dbg !5306
  tail call void @llvm.dbg.value(metadata i64 %and.i.i.i.i.i, i64 0, metadata !5309, metadata !4366), !dbg !5315
  tail call void @llvm.dbg.value(metadata i8* null, i64 0, metadata !5314, metadata !4366), !dbg !5317
  tail call void @llvm.dbg.value(metadata i64 %and.i.i.i.i.i, i64 0, metadata !4829, metadata !4366), !dbg !5318
  %call.i.i.i.i.i.i = tail call i8* @_Znwm(i64 %and.i.i.i.i.i) #11, !dbg !5320
  tail call void @llvm.dbg.value(metadata i8* %call.i.i.i.i.i.i, i64 0, metadata !5277, metadata !4366), !dbg !5321
  tail call void @llvm.dbg.value(metadata %"class.std::__1::basic_string"* %__sp, i64 0, metadata !5322, metadata !4366), !dbg !5326
  tail call void @llvm.dbg.value(metadata i8* %call.i.i.i.i.i.i, i64 0, metadata !5325, metadata !4366), !dbg !5328
  %__data_.i.i.i.i = getelementptr inbounds %"class.std::__1::basic_string", %"class.std::__1::basic_string"* %__sp, i64 0, i32 0, i32 0, i32 0, i32 0, i32 0, i32 2, !dbg !5329
  store i8* %call.i.i.i.i.i.i, i8** %__data_.i.i.i.i, align 8, !dbg !5330, !tbaa !5331
  tail call void @llvm.dbg.value(metadata %"class.std::__1::basic_string"* %__sp, i64 0, metadata !5333, metadata !4366), !dbg !5337
  tail call void @llvm.dbg.value(metadata i64 %and.i.i.i.i.i, i64 0, metadata !5336, metadata !4366), !dbg !5339
  %or.i.i.i.i = or i64 %and.i.i.i.i.i, 1, !dbg !5340
  %__cap_.i.i.i.i = getelementptr inbounds %"class.std::__1::basic_string", %"class.std::__1::basic_string"* %__sp, i64 0, i32 0, i32 0, i32 0, i32 0, i32 0, i32 0, !dbg !5341
  store i64 %or.i.i.i.i, i64* %__cap_.i.i.i.i, align 8, !dbg !5342, !tbaa !5343
  tail call void @llvm.dbg.value(metadata %"class.std::__1::basic_string"* %__sp, i64 0, metadata !5344, metadata !4366), !dbg !5348
  tail call void @llvm.dbg.value(metadata i64 %__ns.0, i64 0, metadata !5347, metadata !4366), !dbg !5350
  %__size_.i.i.i.i = getelementptr inbounds %"class.std::__1::basic_string", %"class.std::__1::basic_string"* %__sp, i64 0, i32 0, i32 0, i32 0, i32 0, i32 0, i32 1, !dbg !5351
  store i64 %__ns.0, i64* %__size_.i.i.i.i, align 8, !dbg !5352, !tbaa !5353
  tail call void @llvm.dbg.value(metadata i64 %__ns.0, i64 0, metadata !5354, metadata !4366) #10, !dbg !5359
  tail call void @llvm.dbg.value(metadata i8 %__fl, i64 0, metadata !5358, metadata !4366) #10, !dbg !5362
  %.pre96 = bitcast %"class.std::__1::basic_string"* %__sp to %"struct.std::__1::basic_string<char, std::__1::char_traits<char>, std::__1::allocator<char> >::__short"*, !dbg !5363
  %.pre97 = getelementptr inbounds %"struct.std::__1::basic_string<char, std::__1::char_traits<char>, std::__1::allocator<char> >::__short", %"struct.std::__1::basic_string<char, std::__1::char_traits<char>, std::__1::allocator<char> >::__short"* %.pre96, i64 0, i32 1, i64 0, !dbg !5379
  br label %_ZNSt3__112basic_stringIcNS_11char_traitsIcEENS_9allocatorIcEEEC1Emc.exit, !dbg !5380

if.end9.i.i.i:                                    ; preds = %if.end.i.i.i
  tail call void @llvm.dbg.value(metadata %"class.std::__1::basic_string"* %__sp, i64 0, metadata !5381, metadata !4366), !dbg !5385
  tail call void @llvm.dbg.value(metadata i64 %__ns.0, i64 0, metadata !5384, metadata !4366), !dbg !5388
  %__s.tr.i.i.i.i = trunc i64 %__ns.0 to i8, !dbg !5389
  %conv.i.i.i.i = shl i8 %__s.tr.i.i.i.i, 1, !dbg !5389
  store i8 %conv.i.i.i.i, i8* %3, align 8, !dbg !5390, !tbaa !5391
  tail call void @llvm.dbg.value(metadata %"class.std::__1::basic_string"* %__sp, i64 0, metadata !5392, metadata !4366), !dbg !5395
  %__s.i.i.i.i = bitcast %"class.std::__1::basic_string"* %__sp to %"struct.std::__1::basic_string<char, std::__1::char_traits<char>, std::__1::allocator<char> >::__short"*, !dbg !5397
  %arrayidx.i.i.i.i = getelementptr inbounds %"struct.std::__1::basic_string<char, std::__1::char_traits<char>, std::__1::allocator<char> >::__short", %"struct.std::__1::basic_string<char, std::__1::char_traits<char>, std::__1::allocator<char> >::__short"* %__s.i.i.i.i, i64 0, i32 1, i64 0, !dbg !5398
  tail call void @llvm.dbg.value(metadata i8* %arrayidx.i.i.i.i, i64 0, metadata !5277, metadata !4366), !dbg !5321
  tail call void @llvm.dbg.value(metadata i8* %arrayidx.i.i.i.i, i64 0, metadata !5277, metadata !4366), !dbg !5321
  tail call void @llvm.dbg.value(metadata i8* %arrayidx.i.i.i.i, i64 0, metadata !5357, metadata !4366) #10, !dbg !5399
  tail call void @llvm.dbg.value(metadata i64 %__ns.0, i64 0, metadata !5354, metadata !4366) #10, !dbg !5359
  tail call void @llvm.dbg.value(metadata i8 %__fl, i64 0, metadata !5358, metadata !4366) #10, !dbg !5362
  %.pre = getelementptr inbounds %"class.std::__1::basic_string", %"class.std::__1::basic_string"* %__sp, i64 0, i32 0, i32 0, i32 0, i32 0, i32 0, i32 2, !dbg !5400
  br label %_ZNSt3__112basic_stringIcNS_11char_traitsIcEENS_9allocatorIcEEEC1Emc.exit

_ZNSt3__112basic_stringIcNS_11char_traitsIcEENS_9allocatorIcEEEC1Emc.exit: ; preds = %if.end9.thread.i.i.i, %if.end9.i.i.i
  %arrayidx.i.i.i83.pre-phi = phi i8* [ %.pre97, %if.end9.thread.i.i.i ], [ %arrayidx.i.i.i.i, %if.end9.i.i.i ], !dbg !5379
  %__data_.i.i.i.pre-phi = phi i8** [ %__data_.i.i.i.i, %if.end9.thread.i.i.i ], [ %.pre, %if.end9.i.i.i ], !dbg !5400
  %__p.027.i.i.i = phi i8* [ %call.i.i.i.i.i.i, %if.end9.thread.i.i.i ], [ %arrayidx.i.i.i.i, %if.end9.i.i.i ]
  call void @llvm.memset.p0i8.i64(i8* %__p.027.i.i.i, i8 %__fl, i64 %__ns.0, i32 1, i1 false) #10, !dbg !5406
  %arrayidx.i.i.i = getelementptr inbounds i8, i8* %__p.027.i.i.i, i64 %__ns.0, !dbg !5407
  tail call void @llvm.dbg.value(metadata i8* %arrayidx.i.i.i, i64 0, metadata !5408, metadata !4366), !dbg !5412
  store i8 0, i8* %arrayidx.i.i.i, align 1, !dbg !5414, !tbaa !5391
  tail call void @llvm.dbg.value(metadata %"class.std::__1::basic_string"* %__sp, i64 0, metadata !5184, metadata !4518), !dbg !5232
  tail call void @llvm.dbg.value(metadata %"class.std::__1::basic_string"* %__sp, i64 0, metadata !5376, metadata !4366), !dbg !5415
  tail call void @llvm.dbg.value(metadata %"class.std::__1::basic_string"* %__sp, i64 0, metadata !5372, metadata !4366), !dbg !5416
  tail call void @llvm.dbg.value(metadata %"class.std::__1::basic_string"* %__sp, i64 0, metadata !5417, metadata !4366), !dbg !5420
  %4 = load i8, i8* %3, align 8, !dbg !5422, !tbaa !5391
  %5 = and i8 %4, 1, !dbg !5423
  %tobool.i.i.i = icmp eq i8 %5, 0, !dbg !5424
  tail call void @llvm.dbg.value(metadata %"class.std::__1::basic_string"* %__sp, i64 0, metadata !5403, metadata !4366), !dbg !5425
  %6 = load i8*, i8** %__data_.i.i.i.pre-phi, align 8, !dbg !5400
  tail call void @llvm.dbg.value(metadata %"class.std::__1::basic_string"* %__sp, i64 0, metadata !5366, metadata !4366), !dbg !5426
  %cond.i.i = select i1 %tobool.i.i.i, i8* %arrayidx.i.i.i83.pre-phi, i8* %6, !dbg !5427
  tail call void @llvm.dbg.value(metadata %"class.std::__1::basic_streambuf"* %__s.coerce, i64 0, metadata !5215, metadata !4366), !dbg !5428
  tail call void @llvm.dbg.value(metadata i8* %cond.i.i, i64 0, metadata !5218, metadata !4366), !dbg !5430
  tail call void @llvm.dbg.value(metadata i64 %__ns.0, i64 0, metadata !5219, metadata !4366), !dbg !5431
  %7 = bitcast %"class.std::__1::basic_streambuf"* %__s.coerce to i64 (%"class.std::__1::basic_streambuf"*, i8*, i64)***, !dbg !5432
  %vtable.i84 = load i64 (%"class.std::__1::basic_streambuf"*, i8*, i64)**, i64 (%"class.std::__1::basic_streambuf"*, i8*, i64)*** %7, align 8, !dbg !5432, !tbaa !4942
  %vfn.i85 = getelementptr inbounds i64 (%"class.std::__1::basic_streambuf"*, i8*, i64)*, i64 (%"class.std::__1::basic_streambuf"*, i8*, i64)** %vtable.i84, i64 12, !dbg !5432
  %8 = load i64 (%"class.std::__1::basic_streambuf"*, i8*, i64)*, i64 (%"class.std::__1::basic_streambuf"*, i8*, i64)** %vfn.i85, align 8, !dbg !5432
  %call.i8687 = invoke i64 %8(%"class.std::__1::basic_streambuf"* nonnull %__s.coerce, i8* %cond.i.i, i64 %__ns.0)
          to label %invoke.cont unwind label %lpad, !dbg !5432

invoke.cont:                                      ; preds = %_ZNSt3__112basic_stringIcNS_11char_traitsIcEENS_9allocatorIcEEEC1Emc.exit
  %cmp21 = icmp eq i64 %call.i8687, %__ns.0, !dbg !5433
  call void @llvm.dbg.value(metadata %"class.std::__1::basic_string"* %__sp, i64 0, metadata !5184, metadata !4518), !dbg !5232
  call void @llvm.dbg.value(metadata %"class.std::__1::basic_string"* %__sp, i64 0, metadata !5435, metadata !4366) #10, !dbg !5438
  call void @llvm.dbg.value(metadata %"class.std::__1::basic_string"* %__sp, i64 0, metadata !5441, metadata !4366) #10, !dbg !5444
  call void @llvm.dbg.value(metadata %"class.std::__1::basic_string"* %__sp, i64 0, metadata !5417, metadata !4366) #10, !dbg !5446
  %9 = load i8, i8* %3, align 8, !dbg !5450, !tbaa !5391
  %10 = and i8 %9, 1, !dbg !5451
  %tobool.i.i.i89 = icmp eq i8 %10, 0, !dbg !5452
  br i1 %tobool.i.i.i89, label %_ZNSt3__112basic_stringIcNS_11char_traitsIcEENS_9allocatorIcEEED1Ev.exit, label %if.then.i.i, !dbg !5453

if.then.i.i:                                      ; preds = %invoke.cont
  call void @llvm.dbg.value(metadata %"class.std::__1::basic_string"* %__sp, i64 0, metadata !5454, metadata !4366) #10, !dbg !5457
  %11 = load i8*, i8** %__data_.i.i.i.pre-phi, align 8, !dbg !5460, !tbaa !5331
  call void @llvm.dbg.value(metadata i8* %11, i64 0, metadata !5461, metadata !4366) #10, !dbg !5466
  call void @llvm.dbg.value(metadata i8* %11, i64 0, metadata !5469, metadata !4366) #10, !dbg !5474
  call void @llvm.dbg.value(metadata i8* %11, i64 0, metadata !4720, metadata !4366) #10, !dbg !5476
  call void @_ZdlPv(i8* %11) #12, !dbg !5478
  br label %_ZNSt3__112basic_stringIcNS_11char_traitsIcEENS_9allocatorIcEEED1Ev.exit, !dbg !5479

_ZNSt3__112basic_stringIcNS_11char_traitsIcEENS_9allocatorIcEEED1Ev.exit: ; preds = %invoke.cont, %if.then.i.i
  call void @llvm.lifetime.end(i64 24, i8* nonnull %3) #10, !dbg !5480
  br i1 %cmp21, label %if.end26, label %return

lpad:                                             ; preds = %_ZNSt3__112basic_stringIcNS_11char_traitsIcEENS_9allocatorIcEEEC1Emc.exit
  %12 = landingpad { i8*, i32 }
          cleanup, !dbg !5481
  call void @llvm.dbg.value(metadata %"class.std::__1::basic_string"* %__sp, i64 0, metadata !5184, metadata !4518), !dbg !5232
  call void @llvm.dbg.value(metadata %"class.std::__1::basic_string"* %__sp, i64 0, metadata !5435, metadata !4366) #10, !dbg !5482
  call void @llvm.dbg.value(metadata %"class.std::__1::basic_string"* %__sp, i64 0, metadata !5441, metadata !4366) #10, !dbg !5484
  call void @llvm.dbg.value(metadata %"class.std::__1::basic_string"* %__sp, i64 0, metadata !5417, metadata !4366) #10, !dbg !5486
  %13 = load i8, i8* %3, align 8, !dbg !5488, !tbaa !5391
  %14 = and i8 %13, 1, !dbg !5489
  %tobool.i.i.i92 = icmp eq i8 %14, 0, !dbg !5490
  br i1 %tobool.i.i.i92, label %_ZNSt3__112basic_stringIcNS_11char_traitsIcEENS_9allocatorIcEEED1Ev.exit95, label %if.then.i.i94, !dbg !5491

if.then.i.i94:                                    ; preds = %lpad
  call void @llvm.dbg.value(metadata %"class.std::__1::basic_string"* %__sp, i64 0, metadata !5454, metadata !4366) #10, !dbg !5492
  %15 = load i8*, i8** %__data_.i.i.i.pre-phi, align 8, !dbg !5494, !tbaa !5331
  call void @llvm.dbg.value(metadata i8* %15, i64 0, metadata !5461, metadata !4366) #10, !dbg !5495
  call void @llvm.dbg.value(metadata i8* %15, i64 0, metadata !5469, metadata !4366) #10, !dbg !5497
  call void @llvm.dbg.value(metadata i8* %15, i64 0, metadata !4720, metadata !4366) #10, !dbg !5499
  call void @_ZdlPv(i8* %15) #12, !dbg !5501
  br label %_ZNSt3__112basic_stringIcNS_11char_traitsIcEENS_9allocatorIcEEED1Ev.exit95, !dbg !5502

_ZNSt3__112basic_stringIcNS_11char_traitsIcEENS_9allocatorIcEEED1Ev.exit95: ; preds = %lpad, %if.then.i.i94
  call void @llvm.lifetime.end(i64 24, i8* nonnull %3) #10, !dbg !5480
  resume { i8*, i32 } %12, !dbg !5503

if.end26:                                         ; preds = %_ZNSt3__112basic_stringIcNS_11char_traitsIcEENS_9allocatorIcEEED1Ev.exit, %if.end15
  call void @llvm.dbg.value(metadata %"class.std::__1::basic_streambuf"* %__s.coerce, i64 0, metadata !5175, metadata !4366), !dbg !5187
  %sub.ptr.sub29 = sub i64 %sub.ptr.lhs.cast, %sub.ptr.lhs.cast4, !dbg !5505
  call void @llvm.dbg.value(metadata i64 %sub.ptr.sub29, i64 0, metadata !5183, metadata !4366), !dbg !5211
  %cmp30 = icmp sgt i64 %sub.ptr.sub29, 0, !dbg !5506
  br i1 %cmp30, label %if.then31, label %if.end38, !dbg !5508

if.then31:                                        ; preds = %if.end26
  call void @llvm.dbg.value(metadata %"class.std::__1::basic_streambuf"* %__s.coerce, i64 0, metadata !5215, metadata !4366), !dbg !5509
  call void @llvm.dbg.value(metadata i8* %__op, i64 0, metadata !5218, metadata !4366), !dbg !5513
  call void @llvm.dbg.value(metadata i64 %sub.ptr.sub29, i64 0, metadata !5219, metadata !4366), !dbg !5514
  %16 = bitcast %"class.std::__1::basic_streambuf"* %__s.coerce to i64 (%"class.std::__1::basic_streambuf"*, i8*, i64)***, !dbg !5515
  %vtable.i = load i64 (%"class.std::__1::basic_streambuf"*, i8*, i64)**, i64 (%"class.std::__1::basic_streambuf"*, i8*, i64)*** %16, align 8, !dbg !5515, !tbaa !4942
  %vfn.i = getelementptr inbounds i64 (%"class.std::__1::basic_streambuf"*, i8*, i64)*, i64 (%"class.std::__1::basic_streambuf"*, i8*, i64)** %vtable.i, i64 12, !dbg !5515
  %17 = load i64 (%"class.std::__1::basic_streambuf"*, i8*, i64)*, i64 (%"class.std::__1::basic_streambuf"*, i8*, i64)** %vfn.i, align 8, !dbg !5515
  %call.i = call i64 %17(%"class.std::__1::basic_streambuf"* nonnull %__s.coerce, i8* %__op, i64 %sub.ptr.sub29), !dbg !5515
  %cmp34 = icmp eq i64 %call.i, %sub.ptr.sub29, !dbg !5516
  br i1 %cmp34, label %if.end38, label %return, !dbg !5517

if.end38:                                         ; preds = %if.then31, %if.end26
  tail call void @llvm.dbg.value(metadata %"class.std::__1::ios_base"* %__iob, i64 0, metadata !5518, metadata !4366), !dbg !5523
  tail call void @llvm.dbg.value(metadata i64 0, i64 0, metadata !5521, metadata !4366), !dbg !5525
  store i64 0, i64* %__width_.i, align 8, !dbg !5526, !tbaa !5204
  br label %return, !dbg !5527

return:                                           ; preds = %if.end38, %_ZNSt3__112basic_stringIcNS_11char_traitsIcEENS_9allocatorIcEEED1Ev.exit, %if.then8, %if.then31, %entry
  %retval.sroa.0.2 = phi %"class.std::__1::basic_streambuf"* [ null, %entry ], [ %__s.coerce, %if.end38 ], [ null, %_ZNSt3__112basic_stringIcNS_11char_traitsIcEENS_9allocatorIcEEED1Ev.exit ], [ null, %if.then8 ], [ null, %if.then31 ]
  ret %"class.std::__1::basic_streambuf"* %retval.sroa.0.2, !dbg !5528
}

; Function Attrs: nounwind
declare void @_ZNSt3__113basic_ostreamIcNS_11char_traitsIcEEE6sentryD1Ev(%"class.std::__1::basic_ostream<char, std::__1::char_traits<char> >::sentry"*) unnamed_addr #4

declare void @_ZNSt3__18ios_base33__set_badbit_and_consider_rethrowEv(%"class.std::__1::ios_base"*) local_unnamed_addr #1

declare void @__cxa_end_catch() local_unnamed_addr

; Function Attrs: argmemonly nounwind
declare void @llvm.memset.p0i8.i64(i8* nocapture writeonly, i8, i64, i32, i1) #2

declare void @_ZNKSt3__18ios_base6getlocEv(%"class.std::__1::locale"* sret, %"class.std::__1::ios_base"*) local_unnamed_addr #1

; Function Attrs: nounwind
declare void @_ZNSt3__16localeD1Ev(%"class.std::__1::locale"*) unnamed_addr #4

declare %"class.std::__1::locale::facet"* @_ZNKSt3__16locale9use_facetERNS0_2idE(%"class.std::__1::locale"*, %"class.std::__1::locale::id"* dereferenceable(16)) local_unnamed_addr #1

declare void @_ZNSt3__18ios_base5clearEj(%"class.std::__1::ios_base"*, i32) local_unnamed_addr #1

; Function Attrs: ssp uwtable
define linkonce_odr hidden void @_ZNSt3__16threadC2IRFvvEJEvEEOT_DpOT0_(%"class.std::__1::thread"* %this, void ()* %__f) unnamed_addr #0 align 2 personality i8* bitcast (i32 (...)* @__gxx_personality_v0 to i8*) !dbg !5530 {
entry:
  tail call void @llvm.dbg.value(metadata %"class.std::__1::thread"* %this, i64 0, metadata !5532, metadata !4366), !dbg !5683
  tail call void @llvm.dbg.value(metadata void ()* %__f, i64 0, metadata !5533, metadata !4366), !dbg !5684
  %call = tail call i8* @_Znwm(i64 8) #11, !dbg !5685
  %0 = bitcast i8* %call to %"class.std::__1::__thread_struct"*, !dbg !5685
  invoke void @_ZNSt3__115__thread_structC1Ev(%"class.std::__1::__thread_struct"* nonnull %0)
          to label %invoke.cont unwind label %lpad, !dbg !5686

invoke.cont:                                      ; preds = %entry
  tail call void @llvm.dbg.value(metadata %"class.std::__1::unique_ptr"* undef, i64 0, metadata !5534, metadata !4518), !dbg !5687
  %call4 = invoke i8* @_Znwm(i64 16) #11
          to label %invoke.cont3 unwind label %_ZNKSt3__114default_deleteINS_15__thread_structEEclEPS1_.exit.i.i.i, !dbg !5688

invoke.cont3:                                     ; preds = %invoke.cont
  %1 = ptrtoint i8* %call to i64
  tail call void @llvm.dbg.value(metadata %"class.std::__1::unique_ptr"* undef, i64 0, metadata !5534, metadata !4518), !dbg !5687
  %2 = ptrtoint void ()* %__f to i64, !dbg !5689
  tail call void @llvm.dbg.value(metadata %"class.std::__1::unique_ptr"* undef, i64 0, metadata !5691, metadata !4366), !dbg !5703
  tail call void @llvm.dbg.value(metadata void ()** undef, i64 0, metadata !5702, metadata !4366), !dbg !5703
  tail call void @llvm.dbg.value(metadata %"class.std::__1::unique_ptr"* undef, i64 0, metadata !5706, metadata !4366), !dbg !5711
  tail call void @llvm.dbg.value(metadata void ()** undef, i64 0, metadata !5710, metadata !4366), !dbg !5711
  tail call void @llvm.dbg.value(metadata %"class.std::__1::unique_ptr"* undef, i64 0, metadata !5713, metadata !4366), !dbg !5738
  tail call void @llvm.dbg.value(metadata void ()** undef, i64 0, metadata !5737, metadata !4366), !dbg !5738
  tail call void @llvm.dbg.value(metadata %"class.std::__1::unique_ptr"* undef, i64 0, metadata !5740, metadata !4366), !dbg !5749
  tail call void @llvm.dbg.value(metadata void ()** undef, i64 0, metadata !5748, metadata !4366), !dbg !5749
  tail call void @llvm.dbg.value(metadata %"class.std::__1::unique_ptr"* undef, i64 0, metadata !5751, metadata !4366), !dbg !5761
  tail call void @llvm.dbg.value(metadata %"class.std::__1::unique_ptr"* undef, i64 0, metadata !5764, metadata !4366), !dbg !5769
  tail call void @llvm.dbg.value(metadata %"class.std::__1::unique_ptr"* undef, i64 0, metadata !5772, metadata !4366), !dbg !5776
  tail call void @llvm.dbg.value(metadata %"class.std::__1::__thread_struct"** undef, i64 0, metadata !5778, metadata !4366), !dbg !5792
  tail call void @llvm.dbg.value(metadata %"class.std::__1::__thread_struct"** undef, i64 0, metadata !5794, metadata !4366), !dbg !5799
  tail call void @llvm.dbg.value(metadata %"class.std::__1::__thread_struct"** undef, i64 0, metadata !5801, metadata !4366), !dbg !5811
  %3 = bitcast i8* %call4 to i64*, !dbg !5814
  store i64 %1, i64* %3, align 8, !dbg !5814, !tbaa !5815
  %4 = getelementptr inbounds i8, i8* %call4, i64 8, !dbg !5817
  tail call void @llvm.dbg.value(metadata void ()** undef, i64 0, metadata !5818, metadata !4366), !dbg !5828
  %5 = bitcast i8* %4 to i64*, !dbg !5831
  store i64 %2, i64* %5, align 8, !dbg !5831, !tbaa !5832
  tail call void @llvm.dbg.value(metadata %"class.std::__1::unique_ptr.13"* undef, i64 0, metadata !5537, metadata !4518), !dbg !5834
  %__t_ = getelementptr inbounds %"class.std::__1::thread", %"class.std::__1::thread"* %this, i64 0, i32 0, !dbg !5835
  tail call void @llvm.dbg.value(metadata %"class.std::__1::unique_ptr.13"* undef, i64 0, metadata !5537, metadata !4518), !dbg !5834
  tail call void @llvm.dbg.value(metadata %struct._opaque_pthread_t** %__t_, i64 0, metadata !5836, metadata !4366), !dbg !5847
  tail call void @llvm.dbg.value(metadata i8* (i8*)* @_ZNSt3__114__thread_proxyINS_5tupleIJNS_10unique_ptrINS_15__thread_structENS_14default_deleteIS3_EEEEPFvvEEEEEEPvSA_, i64 0, metadata !5845, metadata !4366), !dbg !5849
  tail call void @llvm.dbg.value(metadata i8* %call4, i64 0, metadata !5846, metadata !4366), !dbg !5850
  %call.i31 = invoke i32 @pthread_create(%struct._opaque_pthread_t** %__t_, %struct._opaque_pthread_attr_t* null, i8* (i8*)* nonnull @_ZNSt3__114__thread_proxyINS_5tupleIJNS_10unique_ptrINS_15__thread_structENS_14default_deleteIS3_EEEEPFvvEEEEEEPvSA_, i8* nonnull %call4)
          to label %invoke.cont12 unwind label %lpad11, !dbg !5851

invoke.cont12:                                    ; preds = %invoke.cont3
  tail call void @llvm.dbg.value(metadata i32 %call.i31, i64 0, metadata !5682, metadata !4366), !dbg !5852
  %cmp = icmp eq i32 %call.i31, 0, !dbg !5853
  br i1 %cmp, label %_ZNSt3__110unique_ptrINS_15__thread_structENS_14default_deleteIS1_EEED1Ev.exit30, label %if.else, !dbg !5855

_ZNSt3__110unique_ptrINS_15__thread_structENS_14default_deleteIS1_EEED1Ev.exit30: ; preds = %invoke.cont12
  tail call void @llvm.dbg.value(metadata %"class.std::__1::unique_ptr.13"* undef, i64 0, metadata !5537, metadata !4518), !dbg !5834
  tail call void @llvm.dbg.value(metadata %"class.std::__1::unique_ptr.13"* undef, i64 0, metadata !5537, metadata !4518), !dbg !5834
  tail call void @llvm.dbg.value(metadata %"class.std::__1::unique_ptr.13"* undef, i64 0, metadata !5856, metadata !4366) #10, !dbg !5860
  tail call void @llvm.dbg.value(metadata %"class.std::__1::unique_ptr.13"* undef, i64 0, metadata !5863, metadata !4366) #10, !dbg !5866
  tail call void @llvm.dbg.value(metadata %"class.std::__1::unique_ptr.13"* undef, i64 0, metadata !5868, metadata !4366) #10, !dbg !5873
  tail call void @llvm.dbg.value(metadata %"class.std::__1::tuple"* null, i64 0, metadata !5871, metadata !4366) #10, !dbg !5876
  tail call void @llvm.dbg.value(metadata %"class.std::__1::tuple"* null, i64 0, metadata !5872, metadata !4366) #10, !dbg !5877
  tail call void @llvm.dbg.value(metadata %"class.std::__1::unique_ptr"* undef, i64 0, metadata !5534, metadata !4518), !dbg !5687
  tail call void @llvm.dbg.value(metadata %"class.std::__1::unique_ptr"* undef, i64 0, metadata !5878, metadata !4366) #10, !dbg !5881
  tail call void @llvm.dbg.value(metadata %"class.std::__1::unique_ptr"* undef, i64 0, metadata !5884, metadata !4366) #10, !dbg !5887
  tail call void @llvm.dbg.value(metadata %"class.std::__1::unique_ptr"* undef, i64 0, metadata !5889, metadata !4366) #10, !dbg !5894
  tail call void @llvm.dbg.value(metadata %"class.std::__1::__thread_struct"* null, i64 0, metadata !5892, metadata !4366) #10, !dbg !5897
  tail call void @llvm.dbg.value(metadata %"class.std::__1::__thread_struct"* null, i64 0, metadata !5893, metadata !4366) #10, !dbg !5898
  ret void, !dbg !5899

lpad:                                             ; preds = %entry
  %6 = landingpad { i8*, i32 }
          cleanup, !dbg !5900
  %7 = extractvalue { i8*, i32 } %6, 0, !dbg !5900
  %8 = extractvalue { i8*, i32 } %6, 1, !dbg !5900
  tail call void @_ZdlPv(i8* nonnull %call) #12, !dbg !5901
  br label %eh.resume, !dbg !5901

lpad11:                                           ; preds = %invoke.cont3
  %9 = landingpad { i8*, i32 }
          cleanup, !dbg !5902
  br label %delete.notnull.i.i.i.i, !dbg !5902

if.else:                                          ; preds = %invoke.cont12
  invoke void @_ZNSt3__120__throw_system_errorEiPKc(i32 %call.i31, i8* getelementptr inbounds ([26 x i8], [26 x i8]* @.str.8, i64 0, i64 0)) #13
          to label %invoke.cont16 unwind label %lpad15, !dbg !5904

invoke.cont16:                                    ; preds = %if.else
  unreachable, !dbg !5905

lpad15:                                           ; preds = %if.else
  %10 = landingpad { i8*, i32 }
          cleanup, !dbg !5907
  br label %delete.notnull.i.i.i.i, !dbg !5909

delete.notnull.i.i.i.i:                           ; preds = %lpad11, %lpad15
  %.sink24 = phi { i8*, i32 } [ %10, %lpad15 ], [ %9, %lpad11 ]
  %11 = extractvalue { i8*, i32 } %.sink24, 0
  %12 = extractvalue { i8*, i32 } %.sink24, 1
  tail call void @llvm.dbg.value(metadata %"class.std::__1::unique_ptr.13"* undef, i64 0, metadata !5537, metadata !4518), !dbg !5834
  tail call void @llvm.dbg.value(metadata %"class.std::__1::unique_ptr.13"* undef, i64 0, metadata !5856, metadata !4366) #10, !dbg !5911
  tail call void @llvm.dbg.value(metadata %"class.std::__1::unique_ptr.13"* undef, i64 0, metadata !5863, metadata !4366) #10, !dbg !5914
  tail call void @llvm.dbg.value(metadata %"class.std::__1::unique_ptr.13"* undef, i64 0, metadata !5868, metadata !4366) #10, !dbg !5916
  tail call void @llvm.dbg.value(metadata %"class.std::__1::tuple"* null, i64 0, metadata !5871, metadata !4366) #10, !dbg !5918
  tail call void @llvm.dbg.value(metadata %"class.std::__1::__thread_struct"* null, i64 0, metadata !5892, metadata !4366) #10, !dbg !5919
  %__value_.i.i.i.i.i.i.i.i.i.i.i.i.i.i = bitcast i8* %call4 to %"class.std::__1::__thread_struct"**, !dbg !5960
  %13 = load %"class.std::__1::__thread_struct"*, %"class.std::__1::__thread_struct"** %__value_.i.i.i.i.i.i.i.i.i.i.i.i.i.i, align 8, !dbg !5969, !tbaa !4559
  tail call void @llvm.dbg.value(metadata %"class.std::__1::__thread_struct"* %13, i64 0, metadata !5893, metadata !4366) #10, !dbg !5970
  store %"class.std::__1::__thread_struct"* null, %"class.std::__1::__thread_struct"** %__value_.i.i.i.i.i.i.i.i.i.i.i.i.i.i, align 8, !dbg !5971, !tbaa !4559
  %tobool.i.i.i.i.i.i.i.i.i.i.i.i = icmp eq %"class.std::__1::__thread_struct"* %13, null, !dbg !5972
  br i1 %tobool.i.i.i.i.i.i.i.i.i.i.i.i, label %ehcleanup18.thread, label %_ZNKSt3__114default_deleteINS_15__thread_structEEclEPS1_.exit.i.i.i.i.i.i.i.i.i.i.i.i, !dbg !5974

_ZNKSt3__114default_deleteINS_15__thread_structEEclEPS1_.exit.i.i.i.i.i.i.i.i.i.i.i.i: ; preds = %delete.notnull.i.i.i.i
  tail call void @llvm.dbg.value(metadata %"class.std::__1::__thread_struct"* %13, i64 0, metadata !5975, metadata !4366) #10, !dbg !5980
  tail call void @_ZNSt3__115__thread_structD1Ev(%"class.std::__1::__thread_struct"* nonnull %13) #10, !dbg !5983
  %14 = bitcast %"class.std::__1::__thread_struct"* %13 to i8*, !dbg !5983
  tail call void @_ZdlPv(i8* %14) #12, !dbg !5985
  br label %ehcleanup18.thread, !dbg !5987

ehcleanup18.thread:                               ; preds = %_ZNKSt3__114default_deleteINS_15__thread_structEEclEPS1_.exit.i.i.i.i.i.i.i.i.i.i.i.i, %delete.notnull.i.i.i.i
  tail call void @_ZdlPv(i8* nonnull %call4) #12, !dbg !5988
  tail call void @llvm.dbg.value(metadata %"class.std::__1::unique_ptr"* undef, i64 0, metadata !5534, metadata !4518), !dbg !5687
  tail call void @llvm.dbg.value(metadata %"class.std::__1::unique_ptr"* undef, i64 0, metadata !5878, metadata !4366) #10, !dbg !5990
  tail call void @llvm.dbg.value(metadata %"class.std::__1::unique_ptr"* undef, i64 0, metadata !5884, metadata !4366) #10, !dbg !5993
  tail call void @llvm.dbg.value(metadata %"class.std::__1::unique_ptr"* undef, i64 0, metadata !5889, metadata !4366) #10, !dbg !5995
  tail call void @llvm.dbg.value(metadata %"class.std::__1::__thread_struct"* null, i64 0, metadata !5892, metadata !4366) #10, !dbg !5997
  tail call void @llvm.dbg.value(metadata %"class.std::__1::__thread_struct"* %0, i64 0, metadata !5893, metadata !4366) #10, !dbg !5998
  br label %eh.resume, !dbg !5999

_ZNKSt3__114default_deleteINS_15__thread_structEEclEPS1_.exit.i.i.i: ; preds = %invoke.cont
  %15 = landingpad { i8*, i32 }
          cleanup, !dbg !6000
  %16 = extractvalue { i8*, i32 } %15, 0, !dbg !6000
  %17 = extractvalue { i8*, i32 } %15, 1, !dbg !6000
  tail call void @llvm.dbg.value(metadata %"class.std::__1::unique_ptr"* undef, i64 0, metadata !5534, metadata !4518), !dbg !5687
  tail call void @llvm.dbg.value(metadata %"class.std::__1::unique_ptr"* undef, i64 0, metadata !5878, metadata !4366) #10, !dbg !5990
  tail call void @llvm.dbg.value(metadata %"class.std::__1::unique_ptr"* undef, i64 0, metadata !5884, metadata !4366) #10, !dbg !5993
  tail call void @llvm.dbg.value(metadata %"class.std::__1::unique_ptr"* undef, i64 0, metadata !5889, metadata !4366) #10, !dbg !5995
  tail call void @llvm.dbg.value(metadata %"class.std::__1::__thread_struct"* null, i64 0, metadata !5892, metadata !4366) #10, !dbg !5997
  tail call void @llvm.dbg.value(metadata %"class.std::__1::__thread_struct"* %0, i64 0, metadata !5893, metadata !4366) #10, !dbg !5998
  tail call void @llvm.dbg.value(metadata %"class.std::__1::__thread_struct"* %0, i64 0, metadata !5975, metadata !4366) #10, !dbg !6001
  tail call void @_ZNSt3__115__thread_structD1Ev(%"class.std::__1::__thread_struct"* nonnull %0) #10, !dbg !6003
  tail call void @_ZdlPv(i8* nonnull %call) #12, !dbg !6004
  br label %eh.resume, !dbg !6005

eh.resume:                                        ; preds = %ehcleanup18.thread, %_ZNKSt3__114default_deleteINS_15__thread_structEEclEPS1_.exit.i.i.i, %lpad
  %ehselector.slot.2 = phi i32 [ %8, %lpad ], [ %17, %_ZNKSt3__114default_deleteINS_15__thread_structEEclEPS1_.exit.i.i.i ], [ %12, %ehcleanup18.thread ]
  %exn.slot.2 = phi i8* [ %7, %lpad ], [ %16, %_ZNKSt3__114default_deleteINS_15__thread_structEEclEPS1_.exit.i.i.i ], [ %11, %ehcleanup18.thread ]
  %lpad.val = insertvalue { i8*, i32 } undef, i8* %exn.slot.2, 0, !dbg !6006
  %lpad.val20 = insertvalue { i8*, i32 } %lpad.val, i32 %ehselector.slot.2, 1, !dbg !6006
  resume { i8*, i32 } %lpad.val20, !dbg !6006
}

declare void @_ZNSt3__115__thread_structC1Ev(%"class.std::__1::__thread_struct"*) unnamed_addr #1

; Function Attrs: ssp uwtable
define linkonce_odr i8* @_ZNSt3__114__thread_proxyINS_5tupleIJNS_10unique_ptrINS_15__thread_structENS_14default_deleteIS3_EEEEPFvvEEEEEEPvSA_(i8* %__vp) #0 personality i8* bitcast (i32 (...)* @__gxx_personality_v0 to i8*) !dbg !6007 {
entry:
  tail call void @llvm.dbg.value(metadata i8* %__vp, i64 0, metadata !6011, metadata !4366), !dbg !6013
  tail call void @llvm.dbg.value(metadata %"class.std::__1::unique_ptr.13"* undef, i64 0, metadata !6012, metadata !4518), !dbg !6014
  %call = invoke dereferenceable(8) %"class.std::__1::__thread_specific_ptr"* @_ZNSt3__119__thread_local_dataEv()
          to label %invoke.cont unwind label %lpad, !dbg !6015

invoke.cont:                                      ; preds = %entry
  tail call void @llvm.dbg.value(metadata %"class.std::__1::unique_ptr.13"* undef, i64 0, metadata !6012, metadata !4518), !dbg !6014
  %__value_.i.i.i10 = bitcast i8* %__vp to %"class.std::__1::__thread_struct"**, !dbg !6016
  %0 = bitcast i8* %__vp to i8**, !dbg !6025
  %1 = load i8*, i8** %0, align 8, !dbg !6025, !tbaa !4559
  store %"class.std::__1::__thread_struct"* null, %"class.std::__1::__thread_struct"** %__value_.i.i.i10, align 8, !dbg !6026, !tbaa !4559
  tail call void @llvm.dbg.value(metadata %"class.std::__1::__thread_specific_ptr"* %call, i64 0, metadata !6027, metadata !4366), !dbg !6064
  %__key_.i = getelementptr inbounds %"class.std::__1::__thread_specific_ptr", %"class.std::__1::__thread_specific_ptr"* %call, i64 0, i32 0, !dbg !6067
  %2 = load i64, i64* %__key_.i, align 8, !dbg !6067, !tbaa !6068
  tail call void @llvm.dbg.value(metadata i64 %2, i64 0, metadata !6070, metadata !4366), !dbg !6076
  tail call void @llvm.dbg.value(metadata i8* %1, i64 0, metadata !6075, metadata !4366), !dbg !6078
  %call.i.i19 = invoke i32 @pthread_setspecific(i64 %2, i8* %1)
          to label %invoke.cont5 unwind label %lpad.thread, !dbg !6079

invoke.cont5:                                     ; preds = %invoke.cont
  tail call void @llvm.dbg.value(metadata %"class.std::__1::unique_ptr.13"* undef, i64 0, metadata !6012, metadata !4518), !dbg !6014
  %value.i.i.i = getelementptr inbounds i8, i8* %__vp, i64 8, !dbg !6080
  %3 = bitcast i8* %value.i.i.i to void ()**, !dbg !6080
  tail call void @llvm.dbg.value(metadata void ()** %3, i64 0, metadata !6112, metadata !4366), !dbg !6118
  %4 = load void ()*, void ()** %3, align 8, !dbg !6121, !tbaa !4559
  invoke void %4()
          to label %delete.notnull.i.i.i.i15 unwind label %lpad.thread, !dbg !6122

delete.notnull.i.i.i.i15:                         ; preds = %invoke.cont5
  tail call void @llvm.dbg.value(metadata %"class.std::__1::unique_ptr.13"* undef, i64 0, metadata !6012, metadata !4518), !dbg !6014
  tail call void @llvm.dbg.value(metadata %"class.std::__1::unique_ptr.13"* undef, i64 0, metadata !5856, metadata !4366) #10, !dbg !6124
  tail call void @llvm.dbg.value(metadata %"class.std::__1::unique_ptr.13"* undef, i64 0, metadata !5863, metadata !4366) #10, !dbg !6126
  tail call void @llvm.dbg.value(metadata %"class.std::__1::unique_ptr.13"* undef, i64 0, metadata !5868, metadata !4366) #10, !dbg !6128
  tail call void @llvm.dbg.value(metadata %"class.std::__1::tuple"* null, i64 0, metadata !5871, metadata !4366) #10, !dbg !6130
  tail call void @llvm.dbg.value(metadata %"class.std::__1::__thread_struct"* null, i64 0, metadata !5892, metadata !4366) #10, !dbg !6131
  %5 = load %"class.std::__1::__thread_struct"*, %"class.std::__1::__thread_struct"** %__value_.i.i.i10, align 8, !dbg !6141, !tbaa !4559
  tail call void @llvm.dbg.value(metadata %"class.std::__1::__thread_struct"* %5, i64 0, metadata !5893, metadata !4366) #10, !dbg !6142
  store %"class.std::__1::__thread_struct"* null, %"class.std::__1::__thread_struct"** %__value_.i.i.i10, align 8, !dbg !6143, !tbaa !4559
  %tobool.i.i.i.i.i.i.i.i.i.i.i.i14 = icmp eq %"class.std::__1::__thread_struct"* %5, null, !dbg !6144
  br i1 %tobool.i.i.i.i.i.i.i.i.i.i.i.i14, label %_ZNSt3__110unique_ptrINS_5tupleIJNS0_INS_15__thread_structENS_14default_deleteIS2_EEEEPFvvEEEENS3_IS8_EEED1Ev.exit18, label %_ZNKSt3__114default_deleteINS_15__thread_structEEclEPS1_.exit.i.i.i.i.i.i.i.i.i.i.i.i16, !dbg !6145

_ZNKSt3__114default_deleteINS_15__thread_structEEclEPS1_.exit.i.i.i.i.i.i.i.i.i.i.i.i16: ; preds = %delete.notnull.i.i.i.i15
  tail call void @llvm.dbg.value(metadata %"class.std::__1::__thread_struct"* %5, i64 0, metadata !5975, metadata !4366) #10, !dbg !6146
  tail call void @_ZNSt3__115__thread_structD1Ev(%"class.std::__1::__thread_struct"* nonnull %5) #10, !dbg !6148
  %6 = bitcast %"class.std::__1::__thread_struct"* %5 to i8*, !dbg !6148
  tail call void @_ZdlPv(i8* %6) #12, !dbg !6149
  br label %_ZNSt3__110unique_ptrINS_5tupleIJNS0_INS_15__thread_structENS_14default_deleteIS2_EEEEPFvvEEEENS3_IS8_EEED1Ev.exit18, !dbg !6150

_ZNSt3__110unique_ptrINS_5tupleIJNS0_INS_15__thread_structENS_14default_deleteIS2_EEEEPFvvEEEENS3_IS8_EEED1Ev.exit18: ; preds = %delete.notnull.i.i.i.i15, %_ZNKSt3__114default_deleteINS_15__thread_structEEclEPS1_.exit.i.i.i.i.i.i.i.i.i.i.i.i16
  tail call void @_ZdlPv(i8* nonnull %__vp) #12, !dbg !6151
  ret i8* null, !dbg !6152

lpad.thread:                                      ; preds = %invoke.cont5, %invoke.cont
  %lpad.thr_comm26 = landingpad { i8*, i32 }
          cleanup, !dbg !6153
  tail call void @llvm.dbg.value(metadata %"class.std::__1::unique_ptr.13"* undef, i64 0, metadata !6012, metadata !4518), !dbg !6014
  tail call void @llvm.dbg.value(metadata %"class.std::__1::unique_ptr.13"* undef, i64 0, metadata !5856, metadata !4366) #10, !dbg !6154
  tail call void @llvm.dbg.value(metadata %"class.std::__1::unique_ptr.13"* undef, i64 0, metadata !5863, metadata !4366) #10, !dbg !6156
  tail call void @llvm.dbg.value(metadata %"class.std::__1::unique_ptr.13"* undef, i64 0, metadata !5868, metadata !4366) #10, !dbg !6158
  tail call void @llvm.dbg.value(metadata %"class.std::__1::tuple"* null, i64 0, metadata !5871, metadata !4366) #10, !dbg !6160
  br label %delete.notnull.i.i.i.i, !dbg !6161

lpad:                                             ; preds = %entry
  %lpad.thr_comm.split-lp27 = landingpad { i8*, i32 }
          cleanup, !dbg !6153
  tail call void @llvm.dbg.value(metadata %"class.std::__1::unique_ptr.13"* undef, i64 0, metadata !6012, metadata !4518), !dbg !6014
  tail call void @llvm.dbg.value(metadata %"class.std::__1::unique_ptr.13"* undef, i64 0, metadata !5856, metadata !4366) #10, !dbg !6154
  tail call void @llvm.dbg.value(metadata %"class.std::__1::unique_ptr.13"* undef, i64 0, metadata !5863, metadata !4366) #10, !dbg !6156
  tail call void @llvm.dbg.value(metadata %"class.std::__1::unique_ptr.13"* undef, i64 0, metadata !5868, metadata !4366) #10, !dbg !6158
  tail call void @llvm.dbg.value(metadata %"class.std::__1::tuple"* null, i64 0, metadata !5871, metadata !4366) #10, !dbg !6160
  %tobool.i.i.i = icmp eq i8* %__vp, null, !dbg !6162
  br i1 %tobool.i.i.i, label %_ZNSt3__110unique_ptrINS_5tupleIJNS0_INS_15__thread_structENS_14default_deleteIS2_EEEEPFvvEEEENS3_IS8_EEED1Ev.exit, label %lpad.delete.notnull.i.i.i.i_crit_edge, !dbg !6161

lpad.delete.notnull.i.i.i.i_crit_edge:            ; preds = %lpad
  %.pre = bitcast i8* %__vp to %"class.std::__1::__thread_struct"**, !dbg !6163
  br label %delete.notnull.i.i.i.i, !dbg !6161

delete.notnull.i.i.i.i:                           ; preds = %lpad.delete.notnull.i.i.i.i_crit_edge, %lpad.thread
  %__value_.i.i.i.i.i.i.i.i.i.i.i.i.i.i.pre-phi = phi %"class.std::__1::__thread_struct"** [ %.pre, %lpad.delete.notnull.i.i.i.i_crit_edge ], [ %__value_.i.i.i10, %lpad.thread ], !dbg !6163
  %lpad.phi29 = phi { i8*, i32 } [ %lpad.thr_comm.split-lp27, %lpad.delete.notnull.i.i.i.i_crit_edge ], [ %lpad.thr_comm26, %lpad.thread ]
  tail call void @llvm.dbg.value(metadata %"class.std::__1::__thread_struct"* null, i64 0, metadata !5892, metadata !4366) #10, !dbg !6175
  %7 = load %"class.std::__1::__thread_struct"*, %"class.std::__1::__thread_struct"** %__value_.i.i.i.i.i.i.i.i.i.i.i.i.i.i.pre-phi, align 8, !dbg !6176, !tbaa !4559
  tail call void @llvm.dbg.value(metadata %"class.std::__1::__thread_struct"* %7, i64 0, metadata !5893, metadata !4366) #10, !dbg !6177
  store %"class.std::__1::__thread_struct"* null, %"class.std::__1::__thread_struct"** %__value_.i.i.i.i.i.i.i.i.i.i.i.i.i.i.pre-phi, align 8, !dbg !6178, !tbaa !4559
  %tobool.i.i.i.i.i.i.i.i.i.i.i.i = icmp eq %"class.std::__1::__thread_struct"* %7, null, !dbg !6179
  br i1 %tobool.i.i.i.i.i.i.i.i.i.i.i.i, label %_ZNKSt3__114default_deleteINS_5tupleIJNS_10unique_ptrINS_15__thread_structENS0_IS3_EEEEPFvvEEEEEclEPS8_.exit.i.i.i, label %_ZNKSt3__114default_deleteINS_15__thread_structEEclEPS1_.exit.i.i.i.i.i.i.i.i.i.i.i.i, !dbg !6180

_ZNKSt3__114default_deleteINS_15__thread_structEEclEPS1_.exit.i.i.i.i.i.i.i.i.i.i.i.i: ; preds = %delete.notnull.i.i.i.i
  tail call void @llvm.dbg.value(metadata %"class.std::__1::__thread_struct"* %7, i64 0, metadata !5975, metadata !4366) #10, !dbg !6181
  tail call void @_ZNSt3__115__thread_structD1Ev(%"class.std::__1::__thread_struct"* nonnull %7) #10, !dbg !6183
  %8 = bitcast %"class.std::__1::__thread_struct"* %7 to i8*, !dbg !6183
  tail call void @_ZdlPv(i8* %8) #12, !dbg !6184
  br label %_ZNKSt3__114default_deleteINS_5tupleIJNS_10unique_ptrINS_15__thread_structENS0_IS3_EEEEPFvvEEEEEclEPS8_.exit.i.i.i, !dbg !6185

_ZNKSt3__114default_deleteINS_5tupleIJNS_10unique_ptrINS_15__thread_structENS0_IS3_EEEEPFvvEEEEEclEPS8_.exit.i.i.i: ; preds = %_ZNKSt3__114default_deleteINS_15__thread_structEEclEPS1_.exit.i.i.i.i.i.i.i.i.i.i.i.i, %delete.notnull.i.i.i.i
  tail call void @_ZdlPv(i8* nonnull %__vp) #12, !dbg !6186
  br label %_ZNSt3__110unique_ptrINS_5tupleIJNS0_INS_15__thread_structENS_14default_deleteIS2_EEEEPFvvEEEENS3_IS8_EEED1Ev.exit, !dbg !6187

_ZNSt3__110unique_ptrINS_5tupleIJNS0_INS_15__thread_structENS_14default_deleteIS2_EEEEPFvvEEEENS3_IS8_EEED1Ev.exit: ; preds = %lpad, %_ZNKSt3__114default_deleteINS_5tupleIJNS_10unique_ptrINS_15__thread_structENS0_IS3_EEEEPFvvEEEEEclEPS8_.exit.i.i.i
  %lpad.phi30 = phi { i8*, i32 } [ %lpad.thr_comm.split-lp27, %lpad ], [ %lpad.phi29, %_ZNKSt3__114default_deleteINS_5tupleIJNS_10unique_ptrINS_15__thread_structENS0_IS3_EEEEPFvvEEEEEclEPS8_.exit.i.i.i ]
  resume { i8*, i32 } %lpad.phi30, !dbg !6188
}

; Function Attrs: noreturn
declare void @_ZNSt3__120__throw_system_errorEiPKc(i32, i8*) local_unnamed_addr #9

declare i32 @pthread_create(%struct._opaque_pthread_t**, %struct._opaque_pthread_attr_t*, i8* (i8*)*, i8*) local_unnamed_addr #1

declare dereferenceable(8) %"class.std::__1::__thread_specific_ptr"* @_ZNSt3__119__thread_local_dataEv() local_unnamed_addr #1

declare i32 @pthread_setspecific(i64, i8*) local_unnamed_addr #1

; Function Attrs: nounwind
declare void @_ZNSt3__115__thread_structD1Ev(%"class.std::__1::__thread_struct"*) unnamed_addr #4

; Function Attrs: nounwind readnone
declare void @llvm.dbg.value(metadata, i64, metadata, metadata) #3

declare void @preNonAtomicStore_char(i8*, i8)

declare void @preNonAtomicStore_int(i8*, i32)

declare void @preNonAtomicStore_double(i8*, i64)

declare void @preAtomicStore_char(i8*, i8, i32)

declare void @preAtomicStore_int(i8*, i32, i32)

declare void @preAtomicStore_double(i8*, i64, i32)

declare i8 @preNonAtomicLoad_char(i8*)

declare i32 @preNonAtomicLoad_int(i8*)

declare i64 @preNonAtomicLoad_double(i8*)

declare i8 @preAtomicLoad_char(i8*, i32)

declare i32 @preAtomicLoad_int(i8*, i32)

declare i64 @preAtomicLoad_double(i8*, i32)

declare void @postAtomicLoad_char(i8*, i8, i32)

declare void @postAtomicLoad_int(i8*, i32, i32)

declare void @postAtomicLoad_double(i8*, i64, i32)

declare void @preFence(i32)

declare void @preCmpXchg_int(i8*, i32, i32, i32, i32)

declare void @preRMW_Xchg(i8*, i32, i32)

declare void @preRMW_Add(i8*, i32, i32)

declare void @preRMW_Sub(i8*, i32, i32)

declare void @preRMW_And(i8*, i32, i32)

declare void @preRMW_Nand(i8*, i32, i32)

declare void @preRMW_Or(i8*, i32, i32)

declare void @preRMW_Xor(i8*, i32, i32)

declare void @preRMW_Max(i8*, i32, i32)

declare void @preRMW_Min(i8*, i32, i32)

declare void @preRMW_UMax(i8*, i32, i32)

declare void @preRMW_UMin(i8*, i32, i32)

attributes #0 = { ssp uwtable "correctly-rounded-divide-sqrt-fp-math"="false" "disable-tail-calls"="false" "less-precise-fpmad"="false" "no-frame-pointer-elim"="true" "no-frame-pointer-elim-non-leaf" "no-infs-fp-math"="false" "no-jump-tables"="false" "no-nans-fp-math"="false" "no-signed-zeros-fp-math"="false" "no-trapping-math"="false" "stack-protector-buffer-size"="8" "target-cpu"="core2" "target-features"="+cx16,+fxsr,+mmx,+sse,+sse2,+sse3,+ssse3,+x87" "unsafe-fp-math"="false" "use-soft-float"="false" }
attributes #1 = { "correctly-rounded-divide-sqrt-fp-math"="false" "disable-tail-calls"="false" "less-precise-fpmad"="false" "no-frame-pointer-elim"="true" "no-frame-pointer-elim-non-leaf" "no-infs-fp-math"="false" "no-nans-fp-math"="false" "no-signed-zeros-fp-math"="false" "no-trapping-math"="false" "stack-protector-buffer-size"="8" "target-cpu"="core2" "target-features"="+cx16,+fxsr,+mmx,+sse,+sse2,+sse3,+ssse3,+x87" "unsafe-fp-math"="false" "use-soft-float"="false" }
attributes #2 = { argmemonly nounwind }
attributes #3 = { nounwind readnone }
attributes #4 = { nounwind "correctly-rounded-divide-sqrt-fp-math"="false" "disable-tail-calls"="false" "less-precise-fpmad"="false" "no-frame-pointer-elim"="true" "no-frame-pointer-elim-non-leaf" "no-infs-fp-math"="false" "no-nans-fp-math"="false" "no-signed-zeros-fp-math"="false" "no-trapping-math"="false" "stack-protector-buffer-size"="8" "target-cpu"="core2" "target-features"="+cx16,+fxsr,+mmx,+sse,+sse2,+sse3,+ssse3,+x87" "unsafe-fp-math"="false" "use-soft-float"="false" }
attributes #5 = { norecurse ssp uwtable "correctly-rounded-divide-sqrt-fp-math"="false" "disable-tail-calls"="false" "less-precise-fpmad"="false" "no-frame-pointer-elim"="true" "no-frame-pointer-elim-non-leaf" "no-infs-fp-math"="false" "no-jump-tables"="false" "no-nans-fp-math"="false" "no-signed-zeros-fp-math"="false" "no-trapping-math"="false" "stack-protector-buffer-size"="8" "target-cpu"="core2" "target-features"="+cx16,+fxsr,+mmx,+sse,+sse2,+sse3,+ssse3,+x87" "unsafe-fp-math"="false" "use-soft-float"="false" }
attributes #6 = { nobuiltin "correctly-rounded-divide-sqrt-fp-math"="false" "disable-tail-calls"="false" "less-precise-fpmad"="false" "no-frame-pointer-elim"="true" "no-frame-pointer-elim-non-leaf" "no-infs-fp-math"="false" "no-nans-fp-math"="false" "no-signed-zeros-fp-math"="false" "no-trapping-math"="false" "stack-protector-buffer-size"="8" "target-cpu"="core2" "target-features"="+cx16,+fxsr,+mmx,+sse,+sse2,+sse3,+ssse3,+x87" "unsafe-fp-math"="false" "use-soft-float"="false" }
attributes #7 = { nobuiltin nounwind "correctly-rounded-divide-sqrt-fp-math"="false" "disable-tail-calls"="false" "less-precise-fpmad"="false" "no-frame-pointer-elim"="true" "no-frame-pointer-elim-non-leaf" "no-infs-fp-math"="false" "no-nans-fp-math"="false" "no-signed-zeros-fp-math"="false" "no-trapping-math"="false" "stack-protector-buffer-size"="8" "target-cpu"="core2" "target-features"="+cx16,+fxsr,+mmx,+sse,+sse2,+sse3,+ssse3,+x87" "unsafe-fp-math"="false" "use-soft-float"="false" }
attributes #8 = { noinline noreturn nounwind }
attributes #9 = { noreturn "correctly-rounded-divide-sqrt-fp-math"="false" "disable-tail-calls"="false" "less-precise-fpmad"="false" "no-frame-pointer-elim"="true" "no-frame-pointer-elim-non-leaf" "no-infs-fp-math"="false" "no-nans-fp-math"="false" "no-signed-zeros-fp-math"="false" "no-trapping-math"="false" "stack-protector-buffer-size"="8" "target-cpu"="core2" "target-features"="+cx16,+fxsr,+mmx,+sse,+sse2,+sse3,+ssse3,+x87" "unsafe-fp-math"="false" "use-soft-float"="false" }
attributes #10 = { nounwind }
attributes #11 = { builtin }
attributes #12 = { builtin nounwind }
attributes #13 = { noreturn }
attributes #14 = { noreturn nounwind }

!llvm.dbg.cu = !{!2}
!llvm.module.flags = !{!4355, !4356, !4357}
!llvm.ident = !{!4358}

!0 = !DIGlobalVariableExpression(var: !1)
!1 = distinct !DIGlobalVariable(name: "data1", scope: !2, file: !3, line: 9, type: !104, isLocal: false, isDefinition: true)
!2 = distinct !DICompileUnit(language: DW_LANG_C_plus_plus, file: !3, producer: "clang version 4.0.0 (tags/RELEASE_400/final)", isOptimized: true, runtimeVersion: 0, emissionKind: FullDebug, enums: !4, retainedTypes: !1421, globals: !3450, imports: !3455)
!3 = !DIFile(filename: "example.cpp", directory: "/Users/aser/Dropbox/papers/C++11/Checker11/examples/fence2")
!4 = !{!5, !17, !23, !30, !1404, !1409, !1412, !1415, !1418}
!5 = distinct !DICompositeType(tag: DW_TAG_enumeration_type, name: "memory_order", scope: !7, file: !6, line: 581, size: 32, elements: !10, identifier: "_ZTSNSt3__112memory_orderE")
!6 = !DIFile(filename: "/Users/aser/Documents/LLVM/llvm-4.0/build/bin/../include/c++/v1/atomic", directory: "/Users/aser/Dropbox/papers/C++11/Checker11/examples/fence2")
!7 = !DINamespace(name: "__1", scope: !9, file: !8, line: 438, exportSymbols: true)
!8 = !DIFile(filename: "/Users/aser/Documents/LLVM/llvm-4.0/build/bin/../include/c++/v1/__config", directory: "/Users/aser/Dropbox/papers/C++11/Checker11/examples/fence2")
!9 = !DINamespace(name: "std", scope: null, file: !8, line: 437)
!10 = !{!11, !12, !13, !14, !15, !16}
!11 = !DIEnumerator(name: "memory_order_relaxed", value: 0)
!12 = !DIEnumerator(name: "memory_order_consume", value: 1)
!13 = !DIEnumerator(name: "memory_order_acquire", value: 2)
!14 = !DIEnumerator(name: "memory_order_release", value: 3)
!15 = !DIEnumerator(name: "memory_order_acq_rel", value: 4)
!16 = !DIEnumerator(name: "memory_order_seq_cst", value: 5)
!17 = distinct !DICompositeType(tag: DW_TAG_enumeration_type, name: "float_denorm_style", scope: !7, file: !18, line: 133, size: 32, elements: !19, identifier: "_ZTSNSt3__118float_denorm_styleE")
!18 = !DIFile(filename: "/Users/aser/Documents/LLVM/llvm-4.0/build/bin/../include/c++/v1/limits", directory: "/Users/aser/Dropbox/papers/C++11/Checker11/examples/fence2")
!19 = !{!20, !21, !22}
!20 = !DIEnumerator(name: "denorm_indeterminate", value: -1)
!21 = !DIEnumerator(name: "denorm_absent", value: 0)
!22 = !DIEnumerator(name: "denorm_present", value: 1)
!23 = distinct !DICompositeType(tag: DW_TAG_enumeration_type, name: "float_round_style", scope: !7, file: !18, line: 124, size: 32, elements: !24, identifier: "_ZTSNSt3__117float_round_styleE")
!24 = !{!25, !26, !27, !28, !29}
!25 = !DIEnumerator(name: "round_indeterminate", value: -1)
!26 = !DIEnumerator(name: "round_toward_zero", value: 0)
!27 = !DIEnumerator(name: "round_to_nearest", value: 1)
!28 = !DIEnumerator(name: "round_toward_infinity", value: 2)
!29 = !DIEnumerator(name: "round_toward_neg_infinity", value: 3)
!30 = distinct !DICompositeType(tag: DW_TAG_enumeration_type, name: "event", scope: !32, file: !31, line: 308, size: 32, elements: !1400, identifier: "_ZTSNSt3__18ios_base5eventE")
!31 = !DIFile(filename: "/Users/aser/Documents/LLVM/llvm-4.0/build/bin/../include/c++/v1/ios", directory: "/Users/aser/Dropbox/papers/C++11/Checker11/examples/fence2")
!32 = distinct !DICompositeType(tag: DW_TAG_class_type, name: "ios_base", scope: !7, file: !31, line: 231, size: 1088, elements: !33, vtableHolder: !32, identifier: "_ZTSNSt3__18ios_baseE")
!33 = !{!34, !40, !44, !45, !46, !47, !48, !49, !50, !51, !52, !53, !54, !55, !56, !57, !58, !59, !60, !61, !64, !65, !66, !67, !70, !71, !72, !73, !74, !75, !76, !81, !82, !83, !84, !86, !87, !94, !96, !102, !103, !257, !259, !260, !261, !263, !264, !265, !270, !274, !275, !278, !281, !284, !287, !288, !289, !1338, !1341, !1342, !1346, !1350, !1353, !1356, !1360, !1363, !1366, !1369, !1372, !1373, !1376, !1377, !1378, !1379, !1380, !1381, !1382, !1383, !1384, !1387, !1390, !1391, !1394, !1395, !1398, !1399}
!34 = !DIDerivedType(tag: DW_TAG_member, name: "_vptr$ios_base", scope: !31, file: !31, baseType: !35, size: 64, flags: DIFlagArtificial)
!35 = !DIDerivedType(tag: DW_TAG_pointer_type, baseType: !36, size: 64)
!36 = !DIDerivedType(tag: DW_TAG_pointer_type, name: "__vtbl_ptr_type", baseType: !37, size: 64)
!37 = !DISubroutineType(types: !38)
!38 = !{!39}
!39 = !DIBasicType(name: "int", size: 32, encoding: DW_ATE_signed)
!40 = !DIDerivedType(tag: DW_TAG_member, name: "boolalpha", scope: !32, file: !31, line: 237, baseType: !41, flags: DIFlagPublic | DIFlagStaticMember, extraData: i32 1)
!41 = !DIDerivedType(tag: DW_TAG_const_type, baseType: !42)
!42 = !DIDerivedType(tag: DW_TAG_typedef, name: "fmtflags", scope: !32, file: !31, line: 236, baseType: !43)
!43 = !DIBasicType(name: "unsigned int", size: 32, encoding: DW_ATE_unsigned)
!44 = !DIDerivedType(tag: DW_TAG_member, name: "dec", scope: !32, file: !31, line: 238, baseType: !41, flags: DIFlagPublic | DIFlagStaticMember, extraData: i32 2)
!45 = !DIDerivedType(tag: DW_TAG_member, name: "fixed", scope: !32, file: !31, line: 239, baseType: !41, flags: DIFlagPublic | DIFlagStaticMember, extraData: i32 4)
!46 = !DIDerivedType(tag: DW_TAG_member, name: "hex", scope: !32, file: !31, line: 240, baseType: !41, flags: DIFlagPublic | DIFlagStaticMember, extraData: i32 8)
!47 = !DIDerivedType(tag: DW_TAG_member, name: "internal", scope: !32, file: !31, line: 241, baseType: !41, flags: DIFlagPublic | DIFlagStaticMember, extraData: i32 16)
!48 = !DIDerivedType(tag: DW_TAG_member, name: "left", scope: !32, file: !31, line: 242, baseType: !41, flags: DIFlagPublic | DIFlagStaticMember, extraData: i32 32)
!49 = !DIDerivedType(tag: DW_TAG_member, name: "oct", scope: !32, file: !31, line: 243, baseType: !41, flags: DIFlagPublic | DIFlagStaticMember, extraData: i32 64)
!50 = !DIDerivedType(tag: DW_TAG_member, name: "right", scope: !32, file: !31, line: 244, baseType: !41, flags: DIFlagPublic | DIFlagStaticMember, extraData: i32 128)
!51 = !DIDerivedType(tag: DW_TAG_member, name: "scientific", scope: !32, file: !31, line: 245, baseType: !41, flags: DIFlagPublic | DIFlagStaticMember, extraData: i32 256)
!52 = !DIDerivedType(tag: DW_TAG_member, name: "showbase", scope: !32, file: !31, line: 246, baseType: !41, flags: DIFlagPublic | DIFlagStaticMember, extraData: i32 512)
!53 = !DIDerivedType(tag: DW_TAG_member, name: "showpoint", scope: !32, file: !31, line: 247, baseType: !41, flags: DIFlagPublic | DIFlagStaticMember, extraData: i32 1024)
!54 = !DIDerivedType(tag: DW_TAG_member, name: "showpos", scope: !32, file: !31, line: 248, baseType: !41, flags: DIFlagPublic | DIFlagStaticMember, extraData: i32 2048)
!55 = !DIDerivedType(tag: DW_TAG_member, name: "skipws", scope: !32, file: !31, line: 249, baseType: !41, flags: DIFlagPublic | DIFlagStaticMember, extraData: i32 4096)
!56 = !DIDerivedType(tag: DW_TAG_member, name: "unitbuf", scope: !32, file: !31, line: 250, baseType: !41, flags: DIFlagPublic | DIFlagStaticMember, extraData: i32 8192)
!57 = !DIDerivedType(tag: DW_TAG_member, name: "uppercase", scope: !32, file: !31, line: 251, baseType: !41, flags: DIFlagPublic | DIFlagStaticMember, extraData: i32 16384)
!58 = !DIDerivedType(tag: DW_TAG_member, name: "adjustfield", scope: !32, file: !31, line: 252, baseType: !41, flags: DIFlagPublic | DIFlagStaticMember, extraData: i32 176)
!59 = !DIDerivedType(tag: DW_TAG_member, name: "basefield", scope: !32, file: !31, line: 253, baseType: !41, flags: DIFlagPublic | DIFlagStaticMember, extraData: i32 74)
!60 = !DIDerivedType(tag: DW_TAG_member, name: "floatfield", scope: !32, file: !31, line: 254, baseType: !41, flags: DIFlagPublic | DIFlagStaticMember, extraData: i32 260)
!61 = !DIDerivedType(tag: DW_TAG_member, name: "badbit", scope: !32, file: !31, line: 257, baseType: !62, flags: DIFlagPublic | DIFlagStaticMember, extraData: i32 1)
!62 = !DIDerivedType(tag: DW_TAG_const_type, baseType: !63)
!63 = !DIDerivedType(tag: DW_TAG_typedef, name: "iostate", scope: !32, file: !31, line: 256, baseType: !43)
!64 = !DIDerivedType(tag: DW_TAG_member, name: "eofbit", scope: !32, file: !31, line: 258, baseType: !62, flags: DIFlagPublic | DIFlagStaticMember, extraData: i32 2)
!65 = !DIDerivedType(tag: DW_TAG_member, name: "failbit", scope: !32, file: !31, line: 259, baseType: !62, flags: DIFlagPublic | DIFlagStaticMember, extraData: i32 4)
!66 = !DIDerivedType(tag: DW_TAG_member, name: "goodbit", scope: !32, file: !31, line: 260, baseType: !62, flags: DIFlagPublic | DIFlagStaticMember, extraData: i32 0)
!67 = !DIDerivedType(tag: DW_TAG_member, name: "app", scope: !32, file: !31, line: 263, baseType: !68, flags: DIFlagPublic | DIFlagStaticMember, extraData: i32 1)
!68 = !DIDerivedType(tag: DW_TAG_const_type, baseType: !69)
!69 = !DIDerivedType(tag: DW_TAG_typedef, name: "openmode", scope: !32, file: !31, line: 262, baseType: !43)
!70 = !DIDerivedType(tag: DW_TAG_member, name: "ate", scope: !32, file: !31, line: 264, baseType: !68, flags: DIFlagPublic | DIFlagStaticMember, extraData: i32 2)
!71 = !DIDerivedType(tag: DW_TAG_member, name: "binary", scope: !32, file: !31, line: 265, baseType: !68, flags: DIFlagPublic | DIFlagStaticMember, extraData: i32 4)
!72 = !DIDerivedType(tag: DW_TAG_member, name: "in", scope: !32, file: !31, line: 266, baseType: !68, flags: DIFlagPublic | DIFlagStaticMember, extraData: i32 8)
!73 = !DIDerivedType(tag: DW_TAG_member, name: "out", scope: !32, file: !31, line: 267, baseType: !68, flags: DIFlagPublic | DIFlagStaticMember, extraData: i32 16)
!74 = !DIDerivedType(tag: DW_TAG_member, name: "trunc", scope: !32, file: !31, line: 268, baseType: !68, flags: DIFlagPublic | DIFlagStaticMember, extraData: i32 32)
!75 = !DIDerivedType(tag: DW_TAG_member, name: "__fmtflags_", scope: !32, file: !31, line: 362, baseType: !42, size: 32, offset: 64)
!76 = !DIDerivedType(tag: DW_TAG_member, name: "__precision_", scope: !32, file: !31, line: 363, baseType: !77, size: 64, offset: 128)
!77 = !DIDerivedType(tag: DW_TAG_typedef, name: "streamsize", scope: !7, file: !31, line: 229, baseType: !78)
!78 = !DIDerivedType(tag: DW_TAG_typedef, name: "ptrdiff_t", file: !79, line: 51, baseType: !80)
!79 = !DIFile(filename: "/Users/aser/Documents/LLVM/llvm-4.0/build/bin/../lib/clang/4.0.0/include/stddef.h", directory: "/Users/aser/Dropbox/papers/C++11/Checker11/examples/fence2")
!80 = !DIBasicType(name: "long int", size: 64, encoding: DW_ATE_signed)
!81 = !DIDerivedType(tag: DW_TAG_member, name: "__width_", scope: !32, file: !31, line: 364, baseType: !77, size: 64, offset: 192)
!82 = !DIDerivedType(tag: DW_TAG_member, name: "__rdstate_", scope: !32, file: !31, line: 365, baseType: !63, size: 32, offset: 256)
!83 = !DIDerivedType(tag: DW_TAG_member, name: "__exceptions_", scope: !32, file: !31, line: 366, baseType: !63, size: 32, offset: 288)
!84 = !DIDerivedType(tag: DW_TAG_member, name: "__rdbuf_", scope: !32, file: !31, line: 367, baseType: !85, size: 64, offset: 320)
!85 = !DIDerivedType(tag: DW_TAG_pointer_type, baseType: null, size: 64)
!86 = !DIDerivedType(tag: DW_TAG_member, name: "__loc_", scope: !32, file: !31, line: 368, baseType: !85, size: 64, offset: 384)
!87 = !DIDerivedType(tag: DW_TAG_member, name: "__fn_", scope: !32, file: !31, line: 369, baseType: !88, size: 64, offset: 448)
!88 = !DIDerivedType(tag: DW_TAG_pointer_type, baseType: !89, size: 64)
!89 = !DIDerivedType(tag: DW_TAG_typedef, name: "event_callback", scope: !32, file: !31, line: 309, baseType: !90)
!90 = !DIDerivedType(tag: DW_TAG_pointer_type, baseType: !91, size: 64)
!91 = !DISubroutineType(types: !92)
!92 = !{null, !30, !93, !39}
!93 = !DIDerivedType(tag: DW_TAG_reference_type, baseType: !32, size: 64)
!94 = !DIDerivedType(tag: DW_TAG_member, name: "__index_", scope: !32, file: !31, line: 370, baseType: !95, size: 64, offset: 512)
!95 = !DIDerivedType(tag: DW_TAG_pointer_type, baseType: !39, size: 64)
!96 = !DIDerivedType(tag: DW_TAG_member, name: "__event_size_", scope: !32, file: !31, line: 371, baseType: !97, size: 64, offset: 576)
!97 = !DIDerivedType(tag: DW_TAG_typedef, name: "size_t", file: !98, line: 30, baseType: !99)
!98 = !DIFile(filename: "/usr/include/sys/_types/_size_t.h", directory: "/Users/aser/Dropbox/papers/C++11/Checker11/examples/fence2")
!99 = !DIDerivedType(tag: DW_TAG_typedef, name: "__darwin_size_t", file: !100, line: 92, baseType: !101)
!100 = !DIFile(filename: "/usr/include/i386/_types.h", directory: "/Users/aser/Dropbox/papers/C++11/Checker11/examples/fence2")
!101 = !DIBasicType(name: "long unsigned int", size: 64, encoding: DW_ATE_unsigned)
!102 = !DIDerivedType(tag: DW_TAG_member, name: "__event_cap_", scope: !32, file: !31, line: 372, baseType: !97, size: 64, offset: 640)
!103 = !DIDerivedType(tag: DW_TAG_member, name: "__xindex_", scope: !32, file: !31, line: 376, baseType: !104, flags: DIFlagStaticMember)
!104 = distinct !DICompositeType(tag: DW_TAG_structure_type, name: "atomic<int>", scope: !7, file: !6, line: 1084, size: 32, elements: !105, templateParams: !256, identifier: "_ZTSNSt3__16atomicIiEE")
!105 = !{!106, !241, !245, !248, !253}
!106 = !DIDerivedType(tag: DW_TAG_inheritance, scope: !104, baseType: !107)
!107 = distinct !DICompositeType(tag: DW_TAG_structure_type, name: "__atomic_base<int, true>", scope: !7, file: !6, line: 1003, size: 32, elements: !108, templateParams: !239, identifier: "_ZTSNSt3__113__atomic_baseIiLb1EEE")
!108 = !{!109, !190, !194, !197, !202, !205, !206, !207, !208, !209, !210, !211, !212, !213, !216, !219, !220, !221, !224, !227, !228, !229, !230, !231, !232, !233, !234, !235, !236, !237, !238}
!109 = !DIDerivedType(tag: DW_TAG_inheritance, scope: !107, baseType: !110)
!110 = distinct !DICompositeType(tag: DW_TAG_structure_type, name: "__atomic_base<int, false>", scope: !7, file: !6, line: 891, size: 32, elements: !111, templateParams: !187, identifier: "_ZTSNSt3__113__atomic_baseIiLb0EEE")
!111 = !{!112, !114, !121, !126, !131, !135, !138, !141, !144, !147, !150, !153, !157, !160, !161, !162, !165, !168, !169, !170, !173, !176, !180, !184}
!112 = !DIDerivedType(tag: DW_TAG_member, name: "__a_", scope: !110, file: !6, line: 893, baseType: !113, size: 32)
!113 = !DIDerivedType(tag: DW_TAG_atomic_type, baseType: !39)
!114 = !DISubprogram(name: "is_lock_free", linkageName: "_ZNVKSt3__113__atomic_baseIiLb0EE12is_lock_freeEv", scope: !110, file: !6, line: 900, type: !115, isLocal: false, isDefinition: false, scopeLine: 900, flags: DIFlagPrototyped, isOptimized: true)
!115 = !DISubroutineType(types: !116)
!116 = !{!117, !118}
!117 = !DIBasicType(name: "bool", size: 8, encoding: DW_ATE_boolean)
!118 = !DIDerivedType(tag: DW_TAG_pointer_type, baseType: !119, size: 64, flags: DIFlagArtificial | DIFlagObjectPointer)
!119 = !DIDerivedType(tag: DW_TAG_const_type, baseType: !120)
!120 = !DIDerivedType(tag: DW_TAG_volatile_type, baseType: !110)
!121 = !DISubprogram(name: "is_lock_free", linkageName: "_ZNKSt3__113__atomic_baseIiLb0EE12is_lock_freeEv", scope: !110, file: !6, line: 909, type: !122, isLocal: false, isDefinition: false, scopeLine: 909, flags: DIFlagPrototyped, isOptimized: true)
!122 = !DISubroutineType(types: !123)
!123 = !{!117, !124}
!124 = !DIDerivedType(tag: DW_TAG_pointer_type, baseType: !125, size: 64, flags: DIFlagArtificial | DIFlagObjectPointer)
!125 = !DIDerivedType(tag: DW_TAG_const_type, baseType: !110)
!126 = !DISubprogram(name: "store", linkageName: "_ZNVSt3__113__atomic_baseIiLb0EE5storeEiNS_12memory_orderE", scope: !110, file: !6, line: 912, type: !127, isLocal: false, isDefinition: false, scopeLine: 912, flags: DIFlagPrototyped, isOptimized: true)
!127 = !DISubroutineType(types: !128)
!128 = !{null, !129, !39, !130}
!129 = !DIDerivedType(tag: DW_TAG_pointer_type, baseType: !120, size: 64, flags: DIFlagArtificial | DIFlagObjectPointer)
!130 = !DIDerivedType(tag: DW_TAG_typedef, name: "memory_order", scope: !7, file: !6, line: 585, baseType: !5)
!131 = !DISubprogram(name: "store", linkageName: "_ZNSt3__113__atomic_baseIiLb0EE5storeEiNS_12memory_orderE", scope: !110, file: !6, line: 916, type: !132, isLocal: false, isDefinition: false, scopeLine: 916, flags: DIFlagPrototyped, isOptimized: true)
!132 = !DISubroutineType(types: !133)
!133 = !{null, !134, !39, !130}
!134 = !DIDerivedType(tag: DW_TAG_pointer_type, baseType: !110, size: 64, flags: DIFlagArtificial | DIFlagObjectPointer)
!135 = !DISubprogram(name: "load", linkageName: "_ZNVKSt3__113__atomic_baseIiLb0EE4loadENS_12memory_orderE", scope: !110, file: !6, line: 920, type: !136, isLocal: false, isDefinition: false, scopeLine: 920, flags: DIFlagPrototyped, isOptimized: true)
!136 = !DISubroutineType(types: !137)
!137 = !{!39, !118, !130}
!138 = !DISubprogram(name: "load", linkageName: "_ZNKSt3__113__atomic_baseIiLb0EE4loadENS_12memory_orderE", scope: !110, file: !6, line: 924, type: !139, isLocal: false, isDefinition: false, scopeLine: 924, flags: DIFlagPrototyped, isOptimized: true)
!139 = !DISubroutineType(types: !140)
!140 = !{!39, !124, !130}
!141 = !DISubprogram(name: "operator int", linkageName: "_ZNVKSt3__113__atomic_baseIiLb0EEcviEv", scope: !110, file: !6, line: 928, type: !142, isLocal: false, isDefinition: false, scopeLine: 928, flags: DIFlagPrototyped, isOptimized: true)
!142 = !DISubroutineType(types: !143)
!143 = !{!39, !118}
!144 = !DISubprogram(name: "operator int", linkageName: "_ZNKSt3__113__atomic_baseIiLb0EEcviEv", scope: !110, file: !6, line: 930, type: !145, isLocal: false, isDefinition: false, scopeLine: 930, flags: DIFlagPrototyped, isOptimized: true)
!145 = !DISubroutineType(types: !146)
!146 = !{!39, !124}
!147 = !DISubprogram(name: "exchange", linkageName: "_ZNVSt3__113__atomic_baseIiLb0EE8exchangeEiNS_12memory_orderE", scope: !110, file: !6, line: 932, type: !148, isLocal: false, isDefinition: false, scopeLine: 932, flags: DIFlagPrototyped, isOptimized: true)
!148 = !DISubroutineType(types: !149)
!149 = !{!39, !129, !39, !130}
!150 = !DISubprogram(name: "exchange", linkageName: "_ZNSt3__113__atomic_baseIiLb0EE8exchangeEiNS_12memory_orderE", scope: !110, file: !6, line: 935, type: !151, isLocal: false, isDefinition: false, scopeLine: 935, flags: DIFlagPrototyped, isOptimized: true)
!151 = !DISubroutineType(types: !152)
!152 = !{!39, !134, !39, !130}
!153 = !DISubprogram(name: "compare_exchange_weak", linkageName: "_ZNVSt3__113__atomic_baseIiLb0EE21compare_exchange_weakERiiNS_12memory_orderES3_", scope: !110, file: !6, line: 938, type: !154, isLocal: false, isDefinition: false, scopeLine: 938, flags: DIFlagPrototyped, isOptimized: true)
!154 = !DISubroutineType(types: !155)
!155 = !{!117, !129, !156, !39, !130, !130}
!156 = !DIDerivedType(tag: DW_TAG_reference_type, baseType: !39, size: 64)
!157 = !DISubprogram(name: "compare_exchange_weak", linkageName: "_ZNSt3__113__atomic_baseIiLb0EE21compare_exchange_weakERiiNS_12memory_orderES3_", scope: !110, file: !6, line: 943, type: !158, isLocal: false, isDefinition: false, scopeLine: 943, flags: DIFlagPrototyped, isOptimized: true)
!158 = !DISubroutineType(types: !159)
!159 = !{!117, !134, !156, !39, !130, !130}
!160 = !DISubprogram(name: "compare_exchange_strong", linkageName: "_ZNVSt3__113__atomic_baseIiLb0EE23compare_exchange_strongERiiNS_12memory_orderES3_", scope: !110, file: !6, line: 948, type: !154, isLocal: false, isDefinition: false, scopeLine: 948, flags: DIFlagPrototyped, isOptimized: true)
!161 = !DISubprogram(name: "compare_exchange_strong", linkageName: "_ZNSt3__113__atomic_baseIiLb0EE23compare_exchange_strongERiiNS_12memory_orderES3_", scope: !110, file: !6, line: 953, type: !158, isLocal: false, isDefinition: false, scopeLine: 953, flags: DIFlagPrototyped, isOptimized: true)
!162 = !DISubprogram(name: "compare_exchange_weak", linkageName: "_ZNVSt3__113__atomic_baseIiLb0EE21compare_exchange_weakERiiNS_12memory_orderE", scope: !110, file: !6, line: 958, type: !163, isLocal: false, isDefinition: false, scopeLine: 958, flags: DIFlagPrototyped, isOptimized: true)
!163 = !DISubroutineType(types: !164)
!164 = !{!117, !129, !156, !39, !130}
!165 = !DISubprogram(name: "compare_exchange_weak", linkageName: "_ZNSt3__113__atomic_baseIiLb0EE21compare_exchange_weakERiiNS_12memory_orderE", scope: !110, file: !6, line: 962, type: !166, isLocal: false, isDefinition: false, scopeLine: 962, flags: DIFlagPrototyped, isOptimized: true)
!166 = !DISubroutineType(types: !167)
!167 = !{!117, !134, !156, !39, !130}
!168 = !DISubprogram(name: "compare_exchange_strong", linkageName: "_ZNVSt3__113__atomic_baseIiLb0EE23compare_exchange_strongERiiNS_12memory_orderE", scope: !110, file: !6, line: 966, type: !163, isLocal: false, isDefinition: false, scopeLine: 966, flags: DIFlagPrototyped, isOptimized: true)
!169 = !DISubprogram(name: "compare_exchange_strong", linkageName: "_ZNSt3__113__atomic_baseIiLb0EE23compare_exchange_strongERiiNS_12memory_orderE", scope: !110, file: !6, line: 970, type: !166, isLocal: false, isDefinition: false, scopeLine: 970, flags: DIFlagPrototyped, isOptimized: true)
!170 = !DISubprogram(name: "__atomic_base", scope: !110, file: !6, line: 976, type: !171, isLocal: false, isDefinition: false, scopeLine: 976, flags: DIFlagPrototyped, isOptimized: true)
!171 = !DISubroutineType(types: !172)
!172 = !{null, !134}
!173 = !DISubprogram(name: "__atomic_base", scope: !110, file: !6, line: 982, type: !174, isLocal: false, isDefinition: false, scopeLine: 982, flags: DIFlagPrototyped, isOptimized: true)
!174 = !DISubroutineType(types: !175)
!175 = !{null, !134, !39}
!176 = !DISubprogram(name: "__atomic_base", scope: !110, file: !6, line: 984, type: !177, isLocal: false, isDefinition: false, scopeLine: 984, flags: DIFlagPrototyped, isOptimized: true)
!177 = !DISubroutineType(types: !178)
!178 = !{null, !134, !179}
!179 = !DIDerivedType(tag: DW_TAG_reference_type, baseType: !125, size: 64)
!180 = !DISubprogram(name: "operator=", linkageName: "_ZNSt3__113__atomic_baseIiLb0EEaSERKS1_", scope: !110, file: !6, line: 985, type: !181, isLocal: false, isDefinition: false, scopeLine: 985, flags: DIFlagPrototyped, isOptimized: true)
!181 = !DISubroutineType(types: !182)
!182 = !{!183, !134, !179}
!183 = !DIDerivedType(tag: DW_TAG_reference_type, baseType: !110, size: 64)
!184 = !DISubprogram(name: "operator=", linkageName: "_ZNVSt3__113__atomic_baseIiLb0EEaSERKS1_", scope: !110, file: !6, line: 986, type: !185, isLocal: false, isDefinition: false, scopeLine: 986, flags: DIFlagPrototyped, isOptimized: true)
!185 = !DISubroutineType(types: !186)
!186 = !{!183, !129, !179}
!187 = !{!188, !189}
!188 = !DITemplateTypeParameter(name: "_Tp", type: !39)
!189 = !DITemplateValueParameter(type: !117, value: i8 0)
!190 = !DISubprogram(name: "__atomic_base", scope: !107, file: !6, line: 1008, type: !191, isLocal: false, isDefinition: false, scopeLine: 1008, flags: DIFlagPrototyped, isOptimized: true)
!191 = !DISubroutineType(types: !192)
!192 = !{null, !193}
!193 = !DIDerivedType(tag: DW_TAG_pointer_type, baseType: !107, size: 64, flags: DIFlagArtificial | DIFlagObjectPointer)
!194 = !DISubprogram(name: "__atomic_base", scope: !107, file: !6, line: 1010, type: !195, isLocal: false, isDefinition: false, scopeLine: 1010, flags: DIFlagPrototyped, isOptimized: true)
!195 = !DISubroutineType(types: !196)
!196 = !{null, !193, !39}
!197 = !DISubprogram(name: "fetch_add", linkageName: "_ZNVSt3__113__atomic_baseIiLb1EE9fetch_addEiNS_12memory_orderE", scope: !107, file: !6, line: 1013, type: !198, isLocal: false, isDefinition: false, scopeLine: 1013, flags: DIFlagPrototyped, isOptimized: true)
!198 = !DISubroutineType(types: !199)
!199 = !{!39, !200, !39, !130}
!200 = !DIDerivedType(tag: DW_TAG_pointer_type, baseType: !201, size: 64, flags: DIFlagArtificial | DIFlagObjectPointer)
!201 = !DIDerivedType(tag: DW_TAG_volatile_type, baseType: !107)
!202 = !DISubprogram(name: "fetch_add", linkageName: "_ZNSt3__113__atomic_baseIiLb1EE9fetch_addEiNS_12memory_orderE", scope: !107, file: !6, line: 1016, type: !203, isLocal: false, isDefinition: false, scopeLine: 1016, flags: DIFlagPrototyped, isOptimized: true)
!203 = !DISubroutineType(types: !204)
!204 = !{!39, !193, !39, !130}
!205 = !DISubprogram(name: "fetch_sub", linkageName: "_ZNVSt3__113__atomic_baseIiLb1EE9fetch_subEiNS_12memory_orderE", scope: !107, file: !6, line: 1019, type: !198, isLocal: false, isDefinition: false, scopeLine: 1019, flags: DIFlagPrototyped, isOptimized: true)
!206 = !DISubprogram(name: "fetch_sub", linkageName: "_ZNSt3__113__atomic_baseIiLb1EE9fetch_subEiNS_12memory_orderE", scope: !107, file: !6, line: 1022, type: !203, isLocal: false, isDefinition: false, scopeLine: 1022, flags: DIFlagPrototyped, isOptimized: true)
!207 = !DISubprogram(name: "fetch_and", linkageName: "_ZNVSt3__113__atomic_baseIiLb1EE9fetch_andEiNS_12memory_orderE", scope: !107, file: !6, line: 1025, type: !198, isLocal: false, isDefinition: false, scopeLine: 1025, flags: DIFlagPrototyped, isOptimized: true)
!208 = !DISubprogram(name: "fetch_and", linkageName: "_ZNSt3__113__atomic_baseIiLb1EE9fetch_andEiNS_12memory_orderE", scope: !107, file: !6, line: 1028, type: !203, isLocal: false, isDefinition: false, scopeLine: 1028, flags: DIFlagPrototyped, isOptimized: true)
!209 = !DISubprogram(name: "fetch_or", linkageName: "_ZNVSt3__113__atomic_baseIiLb1EE8fetch_orEiNS_12memory_orderE", scope: !107, file: !6, line: 1031, type: !198, isLocal: false, isDefinition: false, scopeLine: 1031, flags: DIFlagPrototyped, isOptimized: true)
!210 = !DISubprogram(name: "fetch_or", linkageName: "_ZNSt3__113__atomic_baseIiLb1EE8fetch_orEiNS_12memory_orderE", scope: !107, file: !6, line: 1034, type: !203, isLocal: false, isDefinition: false, scopeLine: 1034, flags: DIFlagPrototyped, isOptimized: true)
!211 = !DISubprogram(name: "fetch_xor", linkageName: "_ZNVSt3__113__atomic_baseIiLb1EE9fetch_xorEiNS_12memory_orderE", scope: !107, file: !6, line: 1037, type: !198, isLocal: false, isDefinition: false, scopeLine: 1037, flags: DIFlagPrototyped, isOptimized: true)
!212 = !DISubprogram(name: "fetch_xor", linkageName: "_ZNSt3__113__atomic_baseIiLb1EE9fetch_xorEiNS_12memory_orderE", scope: !107, file: !6, line: 1040, type: !203, isLocal: false, isDefinition: false, scopeLine: 1040, flags: DIFlagPrototyped, isOptimized: true)
!213 = !DISubprogram(name: "operator++", linkageName: "_ZNVSt3__113__atomic_baseIiLb1EEppEi", scope: !107, file: !6, line: 1044, type: !214, isLocal: false, isDefinition: false, scopeLine: 1044, flags: DIFlagPrototyped, isOptimized: true)
!214 = !DISubroutineType(types: !215)
!215 = !{!39, !200, !39}
!216 = !DISubprogram(name: "operator++", linkageName: "_ZNSt3__113__atomic_baseIiLb1EEppEi", scope: !107, file: !6, line: 1046, type: !217, isLocal: false, isDefinition: false, scopeLine: 1046, flags: DIFlagPrototyped, isOptimized: true)
!217 = !DISubroutineType(types: !218)
!218 = !{!39, !193, !39}
!219 = !DISubprogram(name: "operator--", linkageName: "_ZNVSt3__113__atomic_baseIiLb1EEmmEi", scope: !107, file: !6, line: 1048, type: !214, isLocal: false, isDefinition: false, scopeLine: 1048, flags: DIFlagPrototyped, isOptimized: true)
!220 = !DISubprogram(name: "operator--", linkageName: "_ZNSt3__113__atomic_baseIiLb1EEmmEi", scope: !107, file: !6, line: 1050, type: !217, isLocal: false, isDefinition: false, scopeLine: 1050, flags: DIFlagPrototyped, isOptimized: true)
!221 = !DISubprogram(name: "operator++", linkageName: "_ZNVSt3__113__atomic_baseIiLb1EEppEv", scope: !107, file: !6, line: 1052, type: !222, isLocal: false, isDefinition: false, scopeLine: 1052, flags: DIFlagPrototyped, isOptimized: true)
!222 = !DISubroutineType(types: !223)
!223 = !{!39, !200}
!224 = !DISubprogram(name: "operator++", linkageName: "_ZNSt3__113__atomic_baseIiLb1EEppEv", scope: !107, file: !6, line: 1054, type: !225, isLocal: false, isDefinition: false, scopeLine: 1054, flags: DIFlagPrototyped, isOptimized: true)
!225 = !DISubroutineType(types: !226)
!226 = !{!39, !193}
!227 = !DISubprogram(name: "operator--", linkageName: "_ZNVSt3__113__atomic_baseIiLb1EEmmEv", scope: !107, file: !6, line: 1056, type: !222, isLocal: false, isDefinition: false, scopeLine: 1056, flags: DIFlagPrototyped, isOptimized: true)
!228 = !DISubprogram(name: "operator--", linkageName: "_ZNSt3__113__atomic_baseIiLb1EEmmEv", scope: !107, file: !6, line: 1058, type: !225, isLocal: false, isDefinition: false, scopeLine: 1058, flags: DIFlagPrototyped, isOptimized: true)
!229 = !DISubprogram(name: "operator+=", linkageName: "_ZNVSt3__113__atomic_baseIiLb1EEpLEi", scope: !107, file: !6, line: 1060, type: !214, isLocal: false, isDefinition: false, scopeLine: 1060, flags: DIFlagPrototyped, isOptimized: true)
!230 = !DISubprogram(name: "operator+=", linkageName: "_ZNSt3__113__atomic_baseIiLb1EEpLEi", scope: !107, file: !6, line: 1062, type: !217, isLocal: false, isDefinition: false, scopeLine: 1062, flags: DIFlagPrototyped, isOptimized: true)
!231 = !DISubprogram(name: "operator-=", linkageName: "_ZNVSt3__113__atomic_baseIiLb1EEmIEi", scope: !107, file: !6, line: 1064, type: !214, isLocal: false, isDefinition: false, scopeLine: 1064, flags: DIFlagPrototyped, isOptimized: true)
!232 = !DISubprogram(name: "operator-=", linkageName: "_ZNSt3__113__atomic_baseIiLb1EEmIEi", scope: !107, file: !6, line: 1066, type: !217, isLocal: false, isDefinition: false, scopeLine: 1066, flags: DIFlagPrototyped, isOptimized: true)
!233 = !DISubprogram(name: "operator&=", linkageName: "_ZNVSt3__113__atomic_baseIiLb1EEaNEi", scope: !107, file: !6, line: 1068, type: !214, isLocal: false, isDefinition: false, scopeLine: 1068, flags: DIFlagPrototyped, isOptimized: true)
!234 = !DISubprogram(name: "operator&=", linkageName: "_ZNSt3__113__atomic_baseIiLb1EEaNEi", scope: !107, file: !6, line: 1070, type: !217, isLocal: false, isDefinition: false, scopeLine: 1070, flags: DIFlagPrototyped, isOptimized: true)
!235 = !DISubprogram(name: "operator|=", linkageName: "_ZNVSt3__113__atomic_baseIiLb1EEoREi", scope: !107, file: !6, line: 1072, type: !214, isLocal: false, isDefinition: false, scopeLine: 1072, flags: DIFlagPrototyped, isOptimized: true)
!236 = !DISubprogram(name: "operator|=", linkageName: "_ZNSt3__113__atomic_baseIiLb1EEoREi", scope: !107, file: !6, line: 1074, type: !217, isLocal: false, isDefinition: false, scopeLine: 1074, flags: DIFlagPrototyped, isOptimized: true)
!237 = !DISubprogram(name: "operator^=", linkageName: "_ZNVSt3__113__atomic_baseIiLb1EEeOEi", scope: !107, file: !6, line: 1076, type: !214, isLocal: false, isDefinition: false, scopeLine: 1076, flags: DIFlagPrototyped, isOptimized: true)
!238 = !DISubprogram(name: "operator^=", linkageName: "_ZNSt3__113__atomic_baseIiLb1EEeOEi", scope: !107, file: !6, line: 1078, type: !217, isLocal: false, isDefinition: false, scopeLine: 1078, flags: DIFlagPrototyped, isOptimized: true)
!239 = !{!188, !240}
!240 = !DITemplateValueParameter(type: !117, value: i8 1)
!241 = !DISubprogram(name: "atomic", scope: !104, file: !6, line: 1089, type: !242, isLocal: false, isDefinition: false, scopeLine: 1089, flags: DIFlagPrototyped, isOptimized: true)
!242 = !DISubroutineType(types: !243)
!243 = !{null, !244}
!244 = !DIDerivedType(tag: DW_TAG_pointer_type, baseType: !104, size: 64, flags: DIFlagArtificial | DIFlagObjectPointer)
!245 = !DISubprogram(name: "atomic", scope: !104, file: !6, line: 1091, type: !246, isLocal: false, isDefinition: false, scopeLine: 1091, flags: DIFlagPrototyped, isOptimized: true)
!246 = !DISubroutineType(types: !247)
!247 = !{null, !244, !39}
!248 = !DISubprogram(name: "operator=", linkageName: "_ZNVSt3__16atomicIiEaSEi", scope: !104, file: !6, line: 1094, type: !249, isLocal: false, isDefinition: false, scopeLine: 1094, flags: DIFlagPrototyped, isOptimized: true)
!249 = !DISubroutineType(types: !250)
!250 = !{!39, !251, !39}
!251 = !DIDerivedType(tag: DW_TAG_pointer_type, baseType: !252, size: 64, flags: DIFlagArtificial | DIFlagObjectPointer)
!252 = !DIDerivedType(tag: DW_TAG_volatile_type, baseType: !104)
!253 = !DISubprogram(name: "operator=", linkageName: "_ZNSt3__16atomicIiEaSEi", scope: !104, file: !6, line: 1097, type: !254, isLocal: false, isDefinition: false, scopeLine: 1097, flags: DIFlagPrototyped, isOptimized: true)
!254 = !DISubroutineType(types: !255)
!255 = !{!39, !244, !39}
!256 = !{!188}
!257 = !DIDerivedType(tag: DW_TAG_member, name: "__iarray_", scope: !32, file: !31, line: 380, baseType: !258, size: 64, offset: 704)
!258 = !DIDerivedType(tag: DW_TAG_pointer_type, baseType: !80, size: 64)
!259 = !DIDerivedType(tag: DW_TAG_member, name: "__iarray_size_", scope: !32, file: !31, line: 381, baseType: !97, size: 64, offset: 768)
!260 = !DIDerivedType(tag: DW_TAG_member, name: "__iarray_cap_", scope: !32, file: !31, line: 382, baseType: !97, size: 64, offset: 832)
!261 = !DIDerivedType(tag: DW_TAG_member, name: "__parray_", scope: !32, file: !31, line: 383, baseType: !262, size: 64, offset: 896)
!262 = !DIDerivedType(tag: DW_TAG_pointer_type, baseType: !85, size: 64)
!263 = !DIDerivedType(tag: DW_TAG_member, name: "__parray_size_", scope: !32, file: !31, line: 384, baseType: !97, size: 64, offset: 960)
!264 = !DIDerivedType(tag: DW_TAG_member, name: "__parray_cap_", scope: !32, file: !31, line: 385, baseType: !97, size: 64, offset: 1024)
!265 = !DISubprogram(name: "flags", linkageName: "_ZNKSt3__18ios_base5flagsEv", scope: !32, file: !31, line: 284, type: !266, isLocal: false, isDefinition: false, scopeLine: 284, flags: DIFlagPublic | DIFlagPrototyped, isOptimized: true)
!266 = !DISubroutineType(types: !267)
!267 = !{!42, !268}
!268 = !DIDerivedType(tag: DW_TAG_pointer_type, baseType: !269, size: 64, flags: DIFlagArtificial | DIFlagObjectPointer)
!269 = !DIDerivedType(tag: DW_TAG_const_type, baseType: !32)
!270 = !DISubprogram(name: "flags", linkageName: "_ZNSt3__18ios_base5flagsEj", scope: !32, file: !31, line: 285, type: !271, isLocal: false, isDefinition: false, scopeLine: 285, flags: DIFlagPublic | DIFlagPrototyped, isOptimized: true)
!271 = !DISubroutineType(types: !272)
!272 = !{!42, !273, !42}
!273 = !DIDerivedType(tag: DW_TAG_pointer_type, baseType: !32, size: 64, flags: DIFlagArtificial | DIFlagObjectPointer)
!274 = !DISubprogram(name: "setf", linkageName: "_ZNSt3__18ios_base4setfEj", scope: !32, file: !31, line: 286, type: !271, isLocal: false, isDefinition: false, scopeLine: 286, flags: DIFlagPublic | DIFlagPrototyped, isOptimized: true)
!275 = !DISubprogram(name: "setf", linkageName: "_ZNSt3__18ios_base4setfEjj", scope: !32, file: !31, line: 287, type: !276, isLocal: false, isDefinition: false, scopeLine: 287, flags: DIFlagPublic | DIFlagPrototyped, isOptimized: true)
!276 = !DISubroutineType(types: !277)
!277 = !{!42, !273, !42, !42}
!278 = !DISubprogram(name: "unsetf", linkageName: "_ZNSt3__18ios_base6unsetfEj", scope: !32, file: !31, line: 288, type: !279, isLocal: false, isDefinition: false, scopeLine: 288, flags: DIFlagPublic | DIFlagPrototyped, isOptimized: true)
!279 = !DISubroutineType(types: !280)
!280 = !{null, !273, !42}
!281 = !DISubprogram(name: "precision", linkageName: "_ZNKSt3__18ios_base9precisionEv", scope: !32, file: !31, line: 290, type: !282, isLocal: false, isDefinition: false, scopeLine: 290, flags: DIFlagPublic | DIFlagPrototyped, isOptimized: true)
!282 = !DISubroutineType(types: !283)
!283 = !{!77, !268}
!284 = !DISubprogram(name: "precision", linkageName: "_ZNSt3__18ios_base9precisionEl", scope: !32, file: !31, line: 291, type: !285, isLocal: false, isDefinition: false, scopeLine: 291, flags: DIFlagPublic | DIFlagPrototyped, isOptimized: true)
!285 = !DISubroutineType(types: !286)
!286 = !{!77, !273, !77}
!287 = !DISubprogram(name: "width", linkageName: "_ZNKSt3__18ios_base5widthEv", scope: !32, file: !31, line: 292, type: !282, isLocal: false, isDefinition: false, scopeLine: 292, flags: DIFlagPublic | DIFlagPrototyped, isOptimized: true)
!288 = !DISubprogram(name: "width", linkageName: "_ZNSt3__18ios_base5widthEl", scope: !32, file: !31, line: 293, type: !285, isLocal: false, isDefinition: false, scopeLine: 293, flags: DIFlagPublic | DIFlagPrototyped, isOptimized: true)
!289 = !DISubprogram(name: "imbue", linkageName: "_ZNSt3__18ios_base5imbueERKNS_6localeE", scope: !32, file: !31, line: 296, type: !290, isLocal: false, isDefinition: false, scopeLine: 296, flags: DIFlagPublic | DIFlagPrototyped, isOptimized: true)
!290 = !DISubroutineType(types: !291)
!291 = !{!292, !273, !315}
!292 = distinct !DICompositeType(tag: DW_TAG_class_type, name: "locale", scope: !7, file: !293, line: 83, size: 64, elements: !294, identifier: "_ZTSNSt3__16localeE")
!293 = !DIFile(filename: "/Users/aser/Documents/LLVM/llvm-4.0/build/bin/../include/c++/v1/__locale", directory: "/Users/aser/Dropbox/papers/C++11/Checker11/examples/fence2")
!294 = !{!295, !298, !299, !300, !301, !302, !303, !304, !305, !308, !312, !317, !323, !1216, !1219, !1222, !1225, !1226, !1229, !1233, !1236, !1237, !1240, !1243, !1287, !1291, !1333}
!295 = !DIDerivedType(tag: DW_TAG_member, name: "none", scope: !292, file: !293, line: 93, baseType: !296, flags: DIFlagPublic | DIFlagStaticMember, extraData: i32 0)
!296 = !DIDerivedType(tag: DW_TAG_const_type, baseType: !297)
!297 = !DIDerivedType(tag: DW_TAG_typedef, name: "category", scope: !292, file: !293, line: 90, baseType: !39)
!298 = !DIDerivedType(tag: DW_TAG_member, name: "collate", scope: !292, file: !293, line: 94, baseType: !296, flags: DIFlagPublic | DIFlagStaticMember, extraData: i32 1)
!299 = !DIDerivedType(tag: DW_TAG_member, name: "ctype", scope: !292, file: !293, line: 95, baseType: !296, flags: DIFlagPublic | DIFlagStaticMember, extraData: i32 2)
!300 = !DIDerivedType(tag: DW_TAG_member, name: "monetary", scope: !292, file: !293, line: 96, baseType: !296, flags: DIFlagPublic | DIFlagStaticMember, extraData: i32 8)
!301 = !DIDerivedType(tag: DW_TAG_member, name: "numeric", scope: !292, file: !293, line: 97, baseType: !296, flags: DIFlagPublic | DIFlagStaticMember, extraData: i32 16)
!302 = !DIDerivedType(tag: DW_TAG_member, name: "time", scope: !292, file: !293, line: 98, baseType: !296, flags: DIFlagPublic | DIFlagStaticMember, extraData: i32 32)
!303 = !DIDerivedType(tag: DW_TAG_member, name: "messages", scope: !292, file: !293, line: 99, baseType: !296, flags: DIFlagPublic | DIFlagStaticMember, extraData: i32 4)
!304 = !DIDerivedType(tag: DW_TAG_member, name: "all", scope: !292, file: !293, line: 100, baseType: !296, flags: DIFlagPublic | DIFlagStaticMember, extraData: i32 63)
!305 = !DIDerivedType(tag: DW_TAG_member, name: "__locale_", scope: !292, file: !293, line: 136, baseType: !306, size: 64)
!306 = !DIDerivedType(tag: DW_TAG_pointer_type, baseType: !307, size: 64)
!307 = distinct !DICompositeType(tag: DW_TAG_class_type, name: "__imp", scope: !292, file: !293, line: 135, flags: DIFlagFwdDecl, identifier: "_ZTSNSt3__16locale5__impE")
!308 = !DISubprogram(name: "locale", scope: !292, file: !293, line: 103, type: !309, isLocal: false, isDefinition: false, scopeLine: 103, flags: DIFlagPublic | DIFlagPrototyped, isOptimized: true)
!309 = !DISubroutineType(types: !310)
!310 = !{null, !311}
!311 = !DIDerivedType(tag: DW_TAG_pointer_type, baseType: !292, size: 64, flags: DIFlagArtificial | DIFlagObjectPointer)
!312 = !DISubprogram(name: "locale", scope: !292, file: !293, line: 104, type: !313, isLocal: false, isDefinition: false, scopeLine: 104, flags: DIFlagPublic | DIFlagPrototyped, isOptimized: true)
!313 = !DISubroutineType(types: !314)
!314 = !{null, !311, !315}
!315 = !DIDerivedType(tag: DW_TAG_reference_type, baseType: !316, size: 64)
!316 = !DIDerivedType(tag: DW_TAG_const_type, baseType: !292)
!317 = !DISubprogram(name: "locale", scope: !292, file: !293, line: 105, type: !318, isLocal: false, isDefinition: false, scopeLine: 105, flags: DIFlagPublic | DIFlagExplicit | DIFlagPrototyped, isOptimized: true)
!318 = !DISubroutineType(types: !319)
!319 = !{null, !311, !320}
!320 = !DIDerivedType(tag: DW_TAG_pointer_type, baseType: !321, size: 64)
!321 = !DIDerivedType(tag: DW_TAG_const_type, baseType: !322)
!322 = !DIBasicType(name: "char", size: 8, encoding: DW_ATE_signed_char)
!323 = !DISubprogram(name: "locale", scope: !292, file: !293, line: 106, type: !324, isLocal: false, isDefinition: false, scopeLine: 106, flags: DIFlagPublic | DIFlagExplicit | DIFlagPrototyped, isOptimized: true)
!324 = !DISubroutineType(types: !325)
!325 = !{null, !311, !326}
!326 = !DIDerivedType(tag: DW_TAG_reference_type, baseType: !327, size: 64)
!327 = !DIDerivedType(tag: DW_TAG_const_type, baseType: !328)
!328 = !DIDerivedType(tag: DW_TAG_typedef, name: "string", scope: !7, file: !329, line: 194, baseType: !330)
!329 = !DIFile(filename: "/Users/aser/Documents/LLVM/llvm-4.0/build/bin/../include/c++/v1/iosfwd", directory: "/Users/aser/Dropbox/papers/C++11/Checker11/examples/fence2")
!330 = distinct !DICompositeType(tag: DW_TAG_class_type, name: "basic_string<char, std::__1::char_traits<char>, std::__1::allocator<char> >", scope: !7, file: !331, line: 4038, size: 192, elements: !332, templateParams: !1214, identifier: "_ZTSNSt3__112basic_stringIcNS_11char_traitsIcEENS_9allocatorIcEEEE")
!331 = !DIFile(filename: "/Users/aser/Documents/LLVM/llvm-4.0/build/bin/../include/c++/v1/string", directory: "/Users/aser/Dropbox/papers/C++11/Checker11/examples/fence2")
!332 = !{!333, !343, !599, !601, !605, !611, !616, !619, !623, !626, !629, !632, !635, !638, !641, !644, !647, !650, !838, !841, !867, !870, !871, !875, !879, !882, !885, !890, !893, !898, !903, !904, !905, !910, !915, !916, !917, !918, !919, !920, !921, !924, !925, !926, !927, !930, !933, !934, !935, !936, !939, !944, !949, !950, !951, !952, !955, !956, !957, !958, !959, !960, !963, !966, !967, !970, !971, !974, !975, !978, !981, !982, !983, !984, !985, !986, !987, !988, !989, !990, !991, !994, !997, !1000, !1003, !1006, !1009, !1012, !1015, !1018, !1021, !1024, !1027, !1030, !1033, !1036, !1039, !1042, !1045, !1048, !1051, !1054, !1057, !1060, !1063, !1067, !1070, !1073, !1076, !1077, !1080, !1083, !1086, !1089, !1092, !1095, !1096, !1097, !1098, !1099, !1100, !1101, !1102, !1103, !1104, !1105, !1106, !1107, !1108, !1109, !1110, !1111, !1112, !1113, !1114, !1115, !1116, !1117, !1118, !1119, !1120, !1123, !1126, !1129, !1132, !1135, !1138, !1141, !1144, !1145, !1146, !1150, !1153, !1154, !1155, !1156, !1157, !1158, !1159, !1160, !1163, !1166, !1174, !1175, !1176, !1177, !1178, !1179, !1182, !1185, !1188, !1189, !1192, !1195, !1196, !1197, !1200, !1203, !1206, !1209, !1210, !1211, !1212, !1213}
!333 = !DIDerivedType(tag: DW_TAG_inheritance, scope: !330, baseType: !334)
!334 = distinct !DICompositeType(tag: DW_TAG_class_type, name: "__basic_string_common<true>", scope: !7, file: !331, line: 583, size: 8, elements: !335, templateParams: !342, identifier: "_ZTSNSt3__121__basic_string_commonILb1EEE")
!335 = !{!336, !341}
!336 = !DISubprogram(name: "__throw_length_error", linkageName: "_ZNKSt3__121__basic_string_commonILb1EE20__throw_length_errorEv", scope: !334, file: !331, line: 561, type: !337, isLocal: false, isDefinition: false, scopeLine: 561, flags: DIFlagProtected | DIFlagPrototyped, isOptimized: true)
!337 = !DISubroutineType(types: !338)
!338 = !{null, !339}
!339 = !DIDerivedType(tag: DW_TAG_pointer_type, baseType: !340, size: 64, flags: DIFlagArtificial | DIFlagObjectPointer)
!340 = !DIDerivedType(tag: DW_TAG_const_type, baseType: !334)
!341 = !DISubprogram(name: "__throw_out_of_range", linkageName: "_ZNKSt3__121__basic_string_commonILb1EE20__throw_out_of_rangeEv", scope: !334, file: !331, line: 562, type: !337, isLocal: false, isDefinition: false, scopeLine: 562, flags: DIFlagProtected | DIFlagPrototyped, isOptimized: true)
!342 = !{!240}
!343 = !DIDerivedType(tag: DW_TAG_member, name: "__r_", scope: !330, file: !331, line: 748, baseType: !344, size: 192)
!344 = distinct !DICompositeType(tag: DW_TAG_class_type, name: "__compressed_pair<std::__1::basic_string<char, std::__1::char_traits<char>, std::__1::allocator<char> >::__rep, std::__1::allocator<char> >", scope: !7, file: !345, line: 2144, size: 192, elements: !346, templateParams: !596, identifier: "_ZTSNSt3__117__compressed_pairINS_12basic_stringIcNS_11char_traitsIcEENS_9allocatorIcEEE5__repES5_EE")
!345 = !DIFile(filename: "/Users/aser/Documents/LLVM/llvm-4.0/build/bin/../include/c++/v1/memory", directory: "/Users/aser/Dropbox/papers/C++11/Checker11/examples/fence2")
!346 = !{!347, !553, !577, !581, !586, !589, !592}
!347 = !DIDerivedType(tag: DW_TAG_inheritance, scope: !344, baseType: !348)
!348 = distinct !DICompositeType(tag: DW_TAG_structure_type, name: "__compressed_pair_elem<std::__1::basic_string<char, std::__1::char_traits<char>, std::__1::allocator<char> >::__rep, 0, false>", scope: !7, file: !345, line: 2076, size: 192, elements: !349, templateParams: !549, identifier: "_ZTSNSt3__122__compressed_pair_elemINS_12basic_stringIcNS_11char_traitsIcEENS_9allocatorIcEEE5__repELi0ELb0EEE")
!349 = !{!350, !532, !536, !541}
!350 = !DIDerivedType(tag: DW_TAG_member, name: "__value_", scope: !348, file: !345, line: 2105, baseType: !351, size: 192, flags: DIFlagPrivate)
!351 = distinct !DICompositeType(tag: DW_TAG_structure_type, name: "__rep", scope: !330, file: !331, line: 738, size: 192, elements: !352, identifier: "_ZTSNSt3__112basic_stringIcNS_11char_traitsIcEENS_9allocatorIcEEE5__repE")
!352 = !{!353}
!353 = !DIDerivedType(tag: DW_TAG_member, scope: !351, file: !331, line: 740, baseType: !354, size: 192)
!354 = distinct !DICompositeType(tag: DW_TAG_union_type, scope: !351, file: !331, line: 740, size: 192, elements: !355, identifier: "_ZTSNSt3__112basic_stringIcNS_11char_traitsIcEENS_9allocatorIcEEE5__repUt_E")
!355 = !{!356, !511, !525}
!356 = !DIDerivedType(tag: DW_TAG_member, name: "__l", scope: !354, file: !331, line: 742, baseType: !357, size: 192)
!357 = distinct !DICompositeType(tag: DW_TAG_structure_type, name: "__long", scope: !330, file: !331, line: 699, size: 192, elements: !358, identifier: "_ZTSNSt3__112basic_stringIcNS_11char_traitsIcEENS_9allocatorIcEEE6__longE")
!358 = !{!359, !508, !509}
!359 = !DIDerivedType(tag: DW_TAG_member, name: "__cap_", scope: !357, file: !331, line: 701, baseType: !360, size: 64)
!360 = !DIDerivedType(tag: DW_TAG_typedef, name: "size_type", scope: !330, file: !331, line: 643, baseType: !361)
!361 = !DIDerivedType(tag: DW_TAG_typedef, name: "size_type", scope: !362, file: !345, line: 1517, baseType: !503)
!362 = distinct !DICompositeType(tag: DW_TAG_structure_type, name: "allocator_traits<std::__1::allocator<char> >", scope: !7, file: !345, line: 1506, size: 8, elements: !363, templateParams: !502, identifier: "_ZTSNSt3__116allocator_traitsINS_9allocatorIcEEEE")
!363 = !{!364, !421, !447, !450, !455, !458, !475, !490, !493, !496, !499}
!364 = !DISubprogram(name: "allocate", linkageName: "_ZNSt3__116allocator_traitsINS_9allocatorIcEEE8allocateERS2_m", scope: !362, file: !345, line: 1540, type: !365, isLocal: false, isDefinition: false, scopeLine: 1540, flags: DIFlagPrototyped, isOptimized: true)
!365 = !DISubroutineType(types: !366)
!366 = !{!367, !419, !361}
!367 = !DIDerivedType(tag: DW_TAG_typedef, name: "pointer", scope: !362, file: !345, line: 1511, baseType: !368)
!368 = !DIDerivedType(tag: DW_TAG_typedef, name: "type", scope: !369, file: !345, line: 1031, baseType: !415)
!369 = distinct !DICompositeType(tag: DW_TAG_structure_type, name: "__pointer_type<char, std::__1::allocator<char> >", scope: !7, file: !345, line: 1029, size: 8, elements: !370, templateParams: !371, identifier: "_ZTSNSt3__114__pointer_typeIcNS_9allocatorIcEEEE")
!370 = !{}
!371 = !{!372, !373}
!372 = !DITemplateTypeParameter(name: "_Tp", type: !322)
!373 = !DITemplateTypeParameter(name: "_Dp", type: !374)
!374 = distinct !DICompositeType(tag: DW_TAG_class_type, name: "allocator<char>", scope: !7, file: !345, line: 1759, size: 8, elements: !375, templateParams: !414, identifier: "_ZTSNSt3__19allocatorIcEE")
!375 = !{!376, !380, !389, !395, !405, !408, !411}
!376 = !DISubprogram(name: "allocator", scope: !374, file: !345, line: 1775, type: !377, isLocal: false, isDefinition: false, scopeLine: 1775, flags: DIFlagPublic | DIFlagPrototyped, isOptimized: true)
!377 = !DISubroutineType(types: !378)
!378 = !{null, !379}
!379 = !DIDerivedType(tag: DW_TAG_pointer_type, baseType: !374, size: 64, flags: DIFlagArtificial | DIFlagObjectPointer)
!380 = !DISubprogram(name: "address", linkageName: "_ZNKSt3__19allocatorIcE7addressERc", scope: !374, file: !345, line: 1777, type: !381, isLocal: false, isDefinition: false, scopeLine: 1777, flags: DIFlagPublic | DIFlagPrototyped, isOptimized: true)
!381 = !DISubroutineType(types: !382)
!382 = !{!383, !385, !387}
!383 = !DIDerivedType(tag: DW_TAG_typedef, name: "pointer", scope: !374, file: !345, line: 1764, baseType: !384)
!384 = !DIDerivedType(tag: DW_TAG_pointer_type, baseType: !322, size: 64)
!385 = !DIDerivedType(tag: DW_TAG_pointer_type, baseType: !386, size: 64, flags: DIFlagArtificial | DIFlagObjectPointer)
!386 = !DIDerivedType(tag: DW_TAG_const_type, baseType: !374)
!387 = !DIDerivedType(tag: DW_TAG_typedef, name: "reference", scope: !374, file: !345, line: 1766, baseType: !388)
!388 = !DIDerivedType(tag: DW_TAG_reference_type, baseType: !322, size: 64)
!389 = !DISubprogram(name: "address", linkageName: "_ZNKSt3__19allocatorIcE7addressERKc", scope: !374, file: !345, line: 1779, type: !390, isLocal: false, isDefinition: false, scopeLine: 1779, flags: DIFlagPublic | DIFlagPrototyped, isOptimized: true)
!390 = !DISubroutineType(types: !391)
!391 = !{!392, !385, !393}
!392 = !DIDerivedType(tag: DW_TAG_typedef, name: "const_pointer", scope: !374, file: !345, line: 1765, baseType: !320)
!393 = !DIDerivedType(tag: DW_TAG_typedef, name: "const_reference", scope: !374, file: !345, line: 1767, baseType: !394)
!394 = !DIDerivedType(tag: DW_TAG_reference_type, baseType: !321, size: 64)
!395 = !DISubprogram(name: "allocate", linkageName: "_ZNSt3__19allocatorIcE8allocateEmPKv", scope: !374, file: !345, line: 1781, type: !396, isLocal: false, isDefinition: false, scopeLine: 1781, flags: DIFlagPublic | DIFlagPrototyped, isOptimized: true)
!396 = !DISubroutineType(types: !397)
!397 = !{!383, !379, !398, !399}
!398 = !DIDerivedType(tag: DW_TAG_typedef, name: "size_type", file: !345, line: 1762, baseType: !97)
!399 = !DIDerivedType(tag: DW_TAG_typedef, name: "const_pointer", scope: !400, file: !345, line: 702, baseType: !403)
!400 = distinct !DICompositeType(tag: DW_TAG_class_type, name: "allocator<void>", scope: !7, file: !345, line: 698, size: 8, elements: !370, templateParams: !401, identifier: "_ZTSNSt3__19allocatorIvEE")
!401 = !{!402}
!402 = !DITemplateTypeParameter(name: "_Tp", type: null)
!403 = !DIDerivedType(tag: DW_TAG_pointer_type, baseType: !404, size: 64)
!404 = !DIDerivedType(tag: DW_TAG_const_type, baseType: null)
!405 = !DISubprogram(name: "deallocate", linkageName: "_ZNSt3__19allocatorIcE10deallocateEPcm", scope: !374, file: !345, line: 1788, type: !406, isLocal: false, isDefinition: false, scopeLine: 1788, flags: DIFlagPublic | DIFlagPrototyped, isOptimized: true)
!406 = !DISubroutineType(types: !407)
!407 = !{null, !379, !383, !398}
!408 = !DISubprogram(name: "max_size", linkageName: "_ZNKSt3__19allocatorIcE8max_sizeEv", scope: !374, file: !345, line: 1790, type: !409, isLocal: false, isDefinition: false, scopeLine: 1790, flags: DIFlagPublic | DIFlagPrototyped, isOptimized: true)
!409 = !DISubroutineType(types: !410)
!410 = !{!398, !385}
!411 = !DISubprogram(name: "destroy", linkageName: "_ZNSt3__19allocatorIcE7destroyEPc", scope: !374, file: !345, line: 1853, type: !412, isLocal: false, isDefinition: false, scopeLine: 1853, flags: DIFlagPublic | DIFlagPrototyped, isOptimized: true)
!412 = !DISubroutineType(types: !413)
!413 = !{null, !379, !383}
!414 = !{!372}
!415 = !DIDerivedType(tag: DW_TAG_typedef, name: "type", scope: !416, file: !345, line: 1017, baseType: !383)
!416 = distinct !DICompositeType(tag: DW_TAG_structure_type, name: "__pointer_type<char, std::__1::allocator<char>, true>", scope: !417, file: !345, line: 1015, size: 8, elements: !370, templateParams: !418, identifier: "_ZTSNSt3__118__pointer_type_imp14__pointer_typeIcNS_9allocatorIcEELb1EEE")
!417 = !DINamespace(name: "__pointer_type_imp", scope: !7, file: !345, line: 1011)
!418 = !{!372, !373, !240}
!419 = !DIDerivedType(tag: DW_TAG_reference_type, baseType: !420, size: 64)
!420 = !DIDerivedType(tag: DW_TAG_typedef, name: "allocator_type", scope: !362, file: !345, line: 1508, baseType: !374)
!421 = !DISubprogram(name: "allocate", linkageName: "_ZNSt3__116allocator_traitsINS_9allocatorIcEEE8allocateERS2_mPKv", scope: !362, file: !345, line: 1543, type: !422, isLocal: false, isDefinition: false, scopeLine: 1543, flags: DIFlagPrototyped, isOptimized: true)
!422 = !DISubroutineType(types: !423)
!423 = !{!367, !419, !361, !424}
!424 = !DIDerivedType(tag: DW_TAG_typedef, name: "const_void_pointer", scope: !362, file: !345, line: 1514, baseType: !425)
!425 = !DIDerivedType(tag: DW_TAG_typedef, name: "type", scope: !426, file: !345, line: 1109, baseType: !430)
!426 = distinct !DICompositeType(tag: DW_TAG_structure_type, name: "__const_void_pointer<char *, std::__1::allocator<char>, false>", scope: !7, file: !345, line: 1106, size: 8, elements: !370, templateParams: !427, identifier: "_ZTSNSt3__120__const_void_pointerIPcNS_9allocatorIcEELb0EEE")
!427 = !{!428, !429, !189}
!428 = !DITemplateTypeParameter(name: "_Ptr", type: !384)
!429 = !DITemplateTypeParameter(name: "_Alloc", type: !374)
!430 = !DIDerivedType(tag: DW_TAG_typedef, name: "rebind<const void>", scope: !431, file: !345, line: 974, baseType: !403)
!431 = distinct !DICompositeType(tag: DW_TAG_structure_type, name: "pointer_traits<char *>", scope: !7, file: !345, line: 967, size: 8, elements: !432, templateParams: !446, identifier: "_ZTSNSt3__114pointer_traitsIPcEE")
!432 = !{!433}
!433 = !DISubprogram(name: "pointer_to", linkageName: "_ZNSt3__114pointer_traitsIPcE10pointer_toERc", scope: !431, file: !345, line: 983, type: !434, isLocal: false, isDefinition: false, scopeLine: 983, flags: DIFlagPrototyped, isOptimized: true)
!434 = !DISubroutineType(types: !435)
!435 = !{!436, !437}
!436 = !DIDerivedType(tag: DW_TAG_typedef, name: "pointer", scope: !431, file: !345, line: 969, baseType: !384)
!437 = !DIDerivedType(tag: DW_TAG_reference_type, baseType: !438, size: 64)
!438 = !DIDerivedType(tag: DW_TAG_typedef, name: "type", scope: !440, file: !439, line: 414, baseType: !322)
!439 = !DIFile(filename: "/Users/aser/Documents/LLVM/llvm-4.0/build/bin/../include/c++/v1/type_traits", directory: "/Users/aser/Dropbox/papers/C++11/Checker11/examples/fence2")
!440 = distinct !DICompositeType(tag: DW_TAG_structure_type, name: "conditional<false, std::__1::pointer_traits<char *>::__nat, char>", scope: !7, file: !439, line: 414, size: 8, elements: !370, templateParams: !441, identifier: "_ZTSNSt3__111conditionalILb0ENS_14pointer_traitsIPcE5__natEcEE")
!441 = !{!442, !443, !445}
!442 = !DITemplateValueParameter(name: "_Bp", type: !117, value: i8 0)
!443 = !DITemplateTypeParameter(name: "_If", type: !444)
!444 = distinct !DICompositeType(tag: DW_TAG_structure_type, name: "__nat", scope: !431, file: !345, line: 980, flags: DIFlagFwdDecl, identifier: "_ZTSNSt3__114pointer_traitsIPcE5__natE")
!445 = !DITemplateTypeParameter(name: "_Then", type: !322)
!446 = !{!428}
!447 = !DISubprogram(name: "deallocate", linkageName: "_ZNSt3__116allocator_traitsINS_9allocatorIcEEE10deallocateERS2_Pcm", scope: !362, file: !345, line: 1548, type: !448, isLocal: false, isDefinition: false, scopeLine: 1548, flags: DIFlagPrototyped, isOptimized: true)
!448 = !DISubroutineType(types: !449)
!449 = !{null, !419, !367, !361}
!450 = !DISubprogram(name: "max_size", linkageName: "_ZNSt3__116allocator_traitsINS_9allocatorIcEEE8max_sizeERKS2_", scope: !362, file: !345, line: 1592, type: !451, isLocal: false, isDefinition: false, scopeLine: 1592, flags: DIFlagPrototyped, isOptimized: true)
!451 = !DISubroutineType(types: !452)
!452 = !{!361, !453}
!453 = !DIDerivedType(tag: DW_TAG_reference_type, baseType: !454, size: 64)
!454 = !DIDerivedType(tag: DW_TAG_const_type, baseType: !420)
!455 = !DISubprogram(name: "select_on_container_copy_construction", linkageName: "_ZNSt3__116allocator_traitsINS_9allocatorIcEEE37select_on_container_copy_constructionERKS2_", scope: !362, file: !345, line: 1597, type: !456, isLocal: false, isDefinition: false, scopeLine: 1597, flags: DIFlagPrototyped, isOptimized: true)
!456 = !DISubroutineType(types: !457)
!457 = !{!420, !453}
!458 = !DISubprogram(name: "allocate", linkageName: "_ZNSt3__116allocator_traitsINS_9allocatorIcEEE8allocateERS2_mPKvNS_17integral_constantIbLb1EEE", scope: !362, file: !345, line: 1697, type: !459, isLocal: false, isDefinition: false, scopeLine: 1697, flags: DIFlagPrivate | DIFlagPrototyped, isOptimized: true)
!459 = !DISubroutineType(types: !460)
!460 = !{!367, !419, !361, !424, !461}
!461 = !DIDerivedType(tag: DW_TAG_typedef, name: "true_type", scope: !7, file: !439, line: 528, baseType: !462)
!462 = distinct !DICompositeType(tag: DW_TAG_structure_type, name: "integral_constant<bool, true>", scope: !7, file: !439, line: 504, size: 8, elements: !463, templateParams: !472, identifier: "_ZTSNSt3__117integral_constantIbLb1EEE")
!463 = !{!464, !466}
!464 = !DIDerivedType(tag: DW_TAG_member, name: "value", scope: !462, file: !439, line: 506, baseType: !465, flags: DIFlagStaticMember, extraData: i1 true)
!465 = !DIDerivedType(tag: DW_TAG_const_type, baseType: !117)
!466 = !DISubprogram(name: "operator bool", linkageName: "_ZNKSt3__117integral_constantIbLb1EEcvbEv", scope: !462, file: !439, line: 510, type: !467, isLocal: false, isDefinition: false, scopeLine: 510, flags: DIFlagPrototyped, isOptimized: true)
!467 = !DISubroutineType(types: !468)
!468 = !{!469, !470}
!469 = !DIDerivedType(tag: DW_TAG_typedef, name: "value_type", scope: !462, file: !439, line: 507, baseType: !117)
!470 = !DIDerivedType(tag: DW_TAG_pointer_type, baseType: !471, size: 64, flags: DIFlagArtificial | DIFlagObjectPointer)
!471 = !DIDerivedType(tag: DW_TAG_const_type, baseType: !462)
!472 = !{!473, !474}
!473 = !DITemplateTypeParameter(name: "_Tp", type: !117)
!474 = !DITemplateValueParameter(name: "__v", type: !117, value: i8 1)
!475 = !DISubprogram(name: "allocate", linkageName: "_ZNSt3__116allocator_traitsINS_9allocatorIcEEE8allocateERS2_mPKvNS_17integral_constantIbLb0EEE", scope: !362, file: !345, line: 1701, type: !476, isLocal: false, isDefinition: false, scopeLine: 1701, flags: DIFlagPrivate | DIFlagPrototyped, isOptimized: true)
!476 = !DISubroutineType(types: !477)
!477 = !{!367, !419, !361, !424, !478}
!478 = !DIDerivedType(tag: DW_TAG_typedef, name: "false_type", scope: !7, file: !439, line: 529, baseType: !479)
!479 = distinct !DICompositeType(tag: DW_TAG_structure_type, name: "integral_constant<bool, false>", scope: !7, file: !439, line: 504, size: 8, elements: !480, templateParams: !488, identifier: "_ZTSNSt3__117integral_constantIbLb0EEE")
!480 = !{!481, !482}
!481 = !DIDerivedType(tag: DW_TAG_member, name: "value", scope: !479, file: !439, line: 506, baseType: !465, flags: DIFlagStaticMember, extraData: i1 false)
!482 = !DISubprogram(name: "operator bool", linkageName: "_ZNKSt3__117integral_constantIbLb0EEcvbEv", scope: !479, file: !439, line: 510, type: !483, isLocal: false, isDefinition: false, scopeLine: 510, flags: DIFlagPrototyped, isOptimized: true)
!483 = !DISubroutineType(types: !484)
!484 = !{!485, !486}
!485 = !DIDerivedType(tag: DW_TAG_typedef, name: "value_type", scope: !479, file: !439, line: 507, baseType: !117)
!486 = !DIDerivedType(tag: DW_TAG_pointer_type, baseType: !487, size: 64, flags: DIFlagArtificial | DIFlagObjectPointer)
!487 = !DIDerivedType(tag: DW_TAG_const_type, baseType: !479)
!488 = !{!473, !489}
!489 = !DITemplateValueParameter(name: "__v", type: !117, value: i8 0)
!490 = !DISubprogram(name: "__max_size", linkageName: "_ZNSt3__116allocator_traitsINS_9allocatorIcEEE10__max_sizeENS_17integral_constantIbLb1EEERKS2_", scope: !362, file: !345, line: 1730, type: !491, isLocal: false, isDefinition: false, scopeLine: 1730, flags: DIFlagPrivate | DIFlagPrototyped, isOptimized: true)
!491 = !DISubroutineType(types: !492)
!492 = !{!361, !461, !453}
!493 = !DISubprogram(name: "__max_size", linkageName: "_ZNSt3__116allocator_traitsINS_9allocatorIcEEE10__max_sizeENS_17integral_constantIbLb0EEERKS2_", scope: !362, file: !345, line: 1733, type: !494, isLocal: false, isDefinition: false, scopeLine: 1733, flags: DIFlagPrivate | DIFlagPrototyped, isOptimized: true)
!494 = !DISubroutineType(types: !495)
!495 = !{!361, !478, !453}
!496 = !DISubprogram(name: "select_on_container_copy_construction", linkageName: "_ZNSt3__116allocator_traitsINS_9allocatorIcEEE37select_on_container_copy_constructionENS_17integral_constantIbLb1EEERKS2_", scope: !362, file: !345, line: 1738, type: !497, isLocal: false, isDefinition: false, scopeLine: 1738, flags: DIFlagPrivate | DIFlagPrototyped, isOptimized: true)
!497 = !DISubroutineType(types: !498)
!498 = !{!420, !461, !453}
!499 = !DISubprogram(name: "select_on_container_copy_construction", linkageName: "_ZNSt3__116allocator_traitsINS_9allocatorIcEEE37select_on_container_copy_constructionENS_17integral_constantIbLb0EEERKS2_", scope: !362, file: !345, line: 1742, type: !500, isLocal: false, isDefinition: false, scopeLine: 1742, flags: DIFlagPrivate | DIFlagPrototyped, isOptimized: true)
!500 = !DISubroutineType(types: !501)
!501 = !{!420, !478, !453}
!502 = !{!429}
!503 = !DIDerivedType(tag: DW_TAG_typedef, name: "type", scope: !504, file: !345, line: 1151, baseType: !507)
!504 = distinct !DICompositeType(tag: DW_TAG_structure_type, name: "__size_type<std::__1::allocator<char>, long, true>", scope: !7, file: !345, line: 1149, size: 8, elements: !370, templateParams: !505, identifier: "_ZTSNSt3__111__size_typeINS_9allocatorIcEElLb1EEE")
!505 = !{!429, !506, !240}
!506 = !DITemplateTypeParameter(name: "_DiffType", type: !80)
!507 = !DIDerivedType(tag: DW_TAG_typedef, name: "size_type", scope: !374, file: !345, line: 1762, baseType: !97)
!508 = !DIDerivedType(tag: DW_TAG_member, name: "__size_", scope: !357, file: !331, line: 702, baseType: !360, size: 64, offset: 64)
!509 = !DIDerivedType(tag: DW_TAG_member, name: "__data_", scope: !357, file: !331, line: 703, baseType: !510, size: 64, offset: 128)
!510 = !DIDerivedType(tag: DW_TAG_typedef, name: "pointer", scope: !330, file: !331, line: 647, baseType: !367)
!511 = !DIDerivedType(tag: DW_TAG_member, name: "__s", scope: !354, file: !331, line: 743, baseType: !512, size: 192)
!512 = distinct !DICompositeType(tag: DW_TAG_structure_type, name: "__short", scope: !330, file: !331, line: 717, size: 192, elements: !513, identifier: "_ZTSNSt3__112basic_stringIcNS_11char_traitsIcEENS_9allocatorIcEEE7__shortE")
!513 = !{!514, !521}
!514 = !DIDerivedType(tag: DW_TAG_member, scope: !512, file: !331, line: 719, baseType: !515, size: 8)
!515 = distinct !DICompositeType(tag: DW_TAG_union_type, scope: !512, file: !331, line: 719, size: 8, elements: !516, identifier: "_ZTSNSt3__112basic_stringIcNS_11char_traitsIcEENS_9allocatorIcEEE7__shortUt_E")
!516 = !{!517, !519}
!517 = !DIDerivedType(tag: DW_TAG_member, name: "__size_", scope: !515, file: !331, line: 721, baseType: !518, size: 8)
!518 = !DIBasicType(name: "unsigned char", size: 8, encoding: DW_ATE_unsigned_char)
!519 = !DIDerivedType(tag: DW_TAG_member, name: "__lx", scope: !515, file: !331, line: 722, baseType: !520, size: 8)
!520 = !DIDerivedType(tag: DW_TAG_typedef, name: "value_type", scope: !330, file: !331, line: 640, baseType: !322)
!521 = !DIDerivedType(tag: DW_TAG_member, name: "__data_", scope: !512, file: !331, line: 724, baseType: !522, size: 184, offset: 8)
!522 = !DICompositeType(tag: DW_TAG_array_type, baseType: !520, size: 184, elements: !523)
!523 = !{!524}
!524 = !DISubrange(count: 23)
!525 = !DIDerivedType(tag: DW_TAG_member, name: "__r", scope: !354, file: !331, line: 744, baseType: !526, size: 192)
!526 = distinct !DICompositeType(tag: DW_TAG_structure_type, name: "__raw", scope: !330, file: !331, line: 733, size: 192, elements: !527, identifier: "_ZTSNSt3__112basic_stringIcNS_11char_traitsIcEENS_9allocatorIcEEE5__rawE")
!527 = !{!528}
!528 = !DIDerivedType(tag: DW_TAG_member, name: "__words", scope: !526, file: !331, line: 735, baseType: !529, size: 192)
!529 = !DICompositeType(tag: DW_TAG_array_type, baseType: !360, size: 192, elements: !530)
!530 = !{!531}
!531 = !DISubrange(count: 3)
!532 = !DISubprogram(name: "__compressed_pair_elem", scope: !348, file: !345, line: 2082, type: !533, isLocal: false, isDefinition: false, scopeLine: 2082, flags: DIFlagPrototyped, isOptimized: true)
!533 = !DISubroutineType(types: !534)
!534 = !{null, !535}
!535 = !DIDerivedType(tag: DW_TAG_pointer_type, baseType: !348, size: 64, flags: DIFlagArtificial | DIFlagObjectPointer)
!536 = !DISubprogram(name: "__get", linkageName: "_ZNSt3__122__compressed_pair_elemINS_12basic_stringIcNS_11char_traitsIcEENS_9allocatorIcEEE5__repELi0ELb0EE5__getEv", scope: !348, file: !345, line: 2101, type: !537, isLocal: false, isDefinition: false, scopeLine: 2101, flags: DIFlagPrototyped, isOptimized: true)
!537 = !DISubroutineType(types: !538)
!538 = !{!539, !535}
!539 = !DIDerivedType(tag: DW_TAG_typedef, name: "reference", scope: !348, file: !345, line: 2078, baseType: !540)
!540 = !DIDerivedType(tag: DW_TAG_reference_type, baseType: !351, size: 64)
!541 = !DISubprogram(name: "__get", linkageName: "_ZNKSt3__122__compressed_pair_elemINS_12basic_stringIcNS_11char_traitsIcEENS_9allocatorIcEEE5__repELi0ELb0EE5__getEv", scope: !348, file: !345, line: 2102, type: !542, isLocal: false, isDefinition: false, scopeLine: 2102, flags: DIFlagPrototyped, isOptimized: true)
!542 = !DISubroutineType(types: !543)
!543 = !{!544, !547}
!544 = !DIDerivedType(tag: DW_TAG_typedef, name: "const_reference", scope: !348, file: !345, line: 2079, baseType: !545)
!545 = !DIDerivedType(tag: DW_TAG_reference_type, baseType: !546, size: 64)
!546 = !DIDerivedType(tag: DW_TAG_const_type, baseType: !351)
!547 = !DIDerivedType(tag: DW_TAG_pointer_type, baseType: !548, size: 64, flags: DIFlagArtificial | DIFlagObjectPointer)
!548 = !DIDerivedType(tag: DW_TAG_const_type, baseType: !348)
!549 = !{!550, !551, !552}
!550 = !DITemplateTypeParameter(name: "_Tp", type: !351)
!551 = !DITemplateValueParameter(name: "_Idx", type: !39, value: i32 0)
!552 = !DITemplateValueParameter(name: "_CanBeEmptyBase", type: !117, value: i8 0)
!553 = !DIDerivedType(tag: DW_TAG_inheritance, scope: !344, baseType: !554)
!554 = distinct !DICompositeType(tag: DW_TAG_structure_type, name: "__compressed_pair_elem<std::__1::allocator<char>, 1, true>", scope: !7, file: !345, line: 2109, size: 8, elements: !555, templateParams: !573, identifier: "_ZTSNSt3__122__compressed_pair_elemINS_9allocatorIcEELi1ELb1EEE")
!555 = !{!556, !557, !561, !566}
!556 = !DIDerivedType(tag: DW_TAG_inheritance, scope: !554, baseType: !374, flags: DIFlagPrivate)
!557 = !DISubprogram(name: "__compressed_pair_elem", scope: !554, file: !345, line: 2116, type: !558, isLocal: false, isDefinition: false, scopeLine: 2116, flags: DIFlagPrototyped, isOptimized: true)
!558 = !DISubroutineType(types: !559)
!559 = !{null, !560}
!560 = !DIDerivedType(tag: DW_TAG_pointer_type, baseType: !554, size: 64, flags: DIFlagArtificial | DIFlagObjectPointer)
!561 = !DISubprogram(name: "__get", linkageName: "_ZNSt3__122__compressed_pair_elemINS_9allocatorIcEELi1ELb1EE5__getEv", scope: !554, file: !345, line: 2136, type: !562, isLocal: false, isDefinition: false, scopeLine: 2136, flags: DIFlagPrototyped, isOptimized: true)
!562 = !DISubroutineType(types: !563)
!563 = !{!564, !560}
!564 = !DIDerivedType(tag: DW_TAG_typedef, name: "reference", scope: !554, file: !345, line: 2111, baseType: !565)
!565 = !DIDerivedType(tag: DW_TAG_reference_type, baseType: !374, size: 64)
!566 = !DISubprogram(name: "__get", linkageName: "_ZNKSt3__122__compressed_pair_elemINS_9allocatorIcEELi1ELb1EE5__getEv", scope: !554, file: !345, line: 2137, type: !567, isLocal: false, isDefinition: false, scopeLine: 2137, flags: DIFlagPrototyped, isOptimized: true)
!567 = !DISubroutineType(types: !568)
!568 = !{!569, !571}
!569 = !DIDerivedType(tag: DW_TAG_typedef, name: "const_reference", scope: !554, file: !345, line: 2112, baseType: !570)
!570 = !DIDerivedType(tag: DW_TAG_reference_type, baseType: !386, size: 64)
!571 = !DIDerivedType(tag: DW_TAG_pointer_type, baseType: !572, size: 64, flags: DIFlagArtificial | DIFlagObjectPointer)
!572 = !DIDerivedType(tag: DW_TAG_const_type, baseType: !554)
!573 = !{!574, !575, !576}
!574 = !DITemplateTypeParameter(name: "_Tp", type: !374)
!575 = !DITemplateValueParameter(name: "_Idx", type: !39, value: i32 1)
!576 = !DITemplateValueParameter(name: "_CanBeEmptyBase", type: !117, value: i8 1)
!577 = !DISubprogram(name: "first", linkageName: "_ZNSt3__117__compressed_pairINS_12basic_stringIcNS_11char_traitsIcEENS_9allocatorIcEEE5__repES5_E5firstEv", scope: !344, file: !345, line: 2212, type: !578, isLocal: false, isDefinition: false, scopeLine: 2212, flags: DIFlagPublic | DIFlagPrototyped, isOptimized: true)
!578 = !DISubroutineType(types: !579)
!579 = !{!539, !580}
!580 = !DIDerivedType(tag: DW_TAG_pointer_type, baseType: !344, size: 64, flags: DIFlagArtificial | DIFlagObjectPointer)
!581 = !DISubprogram(name: "first", linkageName: "_ZNKSt3__117__compressed_pairINS_12basic_stringIcNS_11char_traitsIcEENS_9allocatorIcEEE5__repES5_E5firstEv", scope: !344, file: !345, line: 2217, type: !582, isLocal: false, isDefinition: false, scopeLine: 2217, flags: DIFlagPublic | DIFlagPrototyped, isOptimized: true)
!582 = !DISubroutineType(types: !583)
!583 = !{!544, !584}
!584 = !DIDerivedType(tag: DW_TAG_pointer_type, baseType: !585, size: 64, flags: DIFlagArtificial | DIFlagObjectPointer)
!585 = !DIDerivedType(tag: DW_TAG_const_type, baseType: !344)
!586 = !DISubprogram(name: "second", linkageName: "_ZNSt3__117__compressed_pairINS_12basic_stringIcNS_11char_traitsIcEENS_9allocatorIcEEE5__repES5_E6secondEv", scope: !344, file: !345, line: 2222, type: !587, isLocal: false, isDefinition: false, scopeLine: 2222, flags: DIFlagPublic | DIFlagPrototyped, isOptimized: true)
!587 = !DISubroutineType(types: !588)
!588 = !{!564, !580}
!589 = !DISubprogram(name: "second", linkageName: "_ZNKSt3__117__compressed_pairINS_12basic_stringIcNS_11char_traitsIcEENS_9allocatorIcEEE5__repES5_E6secondEv", scope: !344, file: !345, line: 2227, type: !590, isLocal: false, isDefinition: false, scopeLine: 2227, flags: DIFlagPublic | DIFlagPrototyped, isOptimized: true)
!590 = !DISubroutineType(types: !591)
!591 = !{!569, !584}
!592 = !DISubprogram(name: "swap", linkageName: "_ZNSt3__117__compressed_pairINS_12basic_stringIcNS_11char_traitsIcEENS_9allocatorIcEEE5__repES5_E4swapERS8_", scope: !344, file: !345, line: 2232, type: !593, isLocal: false, isDefinition: false, scopeLine: 2232, flags: DIFlagPublic | DIFlagPrototyped, isOptimized: true)
!593 = !DISubroutineType(types: !594)
!594 = !{null, !580, !595}
!595 = !DIDerivedType(tag: DW_TAG_reference_type, baseType: !344, size: 64)
!596 = !{!597, !598}
!597 = !DITemplateTypeParameter(name: "_T1", type: !351)
!598 = !DITemplateTypeParameter(name: "_T2", type: !374)
!599 = !DIDerivedType(tag: DW_TAG_member, name: "npos", scope: !330, file: !331, line: 751, baseType: !600, flags: DIFlagPublic | DIFlagStaticMember, extraData: i64 -1)
!600 = !DIDerivedType(tag: DW_TAG_const_type, baseType: !360)
!601 = !DISubprogram(name: "basic_string", scope: !330, file: !331, line: 753, type: !602, isLocal: false, isDefinition: false, scopeLine: 753, flags: DIFlagPublic | DIFlagPrototyped, isOptimized: true)
!602 = !DISubroutineType(types: !603)
!603 = !{null, !604}
!604 = !DIDerivedType(tag: DW_TAG_pointer_type, baseType: !330, size: 64, flags: DIFlagArtificial | DIFlagObjectPointer)
!605 = !DISubprogram(name: "basic_string", scope: !330, file: !331, line: 756, type: !606, isLocal: false, isDefinition: false, scopeLine: 756, flags: DIFlagPublic | DIFlagExplicit | DIFlagPrototyped, isOptimized: true)
!606 = !DISubroutineType(types: !607)
!607 = !{null, !604, !608}
!608 = !DIDerivedType(tag: DW_TAG_reference_type, baseType: !609, size: 64)
!609 = !DIDerivedType(tag: DW_TAG_const_type, baseType: !610)
!610 = !DIDerivedType(tag: DW_TAG_typedef, name: "allocator_type", scope: !330, file: !331, line: 641, baseType: !374)
!611 = !DISubprogram(name: "basic_string", scope: !330, file: !331, line: 763, type: !612, isLocal: false, isDefinition: false, scopeLine: 763, flags: DIFlagPublic | DIFlagPrototyped, isOptimized: true)
!612 = !DISubroutineType(types: !613)
!613 = !{null, !604, !614}
!614 = !DIDerivedType(tag: DW_TAG_reference_type, baseType: !615, size: 64)
!615 = !DIDerivedType(tag: DW_TAG_const_type, baseType: !330)
!616 = !DISubprogram(name: "basic_string", scope: !330, file: !331, line: 764, type: !617, isLocal: false, isDefinition: false, scopeLine: 764, flags: DIFlagPublic | DIFlagPrototyped, isOptimized: true)
!617 = !DISubroutineType(types: !618)
!618 = !{null, !604, !614, !608}
!619 = !DISubprogram(name: "basic_string", scope: !330, file: !331, line: 768, type: !620, isLocal: false, isDefinition: false, scopeLine: 768, flags: DIFlagPublic | DIFlagPrototyped, isOptimized: true)
!620 = !DISubroutineType(types: !621)
!621 = !{null, !604, !622}
!622 = !DIDerivedType(tag: DW_TAG_rvalue_reference_type, baseType: !330, size: 64)
!623 = !DISubprogram(name: "basic_string", scope: !330, file: !331, line: 776, type: !624, isLocal: false, isDefinition: false, scopeLine: 776, flags: DIFlagPublic | DIFlagPrototyped, isOptimized: true)
!624 = !DISubroutineType(types: !625)
!625 = !{null, !604, !622, !608}
!626 = !DISubprogram(name: "basic_string", scope: !330, file: !331, line: 778, type: !627, isLocal: false, isDefinition: false, scopeLine: 778, flags: DIFlagPublic | DIFlagPrototyped, isOptimized: true)
!627 = !DISubroutineType(types: !628)
!628 = !{null, !604, !320}
!629 = !DISubprogram(name: "basic_string", scope: !330, file: !331, line: 780, type: !630, isLocal: false, isDefinition: false, scopeLine: 780, flags: DIFlagPublic | DIFlagPrototyped, isOptimized: true)
!630 = !DISubroutineType(types: !631)
!631 = !{null, !604, !320, !570}
!632 = !DISubprogram(name: "basic_string", scope: !330, file: !331, line: 782, type: !633, isLocal: false, isDefinition: false, scopeLine: 782, flags: DIFlagPublic | DIFlagPrototyped, isOptimized: true)
!633 = !DISubroutineType(types: !634)
!634 = !{null, !604, !320, !360}
!635 = !DISubprogram(name: "basic_string", scope: !330, file: !331, line: 784, type: !636, isLocal: false, isDefinition: false, scopeLine: 784, flags: DIFlagPublic | DIFlagPrototyped, isOptimized: true)
!636 = !DISubroutineType(types: !637)
!637 = !{null, !604, !320, !360, !570}
!638 = !DISubprogram(name: "basic_string", scope: !330, file: !331, line: 786, type: !639, isLocal: false, isDefinition: false, scopeLine: 786, flags: DIFlagPublic | DIFlagPrototyped, isOptimized: true)
!639 = !DISubroutineType(types: !640)
!640 = !{null, !604, !360, !322}
!641 = !DISubprogram(name: "basic_string", scope: !330, file: !331, line: 788, type: !642, isLocal: false, isDefinition: false, scopeLine: 788, flags: DIFlagPublic | DIFlagPrototyped, isOptimized: true)
!642 = !DISubroutineType(types: !643)
!643 = !{null, !604, !360, !322, !570}
!644 = !DISubprogram(name: "basic_string", scope: !330, file: !331, line: 789, type: !645, isLocal: false, isDefinition: false, scopeLine: 789, flags: DIFlagPublic | DIFlagPrototyped, isOptimized: true)
!645 = !DISubroutineType(types: !646)
!646 = !{null, !604, !614, !360, !360, !570}
!647 = !DISubprogram(name: "basic_string", scope: !330, file: !331, line: 792, type: !648, isLocal: false, isDefinition: false, scopeLine: 792, flags: DIFlagPublic | DIFlagPrototyped, isOptimized: true)
!648 = !DISubroutineType(types: !649)
!649 = !{null, !604, !614, !360, !570}
!650 = !DISubprogram(name: "basic_string", scope: !330, file: !331, line: 800, type: !651, isLocal: false, isDefinition: false, scopeLine: 800, flags: DIFlagPublic | DIFlagExplicit | DIFlagPrototyped, isOptimized: true)
!651 = !DISubroutineType(types: !652)
!652 = !{null, !604, !653}
!653 = !DIDerivedType(tag: DW_TAG_typedef, name: "__self_view", scope: !330, file: !331, line: 638, baseType: !654)
!654 = distinct !DICompositeType(tag: DW_TAG_class_type, name: "basic_string_view<char, std::__1::char_traits<char> >", scope: !7, file: !655, line: 184, size: 128, elements: !656, templateParams: !786, identifier: "_ZTSNSt3__117basic_string_viewIcNS_11char_traitsIcEEEE")
!655 = !DIFile(filename: "/Users/aser/Documents/LLVM/llvm-4.0/build/bin/../include/c++/v1/string_view", directory: "/Users/aser/Dropbox/papers/C++11/Checker11/examples/fence2")
!656 = !{!657, !660, !664, !665, !669, !674, !678, !681, !684, !690, !691, !692, !693, !699, !700, !701, !702, !705, !706, !707, !710, !714, !715, !718, !719, !722, !725, !726, !729, !733, !736, !739, !742, !745, !748, !751, !754, !757, !760, !763, !766, !767, !768, !769, !770, !771, !772, !773, !774, !775, !776, !777, !778, !779, !780, !781, !782, !783, !784, !785}
!657 = !DIDerivedType(tag: DW_TAG_member, name: "npos", scope: !654, file: !655, line: 199, baseType: !658, flags: DIFlagPublic | DIFlagStaticMember, extraData: i64 -1)
!658 = !DIDerivedType(tag: DW_TAG_const_type, baseType: !659)
!659 = !DIDerivedType(tag: DW_TAG_typedef, name: "size_type", file: !655, line: 197, baseType: !97)
!660 = !DIDerivedType(tag: DW_TAG_member, name: "__data", scope: !654, file: !655, line: 566, baseType: !661, size: 64)
!661 = !DIDerivedType(tag: DW_TAG_pointer_type, baseType: !662, size: 64)
!662 = !DIDerivedType(tag: DW_TAG_const_type, baseType: !663)
!663 = !DIDerivedType(tag: DW_TAG_typedef, name: "value_type", scope: !654, file: !655, line: 188, baseType: !322)
!664 = !DIDerivedType(tag: DW_TAG_member, name: "__size", scope: !654, file: !655, line: 567, baseType: !659, size: 64, offset: 64)
!665 = !DISubprogram(name: "basic_string_view", scope: !654, file: !655, line: 207, type: !666, isLocal: false, isDefinition: false, scopeLine: 207, flags: DIFlagPublic | DIFlagPrototyped, isOptimized: true)
!666 = !DISubroutineType(types: !667)
!667 = !{null, !668}
!668 = !DIDerivedType(tag: DW_TAG_pointer_type, baseType: !654, size: 64, flags: DIFlagArtificial | DIFlagObjectPointer)
!669 = !DISubprogram(name: "basic_string_view", scope: !654, file: !655, line: 210, type: !670, isLocal: false, isDefinition: false, scopeLine: 210, flags: DIFlagPublic | DIFlagPrototyped, isOptimized: true)
!670 = !DISubroutineType(types: !671)
!671 = !{null, !668, !672}
!672 = !DIDerivedType(tag: DW_TAG_reference_type, baseType: !673, size: 64)
!673 = !DIDerivedType(tag: DW_TAG_const_type, baseType: !654)
!674 = !DISubprogram(name: "operator=", linkageName: "_ZNSt3__117basic_string_viewIcNS_11char_traitsIcEEEaSERKS3_", scope: !654, file: !655, line: 213, type: !675, isLocal: false, isDefinition: false, scopeLine: 213, flags: DIFlagPublic | DIFlagPrototyped, isOptimized: true)
!675 = !DISubroutineType(types: !676)
!676 = !{!677, !668, !672}
!677 = !DIDerivedType(tag: DW_TAG_reference_type, baseType: !654, size: 64)
!678 = !DISubprogram(name: "basic_string_view", scope: !654, file: !655, line: 216, type: !679, isLocal: false, isDefinition: false, scopeLine: 216, flags: DIFlagPublic | DIFlagPrototyped, isOptimized: true)
!679 = !DISubroutineType(types: !680)
!680 = !{null, !668, !320, !659}
!681 = !DISubprogram(name: "basic_string_view", scope: !654, file: !655, line: 225, type: !682, isLocal: false, isDefinition: false, scopeLine: 225, flags: DIFlagPublic | DIFlagPrototyped, isOptimized: true)
!682 = !DISubroutineType(types: !683)
!683 = !{null, !668, !320}
!684 = !DISubprogram(name: "begin", linkageName: "_ZNKSt3__117basic_string_viewIcNS_11char_traitsIcEEE5beginEv", scope: !654, file: !655, line: 230, type: !685, isLocal: false, isDefinition: false, scopeLine: 230, flags: DIFlagPublic | DIFlagPrototyped, isOptimized: true)
!685 = !DISubroutineType(types: !686)
!686 = !{!687, !689}
!687 = !DIDerivedType(tag: DW_TAG_typedef, name: "const_iterator", scope: !654, file: !655, line: 193, baseType: !688)
!688 = !DIDerivedType(tag: DW_TAG_typedef, name: "const_pointer", scope: !654, file: !655, line: 190, baseType: !320)
!689 = !DIDerivedType(tag: DW_TAG_pointer_type, baseType: !673, size: 64, flags: DIFlagArtificial | DIFlagObjectPointer)
!690 = !DISubprogram(name: "end", linkageName: "_ZNKSt3__117basic_string_viewIcNS_11char_traitsIcEEE3endEv", scope: !654, file: !655, line: 233, type: !685, isLocal: false, isDefinition: false, scopeLine: 233, flags: DIFlagPublic | DIFlagPrototyped, isOptimized: true)
!691 = !DISubprogram(name: "cbegin", linkageName: "_ZNKSt3__117basic_string_viewIcNS_11char_traitsIcEEE6cbeginEv", scope: !654, file: !655, line: 236, type: !685, isLocal: false, isDefinition: false, scopeLine: 236, flags: DIFlagPublic | DIFlagPrototyped, isOptimized: true)
!692 = !DISubprogram(name: "cend", linkageName: "_ZNKSt3__117basic_string_viewIcNS_11char_traitsIcEEE4cendEv", scope: !654, file: !655, line: 239, type: !685, isLocal: false, isDefinition: false, scopeLine: 239, flags: DIFlagPublic | DIFlagPrototyped, isOptimized: true)
!693 = !DISubprogram(name: "rbegin", linkageName: "_ZNKSt3__117basic_string_viewIcNS_11char_traitsIcEEE6rbeginEv", scope: !654, file: !655, line: 242, type: !694, isLocal: false, isDefinition: false, scopeLine: 242, flags: DIFlagPublic | DIFlagPrototyped, isOptimized: true)
!694 = !DISubroutineType(types: !695)
!695 = !{!696, !689}
!696 = !DIDerivedType(tag: DW_TAG_typedef, name: "const_reverse_iterator", scope: !654, file: !655, line: 195, baseType: !697)
!697 = distinct !DICompositeType(tag: DW_TAG_class_type, name: "reverse_iterator<const char *>", scope: !7, file: !698, line: 636, flags: DIFlagFwdDecl, identifier: "_ZTSNSt3__116reverse_iteratorIPKcEE")
!698 = !DIFile(filename: "/Users/aser/Documents/LLVM/llvm-4.0/build/bin/../include/c++/v1/iterator", directory: "/Users/aser/Dropbox/papers/C++11/Checker11/examples/fence2")
!699 = !DISubprogram(name: "rend", linkageName: "_ZNKSt3__117basic_string_viewIcNS_11char_traitsIcEEE4rendEv", scope: !654, file: !655, line: 245, type: !694, isLocal: false, isDefinition: false, scopeLine: 245, flags: DIFlagPublic | DIFlagPrototyped, isOptimized: true)
!700 = !DISubprogram(name: "crbegin", linkageName: "_ZNKSt3__117basic_string_viewIcNS_11char_traitsIcEEE7crbeginEv", scope: !654, file: !655, line: 248, type: !694, isLocal: false, isDefinition: false, scopeLine: 248, flags: DIFlagPublic | DIFlagPrototyped, isOptimized: true)
!701 = !DISubprogram(name: "crend", linkageName: "_ZNKSt3__117basic_string_viewIcNS_11char_traitsIcEEE5crendEv", scope: !654, file: !655, line: 251, type: !694, isLocal: false, isDefinition: false, scopeLine: 251, flags: DIFlagPublic | DIFlagPrototyped, isOptimized: true)
!702 = !DISubprogram(name: "size", linkageName: "_ZNKSt3__117basic_string_viewIcNS_11char_traitsIcEEE4sizeEv", scope: !654, file: !655, line: 255, type: !703, isLocal: false, isDefinition: false, scopeLine: 255, flags: DIFlagPublic | DIFlagPrototyped, isOptimized: true)
!703 = !DISubroutineType(types: !704)
!704 = !{!659, !689}
!705 = !DISubprogram(name: "length", linkageName: "_ZNKSt3__117basic_string_viewIcNS_11char_traitsIcEEE6lengthEv", scope: !654, file: !655, line: 258, type: !703, isLocal: false, isDefinition: false, scopeLine: 258, flags: DIFlagPublic | DIFlagPrototyped, isOptimized: true)
!706 = !DISubprogram(name: "max_size", linkageName: "_ZNKSt3__117basic_string_viewIcNS_11char_traitsIcEEE8max_sizeEv", scope: !654, file: !655, line: 261, type: !703, isLocal: false, isDefinition: false, scopeLine: 261, flags: DIFlagPublic | DIFlagPrototyped, isOptimized: true)
!707 = !DISubprogram(name: "empty", linkageName: "_ZNKSt3__117basic_string_viewIcNS_11char_traitsIcEEE5emptyEv", scope: !654, file: !655, line: 264, type: !708, isLocal: false, isDefinition: false, scopeLine: 264, flags: DIFlagPublic | DIFlagPrototyped, isOptimized: true)
!708 = !DISubroutineType(types: !709)
!709 = !{!117, !689}
!710 = !DISubprogram(name: "operator[]", linkageName: "_ZNKSt3__117basic_string_viewIcNS_11char_traitsIcEEEixEm", scope: !654, file: !655, line: 268, type: !711, isLocal: false, isDefinition: false, scopeLine: 268, flags: DIFlagPublic | DIFlagPrototyped, isOptimized: true)
!711 = !DISubroutineType(types: !712)
!712 = !{!713, !689, !659}
!713 = !DIDerivedType(tag: DW_TAG_typedef, name: "const_reference", scope: !654, file: !655, line: 192, baseType: !394)
!714 = !DISubprogram(name: "at", linkageName: "_ZNKSt3__117basic_string_viewIcNS_11char_traitsIcEEE2atEm", scope: !654, file: !655, line: 271, type: !711, isLocal: false, isDefinition: false, scopeLine: 271, flags: DIFlagPublic | DIFlagPrototyped, isOptimized: true)
!715 = !DISubprogram(name: "front", linkageName: "_ZNKSt3__117basic_string_viewIcNS_11char_traitsIcEEE5frontEv", scope: !654, file: !655, line: 279, type: !716, isLocal: false, isDefinition: false, scopeLine: 279, flags: DIFlagPublic | DIFlagPrototyped, isOptimized: true)
!716 = !DISubroutineType(types: !717)
!717 = !{!713, !689}
!718 = !DISubprogram(name: "back", linkageName: "_ZNKSt3__117basic_string_viewIcNS_11char_traitsIcEEE4backEv", scope: !654, file: !655, line: 285, type: !716, isLocal: false, isDefinition: false, scopeLine: 285, flags: DIFlagPublic | DIFlagPrototyped, isOptimized: true)
!719 = !DISubprogram(name: "data", linkageName: "_ZNKSt3__117basic_string_viewIcNS_11char_traitsIcEEE4dataEv", scope: !654, file: !655, line: 291, type: !720, isLocal: false, isDefinition: false, scopeLine: 291, flags: DIFlagPublic | DIFlagPrototyped, isOptimized: true)
!720 = !DISubroutineType(types: !721)
!721 = !{!688, !689}
!722 = !DISubprogram(name: "remove_prefix", linkageName: "_ZNSt3__117basic_string_viewIcNS_11char_traitsIcEEE13remove_prefixEm", scope: !654, file: !655, line: 295, type: !723, isLocal: false, isDefinition: false, scopeLine: 295, flags: DIFlagPublic | DIFlagPrototyped, isOptimized: true)
!723 = !DISubroutineType(types: !724)
!724 = !{null, !668, !659}
!725 = !DISubprogram(name: "remove_suffix", linkageName: "_ZNSt3__117basic_string_viewIcNS_11char_traitsIcEEE13remove_suffixEm", scope: !654, file: !655, line: 303, type: !723, isLocal: false, isDefinition: false, scopeLine: 303, flags: DIFlagPublic | DIFlagPrototyped, isOptimized: true)
!726 = !DISubprogram(name: "swap", linkageName: "_ZNSt3__117basic_string_viewIcNS_11char_traitsIcEEE4swapERS3_", scope: !654, file: !655, line: 310, type: !727, isLocal: false, isDefinition: false, scopeLine: 310, flags: DIFlagPublic | DIFlagPrototyped, isOptimized: true)
!727 = !DISubroutineType(types: !728)
!728 = !{null, !668, !677}
!729 = !DISubprogram(name: "copy", linkageName: "_ZNKSt3__117basic_string_viewIcNS_11char_traitsIcEEE4copyEPcmm", scope: !654, file: !655, line: 322, type: !730, isLocal: false, isDefinition: false, scopeLine: 322, flags: DIFlagPublic | DIFlagPrototyped, isOptimized: true)
!730 = !DISubroutineType(types: !731)
!731 = !{!732, !689, !384, !659, !659}
!732 = !DIDerivedType(tag: DW_TAG_typedef, name: "size_type", scope: !654, file: !655, line: 197, baseType: !97)
!733 = !DISubprogram(name: "substr", linkageName: "_ZNKSt3__117basic_string_viewIcNS_11char_traitsIcEEE6substrEmm", scope: !654, file: !655, line: 332, type: !734, isLocal: false, isDefinition: false, scopeLine: 332, flags: DIFlagPublic | DIFlagPrototyped, isOptimized: true)
!734 = !DISubroutineType(types: !735)
!735 = !{!654, !689, !659, !659}
!736 = !DISubprogram(name: "compare", linkageName: "_ZNKSt3__117basic_string_viewIcNS_11char_traitsIcEEE7compareES3_", scope: !654, file: !655, line: 339, type: !737, isLocal: false, isDefinition: false, scopeLine: 339, flags: DIFlagPublic | DIFlagPrototyped, isOptimized: true)
!737 = !DISubroutineType(types: !738)
!738 = !{!39, !689, !654}
!739 = !DISubprogram(name: "compare", linkageName: "_ZNKSt3__117basic_string_viewIcNS_11char_traitsIcEEE7compareEmmS3_", scope: !654, file: !655, line: 349, type: !740, isLocal: false, isDefinition: false, scopeLine: 349, flags: DIFlagPublic | DIFlagPrototyped, isOptimized: true)
!740 = !DISubroutineType(types: !741)
!741 = !{!39, !689, !659, !659, !654}
!742 = !DISubprogram(name: "compare", linkageName: "_ZNKSt3__117basic_string_viewIcNS_11char_traitsIcEEE7compareEmmS3_mm", scope: !654, file: !655, line: 355, type: !743, isLocal: false, isDefinition: false, scopeLine: 355, flags: DIFlagPublic | DIFlagPrototyped, isOptimized: true)
!743 = !DISubroutineType(types: !744)
!744 = !{!39, !689, !659, !659, !654, !659, !659}
!745 = !DISubprogram(name: "compare", linkageName: "_ZNKSt3__117basic_string_viewIcNS_11char_traitsIcEEE7compareEPKc", scope: !654, file: !655, line: 362, type: !746, isLocal: false, isDefinition: false, scopeLine: 362, flags: DIFlagPublic | DIFlagPrototyped, isOptimized: true)
!746 = !DISubroutineType(types: !747)
!747 = !{!39, !689, !320}
!748 = !DISubprogram(name: "compare", linkageName: "_ZNKSt3__117basic_string_viewIcNS_11char_traitsIcEEE7compareEmmPKc", scope: !654, file: !655, line: 368, type: !749, isLocal: false, isDefinition: false, scopeLine: 368, flags: DIFlagPublic | DIFlagPrototyped, isOptimized: true)
!749 = !DISubroutineType(types: !750)
!750 = !{!39, !689, !659, !659, !320}
!751 = !DISubprogram(name: "compare", linkageName: "_ZNKSt3__117basic_string_viewIcNS_11char_traitsIcEEE7compareEmmPKcm", scope: !654, file: !655, line: 374, type: !752, isLocal: false, isDefinition: false, scopeLine: 374, flags: DIFlagPublic | DIFlagPrototyped, isOptimized: true)
!752 = !DISubroutineType(types: !753)
!753 = !{!39, !689, !659, !659, !320, !659}
!754 = !DISubprogram(name: "find", linkageName: "_ZNKSt3__117basic_string_viewIcNS_11char_traitsIcEEE4findES3_m", scope: !654, file: !655, line: 381, type: !755, isLocal: false, isDefinition: false, scopeLine: 381, flags: DIFlagPublic | DIFlagPrototyped, isOptimized: true)
!755 = !DISubroutineType(types: !756)
!756 = !{!732, !689, !654, !659}
!757 = !DISubprogram(name: "find", linkageName: "_ZNKSt3__117basic_string_viewIcNS_11char_traitsIcEEE4findEcm", scope: !654, file: !655, line: 389, type: !758, isLocal: false, isDefinition: false, scopeLine: 389, flags: DIFlagPublic | DIFlagPrototyped, isOptimized: true)
!758 = !DISubroutineType(types: !759)
!759 = !{!732, !689, !322, !659}
!760 = !DISubprogram(name: "find", linkageName: "_ZNKSt3__117basic_string_viewIcNS_11char_traitsIcEEE4findEPKcmm", scope: !654, file: !655, line: 396, type: !761, isLocal: false, isDefinition: false, scopeLine: 396, flags: DIFlagPublic | DIFlagPrototyped, isOptimized: true)
!761 = !DISubroutineType(types: !762)
!762 = !{!732, !689, !320, !659, !659}
!763 = !DISubprogram(name: "find", linkageName: "_ZNKSt3__117basic_string_viewIcNS_11char_traitsIcEEE4findEPKcm", scope: !654, file: !655, line: 404, type: !764, isLocal: false, isDefinition: false, scopeLine: 404, flags: DIFlagPublic | DIFlagPrototyped, isOptimized: true)
!764 = !DISubroutineType(types: !765)
!765 = !{!732, !689, !320, !659}
!766 = !DISubprogram(name: "rfind", linkageName: "_ZNKSt3__117basic_string_viewIcNS_11char_traitsIcEEE5rfindES3_m", scope: !654, file: !655, line: 413, type: !755, isLocal: false, isDefinition: false, scopeLine: 413, flags: DIFlagPublic | DIFlagPrototyped, isOptimized: true)
!767 = !DISubprogram(name: "rfind", linkageName: "_ZNKSt3__117basic_string_viewIcNS_11char_traitsIcEEE5rfindEcm", scope: !654, file: !655, line: 421, type: !758, isLocal: false, isDefinition: false, scopeLine: 421, flags: DIFlagPublic | DIFlagPrototyped, isOptimized: true)
!768 = !DISubprogram(name: "rfind", linkageName: "_ZNKSt3__117basic_string_viewIcNS_11char_traitsIcEEE5rfindEPKcmm", scope: !654, file: !655, line: 428, type: !761, isLocal: false, isDefinition: false, scopeLine: 428, flags: DIFlagPublic | DIFlagPrototyped, isOptimized: true)
!769 = !DISubprogram(name: "rfind", linkageName: "_ZNKSt3__117basic_string_viewIcNS_11char_traitsIcEEE5rfindEPKcm", scope: !654, file: !655, line: 436, type: !764, isLocal: false, isDefinition: false, scopeLine: 436, flags: DIFlagPublic | DIFlagPrototyped, isOptimized: true)
!770 = !DISubprogram(name: "find_first_of", linkageName: "_ZNKSt3__117basic_string_viewIcNS_11char_traitsIcEEE13find_first_ofES3_m", scope: !654, file: !655, line: 445, type: !755, isLocal: false, isDefinition: false, scopeLine: 445, flags: DIFlagPublic | DIFlagPrototyped, isOptimized: true)
!771 = !DISubprogram(name: "find_first_of", linkageName: "_ZNKSt3__117basic_string_viewIcNS_11char_traitsIcEEE13find_first_ofEcm", scope: !654, file: !655, line: 453, type: !758, isLocal: false, isDefinition: false, scopeLine: 453, flags: DIFlagPublic | DIFlagPrototyped, isOptimized: true)
!772 = !DISubprogram(name: "find_first_of", linkageName: "_ZNKSt3__117basic_string_viewIcNS_11char_traitsIcEEE13find_first_ofEPKcmm", scope: !654, file: !655, line: 457, type: !761, isLocal: false, isDefinition: false, scopeLine: 457, flags: DIFlagPublic | DIFlagPrototyped, isOptimized: true)
!773 = !DISubprogram(name: "find_first_of", linkageName: "_ZNKSt3__117basic_string_viewIcNS_11char_traitsIcEEE13find_first_ofEPKcm", scope: !654, file: !655, line: 465, type: !764, isLocal: false, isDefinition: false, scopeLine: 465, flags: DIFlagPublic | DIFlagPrototyped, isOptimized: true)
!774 = !DISubprogram(name: "find_last_of", linkageName: "_ZNKSt3__117basic_string_viewIcNS_11char_traitsIcEEE12find_last_ofES3_m", scope: !654, file: !655, line: 474, type: !755, isLocal: false, isDefinition: false, scopeLine: 474, flags: DIFlagPublic | DIFlagPrototyped, isOptimized: true)
!775 = !DISubprogram(name: "find_last_of", linkageName: "_ZNKSt3__117basic_string_viewIcNS_11char_traitsIcEEE12find_last_ofEcm", scope: !654, file: !655, line: 482, type: !758, isLocal: false, isDefinition: false, scopeLine: 482, flags: DIFlagPublic | DIFlagPrototyped, isOptimized: true)
!776 = !DISubprogram(name: "find_last_of", linkageName: "_ZNKSt3__117basic_string_viewIcNS_11char_traitsIcEEE12find_last_ofEPKcmm", scope: !654, file: !655, line: 486, type: !761, isLocal: false, isDefinition: false, scopeLine: 486, flags: DIFlagPublic | DIFlagPrototyped, isOptimized: true)
!777 = !DISubprogram(name: "find_last_of", linkageName: "_ZNKSt3__117basic_string_viewIcNS_11char_traitsIcEEE12find_last_ofEPKcm", scope: !654, file: !655, line: 494, type: !764, isLocal: false, isDefinition: false, scopeLine: 494, flags: DIFlagPublic | DIFlagPrototyped, isOptimized: true)
!778 = !DISubprogram(name: "find_first_not_of", linkageName: "_ZNKSt3__117basic_string_viewIcNS_11char_traitsIcEEE17find_first_not_ofES3_m", scope: !654, file: !655, line: 503, type: !755, isLocal: false, isDefinition: false, scopeLine: 503, flags: DIFlagPublic | DIFlagPrototyped, isOptimized: true)
!779 = !DISubprogram(name: "find_first_not_of", linkageName: "_ZNKSt3__117basic_string_viewIcNS_11char_traitsIcEEE17find_first_not_ofEcm", scope: !654, file: !655, line: 511, type: !758, isLocal: false, isDefinition: false, scopeLine: 511, flags: DIFlagPublic | DIFlagPrototyped, isOptimized: true)
!780 = !DISubprogram(name: "find_first_not_of", linkageName: "_ZNKSt3__117basic_string_viewIcNS_11char_traitsIcEEE17find_first_not_ofEPKcmm", scope: !654, file: !655, line: 518, type: !761, isLocal: false, isDefinition: false, scopeLine: 518, flags: DIFlagPublic | DIFlagPrototyped, isOptimized: true)
!781 = !DISubprogram(name: "find_first_not_of", linkageName: "_ZNKSt3__117basic_string_viewIcNS_11char_traitsIcEEE17find_first_not_ofEPKcm", scope: !654, file: !655, line: 526, type: !764, isLocal: false, isDefinition: false, scopeLine: 526, flags: DIFlagPublic | DIFlagPrototyped, isOptimized: true)
!782 = !DISubprogram(name: "find_last_not_of", linkageName: "_ZNKSt3__117basic_string_viewIcNS_11char_traitsIcEEE16find_last_not_ofES3_m", scope: !654, file: !655, line: 535, type: !755, isLocal: false, isDefinition: false, scopeLine: 535, flags: DIFlagPublic | DIFlagPrototyped, isOptimized: true)
!783 = !DISubprogram(name: "find_last_not_of", linkageName: "_ZNKSt3__117basic_string_viewIcNS_11char_traitsIcEEE16find_last_not_ofEcm", scope: !654, file: !655, line: 543, type: !758, isLocal: false, isDefinition: false, scopeLine: 543, flags: DIFlagPublic | DIFlagPrototyped, isOptimized: true)
!784 = !DISubprogram(name: "find_last_not_of", linkageName: "_ZNKSt3__117basic_string_viewIcNS_11char_traitsIcEEE16find_last_not_ofEPKcmm", scope: !654, file: !655, line: 550, type: !761, isLocal: false, isDefinition: false, scopeLine: 550, flags: DIFlagPublic | DIFlagPrototyped, isOptimized: true)
!785 = !DISubprogram(name: "find_last_not_of", linkageName: "_ZNKSt3__117basic_string_viewIcNS_11char_traitsIcEEE16find_last_not_ofEPKcm", scope: !654, file: !655, line: 558, type: !764, isLocal: false, isDefinition: false, scopeLine: 558, flags: DIFlagPublic | DIFlagPrototyped, isOptimized: true)
!786 = !{!787, !788}
!787 = !DITemplateTypeParameter(name: "_CharT", type: !322)
!788 = !DITemplateTypeParameter(name: "_Traits", type: !789)
!789 = distinct !DICompositeType(tag: DW_TAG_structure_type, name: "char_traits<char>", scope: !7, file: !790, line: 197, size: 8, elements: !791, templateParams: !837, identifier: "_ZTSNSt3__111char_traitsIcEE")
!790 = !DIFile(filename: "/Users/aser/Documents/LLVM/llvm-4.0/build/bin/../include/c++/v1/__string", directory: "/Users/aser/Dropbox/papers/C++11/Checker11/examples/fence2")
!791 = !{!792, !799, !802, !803, !807, !810, !813, !817, !818, !821, !825, !828, !831, !834}
!792 = !DISubprogram(name: "assign", linkageName: "_ZNSt3__111char_traitsIcE6assignERcRKc", scope: !789, file: !790, line: 206, type: !793, isLocal: false, isDefinition: false, scopeLine: 206, flags: DIFlagPrototyped, isOptimized: true)
!793 = !DISubroutineType(types: !794)
!794 = !{null, !795, !797}
!795 = !DIDerivedType(tag: DW_TAG_reference_type, baseType: !796, size: 64)
!796 = !DIDerivedType(tag: DW_TAG_typedef, name: "char_type", scope: !789, file: !790, line: 199, baseType: !322)
!797 = !DIDerivedType(tag: DW_TAG_reference_type, baseType: !798, size: 64)
!798 = !DIDerivedType(tag: DW_TAG_const_type, baseType: !796)
!799 = !DISubprogram(name: "eq", linkageName: "_ZNSt3__111char_traitsIcE2eqEcc", scope: !789, file: !790, line: 207, type: !800, isLocal: false, isDefinition: false, scopeLine: 207, flags: DIFlagPrototyped, isOptimized: true)
!800 = !DISubroutineType(types: !801)
!801 = !{!117, !796, !796}
!802 = !DISubprogram(name: "lt", linkageName: "_ZNSt3__111char_traitsIcE2ltEcc", scope: !789, file: !790, line: 209, type: !800, isLocal: false, isDefinition: false, scopeLine: 209, flags: DIFlagPrototyped, isOptimized: true)
!803 = !DISubprogram(name: "compare", linkageName: "_ZNSt3__111char_traitsIcE7compareEPKcS3_m", scope: !789, file: !790, line: 213, type: !804, isLocal: false, isDefinition: false, scopeLine: 213, flags: DIFlagPrototyped, isOptimized: true)
!804 = !DISubroutineType(types: !805)
!805 = !{!39, !806, !806, !97}
!806 = !DIDerivedType(tag: DW_TAG_pointer_type, baseType: !798, size: 64)
!807 = !DISubprogram(name: "length", linkageName: "_ZNSt3__111char_traitsIcE6lengthEPKc", scope: !789, file: !790, line: 215, type: !808, isLocal: false, isDefinition: false, scopeLine: 215, flags: DIFlagPrototyped, isOptimized: true)
!808 = !DISubroutineType(types: !809)
!809 = !{!97, !806}
!810 = !DISubprogram(name: "find", linkageName: "_ZNSt3__111char_traitsIcE4findEPKcmRS2_", scope: !789, file: !790, line: 217, type: !811, isLocal: false, isDefinition: false, scopeLine: 217, flags: DIFlagPrototyped, isOptimized: true)
!811 = !DISubroutineType(types: !812)
!812 = !{!806, !806, !97, !797}
!813 = !DISubprogram(name: "move", linkageName: "_ZNSt3__111char_traitsIcE4moveEPcPKcm", scope: !789, file: !790, line: 218, type: !814, isLocal: false, isDefinition: false, scopeLine: 218, flags: DIFlagPrototyped, isOptimized: true)
!814 = !DISubroutineType(types: !815)
!815 = !{!816, !816, !806, !97}
!816 = !DIDerivedType(tag: DW_TAG_pointer_type, baseType: !796, size: 64)
!817 = !DISubprogram(name: "copy", linkageName: "_ZNSt3__111char_traitsIcE4copyEPcPKcm", scope: !789, file: !790, line: 220, type: !814, isLocal: false, isDefinition: false, scopeLine: 220, flags: DIFlagPrototyped, isOptimized: true)
!818 = !DISubprogram(name: "assign", linkageName: "_ZNSt3__111char_traitsIcE6assignEPcmc", scope: !789, file: !790, line: 225, type: !819, isLocal: false, isDefinition: false, scopeLine: 225, flags: DIFlagPrototyped, isOptimized: true)
!819 = !DISubroutineType(types: !820)
!820 = !{!816, !816, !97, !796}
!821 = !DISubprogram(name: "not_eof", linkageName: "_ZNSt3__111char_traitsIcE7not_eofEi", scope: !789, file: !790, line: 228, type: !822, isLocal: false, isDefinition: false, scopeLine: 228, flags: DIFlagPrototyped, isOptimized: true)
!822 = !DISubroutineType(types: !823)
!823 = !{!824, !824}
!824 = !DIDerivedType(tag: DW_TAG_typedef, name: "int_type", scope: !789, file: !790, line: 200, baseType: !39)
!825 = !DISubprogram(name: "to_char_type", linkageName: "_ZNSt3__111char_traitsIcE12to_char_typeEi", scope: !789, file: !790, line: 230, type: !826, isLocal: false, isDefinition: false, scopeLine: 230, flags: DIFlagPrototyped, isOptimized: true)
!826 = !DISubroutineType(types: !827)
!827 = !{!796, !824}
!828 = !DISubprogram(name: "to_int_type", linkageName: "_ZNSt3__111char_traitsIcE11to_int_typeEc", scope: !789, file: !790, line: 232, type: !829, isLocal: false, isDefinition: false, scopeLine: 232, flags: DIFlagPrototyped, isOptimized: true)
!829 = !DISubroutineType(types: !830)
!830 = !{!824, !796}
!831 = !DISubprogram(name: "eq_int_type", linkageName: "_ZNSt3__111char_traitsIcE11eq_int_typeEii", scope: !789, file: !790, line: 234, type: !832, isLocal: false, isDefinition: false, scopeLine: 234, flags: DIFlagPrototyped, isOptimized: true)
!832 = !DISubroutineType(types: !833)
!833 = !{!117, !824, !824}
!834 = !DISubprogram(name: "eof", linkageName: "_ZNSt3__111char_traitsIcE3eofEv", scope: !789, file: !790, line: 236, type: !835, isLocal: false, isDefinition: false, scopeLine: 236, flags: DIFlagPrototyped, isOptimized: true)
!835 = !DISubroutineType(types: !836)
!836 = !{!824}
!837 = !{!787}
!838 = !DISubprogram(name: "basic_string", scope: !330, file: !331, line: 802, type: !839, isLocal: false, isDefinition: false, scopeLine: 802, flags: DIFlagPublic | DIFlagPrototyped, isOptimized: true)
!839 = !DISubroutineType(types: !840)
!840 = !{null, !604, !653, !570}
!841 = !DISubprogram(name: "basic_string", scope: !330, file: !331, line: 811, type: !842, isLocal: false, isDefinition: false, scopeLine: 811, flags: DIFlagPublic | DIFlagPrototyped, isOptimized: true)
!842 = !DISubroutineType(types: !843)
!843 = !{null, !604, !844}
!844 = distinct !DICompositeType(tag: DW_TAG_class_type, name: "initializer_list<char>", scope: !9, file: !845, line: 59, size: 128, elements: !846, templateParams: !865, identifier: "_ZTSSt16initializer_listIcE")
!845 = !DIFile(filename: "/Users/aser/Documents/LLVM/llvm-4.0/build/bin/../include/c++/v1/initializer_list", directory: "/Users/aser/Dropbox/papers/C++11/Checker11/examples/fence2")
!846 = !{!847, !848, !849, !853, !856, !861, !864}
!847 = !DIDerivedType(tag: DW_TAG_member, name: "__begin_", scope: !844, file: !845, line: 61, baseType: !320, size: 64)
!848 = !DIDerivedType(tag: DW_TAG_member, name: "__size_", scope: !844, file: !845, line: 62, baseType: !97, size: 64, offset: 64)
!849 = !DISubprogram(name: "initializer_list", scope: !844, file: !845, line: 66, type: !850, isLocal: false, isDefinition: false, scopeLine: 66, flags: DIFlagPrototyped, isOptimized: true)
!850 = !DISubroutineType(types: !851)
!851 = !{null, !852, !320, !97}
!852 = !DIDerivedType(tag: DW_TAG_pointer_type, baseType: !844, size: 64, flags: DIFlagArtificial | DIFlagObjectPointer)
!853 = !DISubprogram(name: "initializer_list", scope: !844, file: !845, line: 81, type: !854, isLocal: false, isDefinition: false, scopeLine: 81, flags: DIFlagPublic | DIFlagPrototyped, isOptimized: true)
!854 = !DISubroutineType(types: !855)
!855 = !{null, !852}
!856 = !DISubprogram(name: "size", linkageName: "_ZNKSt16initializer_listIcE4sizeEv", scope: !844, file: !845, line: 85, type: !857, isLocal: false, isDefinition: false, scopeLine: 85, flags: DIFlagPublic | DIFlagPrototyped, isOptimized: true)
!857 = !DISubroutineType(types: !858)
!858 = !{!97, !859}
!859 = !DIDerivedType(tag: DW_TAG_pointer_type, baseType: !860, size: 64, flags: DIFlagArtificial | DIFlagObjectPointer)
!860 = !DIDerivedType(tag: DW_TAG_const_type, baseType: !844)
!861 = !DISubprogram(name: "begin", linkageName: "_ZNKSt16initializer_listIcE5beginEv", scope: !844, file: !845, line: 89, type: !862, isLocal: false, isDefinition: false, scopeLine: 89, flags: DIFlagPublic | DIFlagPrototyped, isOptimized: true)
!862 = !DISubroutineType(types: !863)
!863 = !{!320, !859}
!864 = !DISubprogram(name: "end", linkageName: "_ZNKSt16initializer_listIcE3endEv", scope: !844, file: !845, line: 93, type: !862, isLocal: false, isDefinition: false, scopeLine: 93, flags: DIFlagPublic | DIFlagPrototyped, isOptimized: true)
!865 = !{!866}
!866 = !DITemplateTypeParameter(name: "_Ep", type: !322)
!867 = !DISubprogram(name: "basic_string", scope: !330, file: !331, line: 813, type: !868, isLocal: false, isDefinition: false, scopeLine: 813, flags: DIFlagPublic | DIFlagPrototyped, isOptimized: true)
!868 = !DISubroutineType(types: !869)
!869 = !{null, !604, !844, !570}
!870 = !DISubprogram(name: "~basic_string", scope: !330, file: !331, line: 816, type: !602, isLocal: false, isDefinition: false, scopeLine: 816, flags: DIFlagPublic | DIFlagPrototyped, isOptimized: true)
!871 = !DISubprogram(name: "operator basic_string_view", linkageName: "_ZNKSt3__112basic_stringIcNS_11char_traitsIcEENS_9allocatorIcEEEcvNS_17basic_string_viewIcS2_EEEv", scope: !330, file: !331, line: 819, type: !872, isLocal: false, isDefinition: false, scopeLine: 819, flags: DIFlagPublic | DIFlagPrototyped, isOptimized: true)
!872 = !DISubroutineType(types: !873)
!873 = !{!653, !874}
!874 = !DIDerivedType(tag: DW_TAG_pointer_type, baseType: !615, size: 64, flags: DIFlagArtificial | DIFlagObjectPointer)
!875 = !DISubprogram(name: "operator=", linkageName: "_ZNSt3__112basic_stringIcNS_11char_traitsIcEENS_9allocatorIcEEEaSERKS5_", scope: !330, file: !331, line: 821, type: !876, isLocal: false, isDefinition: false, scopeLine: 821, flags: DIFlagPublic | DIFlagPrototyped, isOptimized: true)
!876 = !DISubroutineType(types: !877)
!877 = !{!878, !604, !614}
!878 = !DIDerivedType(tag: DW_TAG_reference_type, baseType: !330, size: 64)
!879 = !DISubprogram(name: "operator=", linkageName: "_ZNSt3__112basic_stringIcNS_11char_traitsIcEENS_9allocatorIcEEEaSEOS5_", scope: !330, file: !331, line: 830, type: !880, isLocal: false, isDefinition: false, scopeLine: 830, flags: DIFlagPublic | DIFlagPrototyped, isOptimized: true)
!880 = !DISubroutineType(types: !881)
!881 = !{!878, !604, !622}
!882 = !DISubprogram(name: "operator=", linkageName: "_ZNSt3__112basic_stringIcNS_11char_traitsIcEENS_9allocatorIcEEEaSESt16initializer_listIcE", scope: !330, file: !331, line: 833, type: !883, isLocal: false, isDefinition: false, scopeLine: 833, flags: DIFlagPublic | DIFlagPrototyped, isOptimized: true)
!883 = !DISubroutineType(types: !884)
!884 = !{!878, !604, !844}
!885 = !DISubprogram(name: "operator=", linkageName: "_ZNSt3__112basic_stringIcNS_11char_traitsIcEENS_9allocatorIcEEEaSEPKc", scope: !330, file: !331, line: 835, type: !886, isLocal: false, isDefinition: false, scopeLine: 835, flags: DIFlagPublic | DIFlagPrototyped, isOptimized: true)
!886 = !DISubroutineType(types: !887)
!887 = !{!878, !604, !888}
!888 = !DIDerivedType(tag: DW_TAG_pointer_type, baseType: !889, size: 64)
!889 = !DIDerivedType(tag: DW_TAG_const_type, baseType: !520)
!890 = !DISubprogram(name: "operator=", linkageName: "_ZNSt3__112basic_stringIcNS_11char_traitsIcEENS_9allocatorIcEEEaSEc", scope: !330, file: !331, line: 836, type: !891, isLocal: false, isDefinition: false, scopeLine: 836, flags: DIFlagPublic | DIFlagPrototyped, isOptimized: true)
!891 = !DISubroutineType(types: !892)
!892 = !{!878, !604, !520}
!893 = !DISubprogram(name: "begin", linkageName: "_ZNSt3__112basic_stringIcNS_11char_traitsIcEENS_9allocatorIcEEE5beginEv", scope: !330, file: !331, line: 853, type: !894, isLocal: false, isDefinition: false, scopeLine: 853, flags: DIFlagPublic | DIFlagPrototyped, isOptimized: true)
!894 = !DISubroutineType(types: !895)
!895 = !{!896, !604}
!896 = !DIDerivedType(tag: DW_TAG_typedef, name: "iterator", scope: !330, file: !331, line: 659, baseType: !897)
!897 = distinct !DICompositeType(tag: DW_TAG_class_type, name: "__wrap_iter<char *>", scope: !7, file: !698, line: 1279, flags: DIFlagFwdDecl, identifier: "_ZTSNSt3__111__wrap_iterIPcEE")
!898 = !DISubprogram(name: "begin", linkageName: "_ZNKSt3__112basic_stringIcNS_11char_traitsIcEENS_9allocatorIcEEE5beginEv", scope: !330, file: !331, line: 856, type: !899, isLocal: false, isDefinition: false, scopeLine: 856, flags: DIFlagPublic | DIFlagPrototyped, isOptimized: true)
!899 = !DISubroutineType(types: !900)
!900 = !{!901, !874}
!901 = !DIDerivedType(tag: DW_TAG_typedef, name: "const_iterator", scope: !330, file: !331, line: 660, baseType: !902)
!902 = distinct !DICompositeType(tag: DW_TAG_class_type, name: "__wrap_iter<const char *>", scope: !7, file: !698, line: 1279, flags: DIFlagFwdDecl, identifier: "_ZTSNSt3__111__wrap_iterIPKcEE")
!903 = !DISubprogram(name: "end", linkageName: "_ZNSt3__112basic_stringIcNS_11char_traitsIcEENS_9allocatorIcEEE3endEv", scope: !330, file: !331, line: 859, type: !894, isLocal: false, isDefinition: false, scopeLine: 859, flags: DIFlagPublic | DIFlagPrototyped, isOptimized: true)
!904 = !DISubprogram(name: "end", linkageName: "_ZNKSt3__112basic_stringIcNS_11char_traitsIcEENS_9allocatorIcEEE3endEv", scope: !330, file: !331, line: 862, type: !899, isLocal: false, isDefinition: false, scopeLine: 862, flags: DIFlagPublic | DIFlagPrototyped, isOptimized: true)
!905 = !DISubprogram(name: "rbegin", linkageName: "_ZNSt3__112basic_stringIcNS_11char_traitsIcEENS_9allocatorIcEEE6rbeginEv", scope: !330, file: !331, line: 866, type: !906, isLocal: false, isDefinition: false, scopeLine: 866, flags: DIFlagPublic | DIFlagPrototyped, isOptimized: true)
!906 = !DISubroutineType(types: !907)
!907 = !{!908, !604}
!908 = !DIDerivedType(tag: DW_TAG_typedef, name: "reverse_iterator", scope: !330, file: !331, line: 662, baseType: !909)
!909 = distinct !DICompositeType(tag: DW_TAG_class_type, name: "reverse_iterator<std::__1::__wrap_iter<char *> >", scope: !7, file: !698, line: 636, flags: DIFlagFwdDecl, identifier: "_ZTSNSt3__116reverse_iteratorINS_11__wrap_iterIPcEEEE")
!910 = !DISubprogram(name: "rbegin", linkageName: "_ZNKSt3__112basic_stringIcNS_11char_traitsIcEENS_9allocatorIcEEE6rbeginEv", scope: !330, file: !331, line: 869, type: !911, isLocal: false, isDefinition: false, scopeLine: 869, flags: DIFlagPublic | DIFlagPrototyped, isOptimized: true)
!911 = !DISubroutineType(types: !912)
!912 = !{!913, !874}
!913 = !DIDerivedType(tag: DW_TAG_typedef, name: "const_reverse_iterator", scope: !330, file: !331, line: 663, baseType: !914)
!914 = distinct !DICompositeType(tag: DW_TAG_class_type, name: "reverse_iterator<std::__1::__wrap_iter<const char *> >", scope: !7, file: !698, line: 636, flags: DIFlagFwdDecl, identifier: "_ZTSNSt3__116reverse_iteratorINS_11__wrap_iterIPKcEEEE")
!915 = !DISubprogram(name: "rend", linkageName: "_ZNSt3__112basic_stringIcNS_11char_traitsIcEENS_9allocatorIcEEE4rendEv", scope: !330, file: !331, line: 872, type: !906, isLocal: false, isDefinition: false, scopeLine: 872, flags: DIFlagPublic | DIFlagPrototyped, isOptimized: true)
!916 = !DISubprogram(name: "rend", linkageName: "_ZNKSt3__112basic_stringIcNS_11char_traitsIcEENS_9allocatorIcEEE4rendEv", scope: !330, file: !331, line: 875, type: !911, isLocal: false, isDefinition: false, scopeLine: 875, flags: DIFlagPublic | DIFlagPrototyped, isOptimized: true)
!917 = !DISubprogram(name: "cbegin", linkageName: "_ZNKSt3__112basic_stringIcNS_11char_traitsIcEENS_9allocatorIcEEE6cbeginEv", scope: !330, file: !331, line: 879, type: !899, isLocal: false, isDefinition: false, scopeLine: 879, flags: DIFlagPublic | DIFlagPrototyped, isOptimized: true)
!918 = !DISubprogram(name: "cend", linkageName: "_ZNKSt3__112basic_stringIcNS_11char_traitsIcEENS_9allocatorIcEEE4cendEv", scope: !330, file: !331, line: 882, type: !899, isLocal: false, isDefinition: false, scopeLine: 882, flags: DIFlagPublic | DIFlagPrototyped, isOptimized: true)
!919 = !DISubprogram(name: "crbegin", linkageName: "_ZNKSt3__112basic_stringIcNS_11char_traitsIcEENS_9allocatorIcEEE7crbeginEv", scope: !330, file: !331, line: 885, type: !911, isLocal: false, isDefinition: false, scopeLine: 885, flags: DIFlagPublic | DIFlagPrototyped, isOptimized: true)
!920 = !DISubprogram(name: "crend", linkageName: "_ZNKSt3__112basic_stringIcNS_11char_traitsIcEENS_9allocatorIcEEE5crendEv", scope: !330, file: !331, line: 888, type: !911, isLocal: false, isDefinition: false, scopeLine: 888, flags: DIFlagPublic | DIFlagPrototyped, isOptimized: true)
!921 = !DISubprogram(name: "size", linkageName: "_ZNKSt3__112basic_stringIcNS_11char_traitsIcEENS_9allocatorIcEEE4sizeEv", scope: !330, file: !331, line: 891, type: !922, isLocal: false, isDefinition: false, scopeLine: 891, flags: DIFlagPublic | DIFlagPrototyped, isOptimized: true)
!922 = !DISubroutineType(types: !923)
!923 = !{!360, !874}
!924 = !DISubprogram(name: "length", linkageName: "_ZNKSt3__112basic_stringIcNS_11char_traitsIcEENS_9allocatorIcEEE6lengthEv", scope: !330, file: !331, line: 893, type: !922, isLocal: false, isDefinition: false, scopeLine: 893, flags: DIFlagPublic | DIFlagPrototyped, isOptimized: true)
!925 = !DISubprogram(name: "max_size", linkageName: "_ZNKSt3__112basic_stringIcNS_11char_traitsIcEENS_9allocatorIcEEE8max_sizeEv", scope: !330, file: !331, line: 894, type: !922, isLocal: false, isDefinition: false, scopeLine: 894, flags: DIFlagPublic | DIFlagPrototyped, isOptimized: true)
!926 = !DISubprogram(name: "capacity", linkageName: "_ZNKSt3__112basic_stringIcNS_11char_traitsIcEENS_9allocatorIcEEE8capacityEv", scope: !330, file: !331, line: 895, type: !922, isLocal: false, isDefinition: false, scopeLine: 895, flags: DIFlagPublic | DIFlagPrototyped, isOptimized: true)
!927 = !DISubprogram(name: "resize", linkageName: "_ZNSt3__112basic_stringIcNS_11char_traitsIcEENS_9allocatorIcEEE6resizeEmc", scope: !330, file: !331, line: 899, type: !928, isLocal: false, isDefinition: false, scopeLine: 899, flags: DIFlagPublic | DIFlagPrototyped, isOptimized: true)
!928 = !DISubroutineType(types: !929)
!929 = !{null, !604, !360, !520}
!930 = !DISubprogram(name: "resize", linkageName: "_ZNSt3__112basic_stringIcNS_11char_traitsIcEENS_9allocatorIcEEE6resizeEm", scope: !330, file: !331, line: 900, type: !931, isLocal: false, isDefinition: false, scopeLine: 900, flags: DIFlagPublic | DIFlagPrototyped, isOptimized: true)
!931 = !DISubroutineType(types: !932)
!932 = !{null, !604, !360}
!933 = !DISubprogram(name: "reserve", linkageName: "_ZNSt3__112basic_stringIcNS_11char_traitsIcEENS_9allocatorIcEEE7reserveEm", scope: !330, file: !331, line: 902, type: !931, isLocal: false, isDefinition: false, scopeLine: 902, flags: DIFlagPublic | DIFlagPrototyped, isOptimized: true)
!934 = !DISubprogram(name: "shrink_to_fit", linkageName: "_ZNSt3__112basic_stringIcNS_11char_traitsIcEENS_9allocatorIcEEE13shrink_to_fitEv", scope: !330, file: !331, line: 904, type: !602, isLocal: false, isDefinition: false, scopeLine: 904, flags: DIFlagPublic | DIFlagPrototyped, isOptimized: true)
!935 = !DISubprogram(name: "clear", linkageName: "_ZNSt3__112basic_stringIcNS_11char_traitsIcEENS_9allocatorIcEEE5clearEv", scope: !330, file: !331, line: 906, type: !602, isLocal: false, isDefinition: false, scopeLine: 906, flags: DIFlagPublic | DIFlagPrototyped, isOptimized: true)
!936 = !DISubprogram(name: "empty", linkageName: "_ZNKSt3__112basic_stringIcNS_11char_traitsIcEENS_9allocatorIcEEE5emptyEv", scope: !330, file: !331, line: 907, type: !937, isLocal: false, isDefinition: false, scopeLine: 907, flags: DIFlagPublic | DIFlagPrototyped, isOptimized: true)
!937 = !DISubroutineType(types: !938)
!938 = !{!117, !874}
!939 = !DISubprogram(name: "operator[]", linkageName: "_ZNKSt3__112basic_stringIcNS_11char_traitsIcEENS_9allocatorIcEEEixEm", scope: !330, file: !331, line: 909, type: !940, isLocal: false, isDefinition: false, scopeLine: 909, flags: DIFlagPublic | DIFlagPrototyped, isOptimized: true)
!940 = !DISubroutineType(types: !941)
!941 = !{!942, !874, !360}
!942 = !DIDerivedType(tag: DW_TAG_typedef, name: "const_reference", scope: !330, file: !331, line: 646, baseType: !943)
!943 = !DIDerivedType(tag: DW_TAG_reference_type, baseType: !889, size: 64)
!944 = !DISubprogram(name: "operator[]", linkageName: "_ZNSt3__112basic_stringIcNS_11char_traitsIcEENS_9allocatorIcEEEixEm", scope: !330, file: !331, line: 910, type: !945, isLocal: false, isDefinition: false, scopeLine: 910, flags: DIFlagPublic | DIFlagPrototyped, isOptimized: true)
!945 = !DISubroutineType(types: !946)
!946 = !{!947, !604, !360}
!947 = !DIDerivedType(tag: DW_TAG_typedef, name: "reference", scope: !330, file: !331, line: 645, baseType: !948)
!948 = !DIDerivedType(tag: DW_TAG_reference_type, baseType: !520, size: 64)
!949 = !DISubprogram(name: "at", linkageName: "_ZNKSt3__112basic_stringIcNS_11char_traitsIcEENS_9allocatorIcEEE2atEm", scope: !330, file: !331, line: 912, type: !940, isLocal: false, isDefinition: false, scopeLine: 912, flags: DIFlagPublic | DIFlagPrototyped, isOptimized: true)
!950 = !DISubprogram(name: "at", linkageName: "_ZNSt3__112basic_stringIcNS_11char_traitsIcEENS_9allocatorIcEEE2atEm", scope: !330, file: !331, line: 913, type: !945, isLocal: false, isDefinition: false, scopeLine: 913, flags: DIFlagPublic | DIFlagPrototyped, isOptimized: true)
!951 = !DISubprogram(name: "operator+=", linkageName: "_ZNSt3__112basic_stringIcNS_11char_traitsIcEENS_9allocatorIcEEEpLERKS5_", scope: !330, file: !331, line: 915, type: !876, isLocal: false, isDefinition: false, scopeLine: 915, flags: DIFlagPublic | DIFlagPrototyped, isOptimized: true)
!952 = !DISubprogram(name: "operator+=", linkageName: "_ZNSt3__112basic_stringIcNS_11char_traitsIcEENS_9allocatorIcEEEpLENS_17basic_string_viewIcS2_EE", scope: !330, file: !331, line: 916, type: !953, isLocal: false, isDefinition: false, scopeLine: 916, flags: DIFlagPublic | DIFlagPrototyped, isOptimized: true)
!953 = !DISubroutineType(types: !954)
!954 = !{!878, !604, !653}
!955 = !DISubprogram(name: "operator+=", linkageName: "_ZNSt3__112basic_stringIcNS_11char_traitsIcEENS_9allocatorIcEEEpLEPKc", scope: !330, file: !331, line: 917, type: !886, isLocal: false, isDefinition: false, scopeLine: 917, flags: DIFlagPublic | DIFlagPrototyped, isOptimized: true)
!956 = !DISubprogram(name: "operator+=", linkageName: "_ZNSt3__112basic_stringIcNS_11char_traitsIcEENS_9allocatorIcEEEpLEc", scope: !330, file: !331, line: 918, type: !891, isLocal: false, isDefinition: false, scopeLine: 918, flags: DIFlagPublic | DIFlagPrototyped, isOptimized: true)
!957 = !DISubprogram(name: "operator+=", linkageName: "_ZNSt3__112basic_stringIcNS_11char_traitsIcEENS_9allocatorIcEEEpLESt16initializer_listIcE", scope: !330, file: !331, line: 920, type: !883, isLocal: false, isDefinition: false, scopeLine: 920, flags: DIFlagPublic | DIFlagPrototyped, isOptimized: true)
!958 = !DISubprogram(name: "append", linkageName: "_ZNSt3__112basic_stringIcNS_11char_traitsIcEENS_9allocatorIcEEE6appendERKS5_", scope: !330, file: !331, line: 924, type: !876, isLocal: false, isDefinition: false, scopeLine: 924, flags: DIFlagPublic | DIFlagPrototyped, isOptimized: true)
!959 = !DISubprogram(name: "append", linkageName: "_ZNSt3__112basic_stringIcNS_11char_traitsIcEENS_9allocatorIcEEE6appendENS_17basic_string_viewIcS2_EE", scope: !330, file: !331, line: 926, type: !953, isLocal: false, isDefinition: false, scopeLine: 926, flags: DIFlagPublic | DIFlagPrototyped, isOptimized: true)
!960 = !DISubprogram(name: "append", linkageName: "_ZNSt3__112basic_stringIcNS_11char_traitsIcEENS_9allocatorIcEEE6appendERKS5_mm", scope: !330, file: !331, line: 927, type: !961, isLocal: false, isDefinition: false, scopeLine: 927, flags: DIFlagPublic | DIFlagPrototyped, isOptimized: true)
!961 = !DISubroutineType(types: !962)
!962 = !{!878, !604, !614, !360, !360}
!963 = !DISubprogram(name: "append", linkageName: "_ZNSt3__112basic_stringIcNS_11char_traitsIcEENS_9allocatorIcEEE6appendEPKcm", scope: !330, file: !331, line: 936, type: !964, isLocal: false, isDefinition: false, scopeLine: 936, flags: DIFlagPublic | DIFlagPrototyped, isOptimized: true)
!964 = !DISubroutineType(types: !965)
!965 = !{!878, !604, !888, !360}
!966 = !DISubprogram(name: "append", linkageName: "_ZNSt3__112basic_stringIcNS_11char_traitsIcEENS_9allocatorIcEEE6appendEPKc", scope: !330, file: !331, line: 937, type: !886, isLocal: false, isDefinition: false, scopeLine: 937, flags: DIFlagPublic | DIFlagPrototyped, isOptimized: true)
!967 = !DISubprogram(name: "append", linkageName: "_ZNSt3__112basic_stringIcNS_11char_traitsIcEENS_9allocatorIcEEE6appendEmc", scope: !330, file: !331, line: 938, type: !968, isLocal: false, isDefinition: false, scopeLine: 938, flags: DIFlagPublic | DIFlagPrototyped, isOptimized: true)
!968 = !DISubroutineType(types: !969)
!969 = !{!878, !604, !360, !520}
!970 = !DISubprogram(name: "append", linkageName: "_ZNSt3__112basic_stringIcNS_11char_traitsIcEENS_9allocatorIcEEE6appendESt16initializer_listIcE", scope: !330, file: !331, line: 971, type: !883, isLocal: false, isDefinition: false, scopeLine: 971, flags: DIFlagPublic | DIFlagPrototyped, isOptimized: true)
!971 = !DISubprogram(name: "push_back", linkageName: "_ZNSt3__112basic_stringIcNS_11char_traitsIcEENS_9allocatorIcEEE9push_backEc", scope: !330, file: !331, line: 974, type: !972, isLocal: false, isDefinition: false, scopeLine: 974, flags: DIFlagPublic | DIFlagPrototyped, isOptimized: true)
!972 = !DISubroutineType(types: !973)
!973 = !{null, !604, !520}
!974 = !DISubprogram(name: "pop_back", linkageName: "_ZNSt3__112basic_stringIcNS_11char_traitsIcEENS_9allocatorIcEEE8pop_backEv", scope: !330, file: !331, line: 976, type: !602, isLocal: false, isDefinition: false, scopeLine: 976, flags: DIFlagPublic | DIFlagPrototyped, isOptimized: true)
!975 = !DISubprogram(name: "front", linkageName: "_ZNSt3__112basic_stringIcNS_11char_traitsIcEENS_9allocatorIcEEE5frontEv", scope: !330, file: !331, line: 977, type: !976, isLocal: false, isDefinition: false, scopeLine: 977, flags: DIFlagPublic | DIFlagPrototyped, isOptimized: true)
!976 = !DISubroutineType(types: !977)
!977 = !{!947, !604}
!978 = !DISubprogram(name: "front", linkageName: "_ZNKSt3__112basic_stringIcNS_11char_traitsIcEENS_9allocatorIcEEE5frontEv", scope: !330, file: !331, line: 978, type: !979, isLocal: false, isDefinition: false, scopeLine: 978, flags: DIFlagPublic | DIFlagPrototyped, isOptimized: true)
!979 = !DISubroutineType(types: !980)
!980 = !{!942, !874}
!981 = !DISubprogram(name: "back", linkageName: "_ZNSt3__112basic_stringIcNS_11char_traitsIcEENS_9allocatorIcEEE4backEv", scope: !330, file: !331, line: 979, type: !976, isLocal: false, isDefinition: false, scopeLine: 979, flags: DIFlagPublic | DIFlagPrototyped, isOptimized: true)
!982 = !DISubprogram(name: "back", linkageName: "_ZNKSt3__112basic_stringIcNS_11char_traitsIcEENS_9allocatorIcEEE4backEv", scope: !330, file: !331, line: 980, type: !979, isLocal: false, isDefinition: false, scopeLine: 980, flags: DIFlagPublic | DIFlagPrototyped, isOptimized: true)
!983 = !DISubprogram(name: "assign", linkageName: "_ZNSt3__112basic_stringIcNS_11char_traitsIcEENS_9allocatorIcEEE6assignENS_17basic_string_viewIcS2_EE", scope: !330, file: !331, line: 983, type: !953, isLocal: false, isDefinition: false, scopeLine: 983, flags: DIFlagPublic | DIFlagPrototyped, isOptimized: true)
!984 = !DISubprogram(name: "assign", linkageName: "_ZNSt3__112basic_stringIcNS_11char_traitsIcEENS_9allocatorIcEEE6assignERKS5_", scope: !330, file: !331, line: 985, type: !876, isLocal: false, isDefinition: false, scopeLine: 985, flags: DIFlagPublic | DIFlagPrototyped, isOptimized: true)
!985 = !DISubprogram(name: "assign", linkageName: "_ZNSt3__112basic_stringIcNS_11char_traitsIcEENS_9allocatorIcEEE6assignEOS5_", scope: !330, file: !331, line: 988, type: !880, isLocal: false, isDefinition: false, scopeLine: 988, flags: DIFlagPublic | DIFlagPrototyped, isOptimized: true)
!986 = !DISubprogram(name: "assign", linkageName: "_ZNSt3__112basic_stringIcNS_11char_traitsIcEENS_9allocatorIcEEE6assignERKS5_mm", scope: !330, file: !331, line: 992, type: !961, isLocal: false, isDefinition: false, scopeLine: 992, flags: DIFlagPublic | DIFlagPrototyped, isOptimized: true)
!987 = !DISubprogram(name: "assign", linkageName: "_ZNSt3__112basic_stringIcNS_11char_traitsIcEENS_9allocatorIcEEE6assignEPKcm", scope: !330, file: !331, line: 1001, type: !964, isLocal: false, isDefinition: false, scopeLine: 1001, flags: DIFlagPublic | DIFlagPrototyped, isOptimized: true)
!988 = !DISubprogram(name: "assign", linkageName: "_ZNSt3__112basic_stringIcNS_11char_traitsIcEENS_9allocatorIcEEE6assignEPKc", scope: !330, file: !331, line: 1002, type: !886, isLocal: false, isDefinition: false, scopeLine: 1002, flags: DIFlagPublic | DIFlagPrototyped, isOptimized: true)
!989 = !DISubprogram(name: "assign", linkageName: "_ZNSt3__112basic_stringIcNS_11char_traitsIcEENS_9allocatorIcEEE6assignEmc", scope: !330, file: !331, line: 1003, type: !968, isLocal: false, isDefinition: false, scopeLine: 1003, flags: DIFlagPublic | DIFlagPrototyped, isOptimized: true)
!990 = !DISubprogram(name: "assign", linkageName: "_ZNSt3__112basic_stringIcNS_11char_traitsIcEENS_9allocatorIcEEE6assignESt16initializer_listIcE", scope: !330, file: !331, line: 1024, type: !883, isLocal: false, isDefinition: false, scopeLine: 1024, flags: DIFlagPublic | DIFlagPrototyped, isOptimized: true)
!991 = !DISubprogram(name: "insert", linkageName: "_ZNSt3__112basic_stringIcNS_11char_traitsIcEENS_9allocatorIcEEE6insertEmRKS5_", scope: !330, file: !331, line: 1028, type: !992, isLocal: false, isDefinition: false, scopeLine: 1028, flags: DIFlagPublic | DIFlagPrototyped, isOptimized: true)
!992 = !DISubroutineType(types: !993)
!993 = !{!878, !604, !360, !614}
!994 = !DISubprogram(name: "insert", linkageName: "_ZNSt3__112basic_stringIcNS_11char_traitsIcEENS_9allocatorIcEEE6insertEmNS_17basic_string_viewIcS2_EE", scope: !330, file: !331, line: 1030, type: !995, isLocal: false, isDefinition: false, scopeLine: 1030, flags: DIFlagPublic | DIFlagPrototyped, isOptimized: true)
!995 = !DISubroutineType(types: !996)
!996 = !{!878, !604, !360, !653}
!997 = !DISubprogram(name: "insert", linkageName: "_ZNSt3__112basic_stringIcNS_11char_traitsIcEENS_9allocatorIcEEE6insertEmRKS5_mm", scope: !330, file: !331, line: 1039, type: !998, isLocal: false, isDefinition: false, scopeLine: 1039, flags: DIFlagPublic | DIFlagPrototyped, isOptimized: true)
!998 = !DISubroutineType(types: !999)
!999 = !{!878, !604, !360, !614, !360, !360}
!1000 = !DISubprogram(name: "insert", linkageName: "_ZNSt3__112basic_stringIcNS_11char_traitsIcEENS_9allocatorIcEEE6insertEmPKcm", scope: !330, file: !331, line: 1040, type: !1001, isLocal: false, isDefinition: false, scopeLine: 1040, flags: DIFlagPublic | DIFlagPrototyped, isOptimized: true)
!1001 = !DISubroutineType(types: !1002)
!1002 = !{!878, !604, !360, !888, !360}
!1003 = !DISubprogram(name: "insert", linkageName: "_ZNSt3__112basic_stringIcNS_11char_traitsIcEENS_9allocatorIcEEE6insertEmPKc", scope: !330, file: !331, line: 1041, type: !1004, isLocal: false, isDefinition: false, scopeLine: 1041, flags: DIFlagPublic | DIFlagPrototyped, isOptimized: true)
!1004 = !DISubroutineType(types: !1005)
!1005 = !{!878, !604, !360, !888}
!1006 = !DISubprogram(name: "insert", linkageName: "_ZNSt3__112basic_stringIcNS_11char_traitsIcEENS_9allocatorIcEEE6insertEmmc", scope: !330, file: !331, line: 1042, type: !1007, isLocal: false, isDefinition: false, scopeLine: 1042, flags: DIFlagPublic | DIFlagPrototyped, isOptimized: true)
!1007 = !DISubroutineType(types: !1008)
!1008 = !{!878, !604, !360, !360, !520}
!1009 = !DISubprogram(name: "insert", linkageName: "_ZNSt3__112basic_stringIcNS_11char_traitsIcEENS_9allocatorIcEEE6insertENS_11__wrap_iterIPKcEEc", scope: !330, file: !331, line: 1043, type: !1010, isLocal: false, isDefinition: false, scopeLine: 1043, flags: DIFlagPublic | DIFlagPrototyped, isOptimized: true)
!1010 = !DISubroutineType(types: !1011)
!1011 = !{!896, !604, !901, !520}
!1012 = !DISubprogram(name: "insert", linkageName: "_ZNSt3__112basic_stringIcNS_11char_traitsIcEENS_9allocatorIcEEE6insertENS_11__wrap_iterIPKcEEmc", scope: !330, file: !331, line: 1045, type: !1013, isLocal: false, isDefinition: false, scopeLine: 1045, flags: DIFlagPublic | DIFlagPrototyped, isOptimized: true)
!1013 = !DISubroutineType(types: !1014)
!1014 = !{!896, !604, !901, !360, !520}
!1015 = !DISubprogram(name: "insert", linkageName: "_ZNSt3__112basic_stringIcNS_11char_traitsIcEENS_9allocatorIcEEE6insertENS_11__wrap_iterIPKcEESt16initializer_listIcE", scope: !330, file: !331, line: 1066, type: !1016, isLocal: false, isDefinition: false, scopeLine: 1066, flags: DIFlagPublic | DIFlagPrototyped, isOptimized: true)
!1016 = !DISubroutineType(types: !1017)
!1017 = !{!896, !604, !901, !844}
!1018 = !DISubprogram(name: "erase", linkageName: "_ZNSt3__112basic_stringIcNS_11char_traitsIcEENS_9allocatorIcEEE5eraseEmm", scope: !330, file: !331, line: 1070, type: !1019, isLocal: false, isDefinition: false, scopeLine: 1070, flags: DIFlagPublic | DIFlagPrototyped, isOptimized: true)
!1019 = !DISubroutineType(types: !1020)
!1020 = !{!878, !604, !360, !360}
!1021 = !DISubprogram(name: "erase", linkageName: "_ZNSt3__112basic_stringIcNS_11char_traitsIcEENS_9allocatorIcEEE5eraseENS_11__wrap_iterIPKcEE", scope: !330, file: !331, line: 1072, type: !1022, isLocal: false, isDefinition: false, scopeLine: 1072, flags: DIFlagPublic | DIFlagPrototyped, isOptimized: true)
!1022 = !DISubroutineType(types: !1023)
!1023 = !{!896, !604, !901}
!1024 = !DISubprogram(name: "erase", linkageName: "_ZNSt3__112basic_stringIcNS_11char_traitsIcEENS_9allocatorIcEEE5eraseENS_11__wrap_iterIPKcEES9_", scope: !330, file: !331, line: 1074, type: !1025, isLocal: false, isDefinition: false, scopeLine: 1074, flags: DIFlagPublic | DIFlagPrototyped, isOptimized: true)
!1025 = !DISubroutineType(types: !1026)
!1026 = !{!896, !604, !901, !901}
!1027 = !DISubprogram(name: "replace", linkageName: "_ZNSt3__112basic_stringIcNS_11char_traitsIcEENS_9allocatorIcEEE7replaceEmmRKS5_", scope: !330, file: !331, line: 1077, type: !1028, isLocal: false, isDefinition: false, scopeLine: 1077, flags: DIFlagPublic | DIFlagPrototyped, isOptimized: true)
!1028 = !DISubroutineType(types: !1029)
!1029 = !{!878, !604, !360, !360, !614}
!1030 = !DISubprogram(name: "replace", linkageName: "_ZNSt3__112basic_stringIcNS_11char_traitsIcEENS_9allocatorIcEEE7replaceEmmNS_17basic_string_viewIcS2_EE", scope: !330, file: !331, line: 1079, type: !1031, isLocal: false, isDefinition: false, scopeLine: 1079, flags: DIFlagPublic | DIFlagPrototyped, isOptimized: true)
!1031 = !DISubroutineType(types: !1032)
!1032 = !{!878, !604, !360, !360, !653}
!1033 = !DISubprogram(name: "replace", linkageName: "_ZNSt3__112basic_stringIcNS_11char_traitsIcEENS_9allocatorIcEEE7replaceEmmRKS5_mm", scope: !330, file: !331, line: 1080, type: !1034, isLocal: false, isDefinition: false, scopeLine: 1080, flags: DIFlagPublic | DIFlagPrototyped, isOptimized: true)
!1034 = !DISubroutineType(types: !1035)
!1035 = !{!878, !604, !360, !360, !614, !360, !360}
!1036 = !DISubprogram(name: "replace", linkageName: "_ZNSt3__112basic_stringIcNS_11char_traitsIcEENS_9allocatorIcEEE7replaceEmmPKcm", scope: !330, file: !331, line: 1089, type: !1037, isLocal: false, isDefinition: false, scopeLine: 1089, flags: DIFlagPublic | DIFlagPrototyped, isOptimized: true)
!1037 = !DISubroutineType(types: !1038)
!1038 = !{!878, !604, !360, !360, !888, !360}
!1039 = !DISubprogram(name: "replace", linkageName: "_ZNSt3__112basic_stringIcNS_11char_traitsIcEENS_9allocatorIcEEE7replaceEmmPKc", scope: !330, file: !331, line: 1090, type: !1040, isLocal: false, isDefinition: false, scopeLine: 1090, flags: DIFlagPublic | DIFlagPrototyped, isOptimized: true)
!1040 = !DISubroutineType(types: !1041)
!1041 = !{!878, !604, !360, !360, !888}
!1042 = !DISubprogram(name: "replace", linkageName: "_ZNSt3__112basic_stringIcNS_11char_traitsIcEENS_9allocatorIcEEE7replaceEmmmc", scope: !330, file: !331, line: 1091, type: !1043, isLocal: false, isDefinition: false, scopeLine: 1091, flags: DIFlagPublic | DIFlagPrototyped, isOptimized: true)
!1043 = !DISubroutineType(types: !1044)
!1044 = !{!878, !604, !360, !360, !360, !520}
!1045 = !DISubprogram(name: "replace", linkageName: "_ZNSt3__112basic_stringIcNS_11char_traitsIcEENS_9allocatorIcEEE7replaceENS_11__wrap_iterIPKcEES9_RKS5_", scope: !330, file: !331, line: 1093, type: !1046, isLocal: false, isDefinition: false, scopeLine: 1093, flags: DIFlagPublic | DIFlagPrototyped, isOptimized: true)
!1046 = !DISubroutineType(types: !1047)
!1047 = !{!878, !604, !901, !901, !614}
!1048 = !DISubprogram(name: "replace", linkageName: "_ZNSt3__112basic_stringIcNS_11char_traitsIcEENS_9allocatorIcEEE7replaceENS_11__wrap_iterIPKcEES9_NS_17basic_string_viewIcS2_EE", scope: !330, file: !331, line: 1095, type: !1049, isLocal: false, isDefinition: false, scopeLine: 1095, flags: DIFlagPublic | DIFlagPrototyped, isOptimized: true)
!1049 = !DISubroutineType(types: !1050)
!1050 = !{!878, !604, !901, !901, !653}
!1051 = !DISubprogram(name: "replace", linkageName: "_ZNSt3__112basic_stringIcNS_11char_traitsIcEENS_9allocatorIcEEE7replaceENS_11__wrap_iterIPKcEES9_S8_m", scope: !330, file: !331, line: 1097, type: !1052, isLocal: false, isDefinition: false, scopeLine: 1097, flags: DIFlagPublic | DIFlagPrototyped, isOptimized: true)
!1052 = !DISubroutineType(types: !1053)
!1053 = !{!878, !604, !901, !901, !888, !360}
!1054 = !DISubprogram(name: "replace", linkageName: "_ZNSt3__112basic_stringIcNS_11char_traitsIcEENS_9allocatorIcEEE7replaceENS_11__wrap_iterIPKcEES9_S8_", scope: !330, file: !331, line: 1099, type: !1055, isLocal: false, isDefinition: false, scopeLine: 1099, flags: DIFlagPublic | DIFlagPrototyped, isOptimized: true)
!1055 = !DISubroutineType(types: !1056)
!1056 = !{!878, !604, !901, !901, !888}
!1057 = !DISubprogram(name: "replace", linkageName: "_ZNSt3__112basic_stringIcNS_11char_traitsIcEENS_9allocatorIcEEE7replaceENS_11__wrap_iterIPKcEES9_mc", scope: !330, file: !331, line: 1101, type: !1058, isLocal: false, isDefinition: false, scopeLine: 1101, flags: DIFlagPublic | DIFlagPrototyped, isOptimized: true)
!1058 = !DISubroutineType(types: !1059)
!1059 = !{!878, !604, !901, !901, !360, !520}
!1060 = !DISubprogram(name: "replace", linkageName: "_ZNSt3__112basic_stringIcNS_11char_traitsIcEENS_9allocatorIcEEE7replaceENS_11__wrap_iterIPKcEES9_St16initializer_listIcE", scope: !330, file: !331, line: 1112, type: !1061, isLocal: false, isDefinition: false, scopeLine: 1112, flags: DIFlagPublic | DIFlagPrototyped, isOptimized: true)
!1061 = !DISubroutineType(types: !1062)
!1062 = !{!878, !604, !901, !901, !844}
!1063 = !DISubprogram(name: "copy", linkageName: "_ZNKSt3__112basic_stringIcNS_11char_traitsIcEENS_9allocatorIcEEE4copyEPcmm", scope: !330, file: !331, line: 1116, type: !1064, isLocal: false, isDefinition: false, scopeLine: 1116, flags: DIFlagPublic | DIFlagPrototyped, isOptimized: true)
!1064 = !DISubroutineType(types: !1065)
!1065 = !{!360, !874, !1066, !360, !360}
!1066 = !DIDerivedType(tag: DW_TAG_pointer_type, baseType: !520, size: 64)
!1067 = !DISubprogram(name: "substr", linkageName: "_ZNKSt3__112basic_stringIcNS_11char_traitsIcEENS_9allocatorIcEEE6substrEmm", scope: !330, file: !331, line: 1118, type: !1068, isLocal: false, isDefinition: false, scopeLine: 1118, flags: DIFlagPublic | DIFlagPrototyped, isOptimized: true)
!1068 = !DISubroutineType(types: !1069)
!1069 = !{!330, !874, !360, !360}
!1070 = !DISubprogram(name: "swap", linkageName: "_ZNSt3__112basic_stringIcNS_11char_traitsIcEENS_9allocatorIcEEE4swapERS5_", scope: !330, file: !331, line: 1121, type: !1071, isLocal: false, isDefinition: false, scopeLine: 1121, flags: DIFlagPublic | DIFlagPrototyped, isOptimized: true)
!1071 = !DISubroutineType(types: !1072)
!1072 = !{null, !604, !878}
!1073 = !DISubprogram(name: "c_str", linkageName: "_ZNKSt3__112basic_stringIcNS_11char_traitsIcEENS_9allocatorIcEEE5c_strEv", scope: !330, file: !331, line: 1130, type: !1074, isLocal: false, isDefinition: false, scopeLine: 1130, flags: DIFlagPublic | DIFlagPrototyped, isOptimized: true)
!1074 = !DISubroutineType(types: !1075)
!1075 = !{!888, !874}
!1076 = !DISubprogram(name: "data", linkageName: "_ZNKSt3__112basic_stringIcNS_11char_traitsIcEENS_9allocatorIcEEE4dataEv", scope: !330, file: !331, line: 1132, type: !1074, isLocal: false, isDefinition: false, scopeLine: 1132, flags: DIFlagPublic | DIFlagPrototyped, isOptimized: true)
!1077 = !DISubprogram(name: "get_allocator", linkageName: "_ZNKSt3__112basic_stringIcNS_11char_traitsIcEENS_9allocatorIcEEE13get_allocatorEv", scope: !330, file: !331, line: 1139, type: !1078, isLocal: false, isDefinition: false, scopeLine: 1139, flags: DIFlagPublic | DIFlagPrototyped, isOptimized: true)
!1078 = !DISubroutineType(types: !1079)
!1079 = !{!610, !874}
!1080 = !DISubprogram(name: "find", linkageName: "_ZNKSt3__112basic_stringIcNS_11char_traitsIcEENS_9allocatorIcEEE4findERKS5_m", scope: !330, file: !331, line: 1142, type: !1081, isLocal: false, isDefinition: false, scopeLine: 1142, flags: DIFlagPublic | DIFlagPrototyped, isOptimized: true)
!1081 = !DISubroutineType(types: !1082)
!1082 = !{!360, !874, !614, !360}
!1083 = !DISubprogram(name: "find", linkageName: "_ZNKSt3__112basic_stringIcNS_11char_traitsIcEENS_9allocatorIcEEE4findENS_17basic_string_viewIcS2_EEm", scope: !330, file: !331, line: 1144, type: !1084, isLocal: false, isDefinition: false, scopeLine: 1144, flags: DIFlagPublic | DIFlagPrototyped, isOptimized: true)
!1084 = !DISubroutineType(types: !1085)
!1085 = !{!360, !874, !653, !360}
!1086 = !DISubprogram(name: "find", linkageName: "_ZNKSt3__112basic_stringIcNS_11char_traitsIcEENS_9allocatorIcEEE4findEPKcmm", scope: !330, file: !331, line: 1145, type: !1087, isLocal: false, isDefinition: false, scopeLine: 1145, flags: DIFlagPublic | DIFlagPrototyped, isOptimized: true)
!1087 = !DISubroutineType(types: !1088)
!1088 = !{!360, !874, !888, !360, !360}
!1089 = !DISubprogram(name: "find", linkageName: "_ZNKSt3__112basic_stringIcNS_11char_traitsIcEENS_9allocatorIcEEE4findEPKcm", scope: !330, file: !331, line: 1147, type: !1090, isLocal: false, isDefinition: false, scopeLine: 1147, flags: DIFlagPublic | DIFlagPrototyped, isOptimized: true)
!1090 = !DISubroutineType(types: !1091)
!1091 = !{!360, !874, !888, !360}
!1092 = !DISubprogram(name: "find", linkageName: "_ZNKSt3__112basic_stringIcNS_11char_traitsIcEENS_9allocatorIcEEE4findEcm", scope: !330, file: !331, line: 1148, type: !1093, isLocal: false, isDefinition: false, scopeLine: 1148, flags: DIFlagPublic | DIFlagPrototyped, isOptimized: true)
!1093 = !DISubroutineType(types: !1094)
!1094 = !{!360, !874, !520, !360}
!1095 = !DISubprogram(name: "rfind", linkageName: "_ZNKSt3__112basic_stringIcNS_11char_traitsIcEENS_9allocatorIcEEE5rfindERKS5_m", scope: !330, file: !331, line: 1151, type: !1081, isLocal: false, isDefinition: false, scopeLine: 1151, flags: DIFlagPublic | DIFlagPrototyped, isOptimized: true)
!1096 = !DISubprogram(name: "rfind", linkageName: "_ZNKSt3__112basic_stringIcNS_11char_traitsIcEENS_9allocatorIcEEE5rfindENS_17basic_string_viewIcS2_EEm", scope: !330, file: !331, line: 1153, type: !1084, isLocal: false, isDefinition: false, scopeLine: 1153, flags: DIFlagPublic | DIFlagPrototyped, isOptimized: true)
!1097 = !DISubprogram(name: "rfind", linkageName: "_ZNKSt3__112basic_stringIcNS_11char_traitsIcEENS_9allocatorIcEEE5rfindEPKcmm", scope: !330, file: !331, line: 1154, type: !1087, isLocal: false, isDefinition: false, scopeLine: 1154, flags: DIFlagPublic | DIFlagPrototyped, isOptimized: true)
!1098 = !DISubprogram(name: "rfind", linkageName: "_ZNKSt3__112basic_stringIcNS_11char_traitsIcEENS_9allocatorIcEEE5rfindEPKcm", scope: !330, file: !331, line: 1156, type: !1090, isLocal: false, isDefinition: false, scopeLine: 1156, flags: DIFlagPublic | DIFlagPrototyped, isOptimized: true)
!1099 = !DISubprogram(name: "rfind", linkageName: "_ZNKSt3__112basic_stringIcNS_11char_traitsIcEENS_9allocatorIcEEE5rfindEcm", scope: !330, file: !331, line: 1157, type: !1093, isLocal: false, isDefinition: false, scopeLine: 1157, flags: DIFlagPublic | DIFlagPrototyped, isOptimized: true)
!1100 = !DISubprogram(name: "find_first_of", linkageName: "_ZNKSt3__112basic_stringIcNS_11char_traitsIcEENS_9allocatorIcEEE13find_first_ofERKS5_m", scope: !330, file: !331, line: 1160, type: !1081, isLocal: false, isDefinition: false, scopeLine: 1160, flags: DIFlagPublic | DIFlagPrototyped, isOptimized: true)
!1101 = !DISubprogram(name: "find_first_of", linkageName: "_ZNKSt3__112basic_stringIcNS_11char_traitsIcEENS_9allocatorIcEEE13find_first_ofENS_17basic_string_viewIcS2_EEm", scope: !330, file: !331, line: 1162, type: !1084, isLocal: false, isDefinition: false, scopeLine: 1162, flags: DIFlagPublic | DIFlagPrototyped, isOptimized: true)
!1102 = !DISubprogram(name: "find_first_of", linkageName: "_ZNKSt3__112basic_stringIcNS_11char_traitsIcEENS_9allocatorIcEEE13find_first_ofEPKcmm", scope: !330, file: !331, line: 1163, type: !1087, isLocal: false, isDefinition: false, scopeLine: 1163, flags: DIFlagPublic | DIFlagPrototyped, isOptimized: true)
!1103 = !DISubprogram(name: "find_first_of", linkageName: "_ZNKSt3__112basic_stringIcNS_11char_traitsIcEENS_9allocatorIcEEE13find_first_ofEPKcm", scope: !330, file: !331, line: 1165, type: !1090, isLocal: false, isDefinition: false, scopeLine: 1165, flags: DIFlagPublic | DIFlagPrototyped, isOptimized: true)
!1104 = !DISubprogram(name: "find_first_of", linkageName: "_ZNKSt3__112basic_stringIcNS_11char_traitsIcEENS_9allocatorIcEEE13find_first_ofEcm", scope: !330, file: !331, line: 1167, type: !1093, isLocal: false, isDefinition: false, scopeLine: 1167, flags: DIFlagPublic | DIFlagPrototyped, isOptimized: true)
!1105 = !DISubprogram(name: "find_last_of", linkageName: "_ZNKSt3__112basic_stringIcNS_11char_traitsIcEENS_9allocatorIcEEE12find_last_ofERKS5_m", scope: !330, file: !331, line: 1170, type: !1081, isLocal: false, isDefinition: false, scopeLine: 1170, flags: DIFlagPublic | DIFlagPrototyped, isOptimized: true)
!1106 = !DISubprogram(name: "find_last_of", linkageName: "_ZNKSt3__112basic_stringIcNS_11char_traitsIcEENS_9allocatorIcEEE12find_last_ofENS_17basic_string_viewIcS2_EEm", scope: !330, file: !331, line: 1172, type: !1084, isLocal: false, isDefinition: false, scopeLine: 1172, flags: DIFlagPublic | DIFlagPrototyped, isOptimized: true)
!1107 = !DISubprogram(name: "find_last_of", linkageName: "_ZNKSt3__112basic_stringIcNS_11char_traitsIcEENS_9allocatorIcEEE12find_last_ofEPKcmm", scope: !330, file: !331, line: 1173, type: !1087, isLocal: false, isDefinition: false, scopeLine: 1173, flags: DIFlagPublic | DIFlagPrototyped, isOptimized: true)
!1108 = !DISubprogram(name: "find_last_of", linkageName: "_ZNKSt3__112basic_stringIcNS_11char_traitsIcEENS_9allocatorIcEEE12find_last_ofEPKcm", scope: !330, file: !331, line: 1175, type: !1090, isLocal: false, isDefinition: false, scopeLine: 1175, flags: DIFlagPublic | DIFlagPrototyped, isOptimized: true)
